
H723_MAX3421 FAT_R0.16.elf:     file format elf32-littlearm

Sections:
Idx Name          Size      VMA       LMA       File off  Algn
  0 .isr_vector   000002cc  08000000  08000000  00001000  2**0
                  CONTENTS, ALLOC, LOAD, READONLY, DATA
  1 .text         0000899c  080002cc  080002cc  000012cc  2**2
                  CONTENTS, ALLOC, LOAD, READONLY, CODE
  2 .rodata       00000868  08008c68  08008c68  00009c68  2**2
                  CONTENTS, ALLOC, LOAD, READONLY, DATA
  3 .ARM          00000008  080094d0  080094d0  0000a4d0  2**2
                  CONTENTS, ALLOC, LOAD, READONLY, DATA
  4 .init_array   00000004  080094d8  080094d8  0000a4d8  2**2
                  CONTENTS, ALLOC, LOAD, READONLY, DATA
  5 .fini_array   00000004  080094dc  080094dc  0000a4dc  2**2
                  CONTENTS, ALLOC, LOAD, READONLY, DATA
  6 .data         00000040  24000000  080094e0  0000b000  2**2
                  CONTENTS, ALLOC, LOAD, DATA
  7 .bss          00001de4  24000040  08009520  0000b040  2**5
                  ALLOC
  8 ._user_heap_stack 00000604  24001e24  08009520  0000be24  2**0
                  ALLOC
  9 .ARM.attributes 0000002e  00000000  00000000  0000b040  2**0
                  CONTENTS, READONLY
 10 .comment      00000043  00000000  00000000  0000b06e  2**0
                  CONTENTS, READONLY
 11 .debug_frame  0000011c  00000000  00000000  0000b0b4  2**2
                  CONTENTS, READONLY, DEBUGGING, OCTETS

Disassembly of section .text:

080002cc <__do_global_dtors_aux>:
 80002cc:	b510      	push	{r4, lr}
 80002ce:	4c05      	ldr	r4, [pc, #20]	@ (80002e4 <__do_global_dtors_aux+0x18>)
 80002d0:	7823      	ldrb	r3, [r4, #0]
 80002d2:	b933      	cbnz	r3, 80002e2 <__do_global_dtors_aux+0x16>
 80002d4:	4b04      	ldr	r3, [pc, #16]	@ (80002e8 <__do_global_dtors_aux+0x1c>)
 80002d6:	b113      	cbz	r3, 80002de <__do_global_dtors_aux+0x12>
 80002d8:	4804      	ldr	r0, [pc, #16]	@ (80002ec <__do_global_dtors_aux+0x20>)
 80002da:	f3af 8000 	nop.w
 80002de:	2301      	movs	r3, #1
 80002e0:	7023      	strb	r3, [r4, #0]
 80002e2:	bd10      	pop	{r4, pc}
 80002e4:	24000040 	.word	0x24000040
 80002e8:	00000000 	.word	0x00000000
 80002ec:	08008c50 	.word	0x08008c50

080002f0 <frame_dummy>:
 80002f0:	b508      	push	{r3, lr}
 80002f2:	4b03      	ldr	r3, [pc, #12]	@ (8000300 <frame_dummy+0x10>)
 80002f4:	b11b      	cbz	r3, 80002fe <frame_dummy+0xe>
 80002f6:	4903      	ldr	r1, [pc, #12]	@ (8000304 <frame_dummy+0x14>)
 80002f8:	4803      	ldr	r0, [pc, #12]	@ (8000308 <frame_dummy+0x18>)
 80002fa:	f3af 8000 	nop.w
 80002fe:	bd08      	pop	{r3, pc}
 8000300:	00000000 	.word	0x00000000
 8000304:	24000044 	.word	0x24000044
 8000308:	08008c50 	.word	0x08008c50

0800030c <__aeabi_uldivmod>:
 800030c:	b953      	cbnz	r3, 8000324 <__aeabi_uldivmod+0x18>
 800030e:	b94a      	cbnz	r2, 8000324 <__aeabi_uldivmod+0x18>
 8000310:	2900      	cmp	r1, #0
 8000312:	bf08      	it	eq
 8000314:	2800      	cmpeq	r0, #0
 8000316:	bf1c      	itt	ne
 8000318:	f04f 31ff 	movne.w	r1, #4294967295
 800031c:	f04f 30ff 	movne.w	r0, #4294967295
 8000320:	f000 b988 	b.w	8000634 <__aeabi_idiv0>
 8000324:	f1ad 0c08 	sub.w	ip, sp, #8
 8000328:	e96d ce04 	strd	ip, lr, [sp, #-16]!
 800032c:	f000 f806 	bl	800033c <__udivmoddi4>
 8000330:	f8dd e004 	ldr.w	lr, [sp, #4]
 8000334:	e9dd 2302 	ldrd	r2, r3, [sp, #8]
 8000338:	b004      	add	sp, #16
 800033a:	4770      	bx	lr

0800033c <__udivmoddi4>:
 800033c:	e92d 47f0 	stmdb	sp!, {r4, r5, r6, r7, r8, r9, sl, lr}
 8000340:	9d08      	ldr	r5, [sp, #32]
 8000342:	460f      	mov	r7, r1
 8000344:	4604      	mov	r4, r0
 8000346:	468c      	mov	ip, r1
 8000348:	2b00      	cmp	r3, #0
 800034a:	d148      	bne.n	80003de <__udivmoddi4+0xa2>
 800034c:	428a      	cmp	r2, r1
 800034e:	4616      	mov	r6, r2
 8000350:	d961      	bls.n	8000416 <__udivmoddi4+0xda>
 8000352:	fab2 f382 	clz	r3, r2
 8000356:	b14b      	cbz	r3, 800036c <__udivmoddi4+0x30>
 8000358:	f1c3 0220 	rsb	r2, r3, #32
 800035c:	fa01 fc03 	lsl.w	ip, r1, r3
 8000360:	fa20 f202 	lsr.w	r2, r0, r2
 8000364:	409e      	lsls	r6, r3
 8000366:	ea42 0c0c 	orr.w	ip, r2, ip
 800036a:	409c      	lsls	r4, r3
 800036c:	ea4f 4e16 	mov.w	lr, r6, lsr #16
 8000370:	b2b7      	uxth	r7, r6
 8000372:	fbbc f1fe 	udiv	r1, ip, lr
 8000376:	0c22      	lsrs	r2, r4, #16
 8000378:	fb0e cc11 	mls	ip, lr, r1, ip
 800037c:	ea42 420c 	orr.w	r2, r2, ip, lsl #16
 8000380:	fb01 f007 	mul.w	r0, r1, r7
 8000384:	4290      	cmp	r0, r2
 8000386:	d909      	bls.n	800039c <__udivmoddi4+0x60>
 8000388:	18b2      	adds	r2, r6, r2
 800038a:	f101 3cff 	add.w	ip, r1, #4294967295
 800038e:	f080 80ee 	bcs.w	800056e <__udivmoddi4+0x232>
 8000392:	4290      	cmp	r0, r2
 8000394:	f240 80eb 	bls.w	800056e <__udivmoddi4+0x232>
 8000398:	3902      	subs	r1, #2
 800039a:	4432      	add	r2, r6
 800039c:	1a12      	subs	r2, r2, r0
 800039e:	b2a4      	uxth	r4, r4
 80003a0:	fbb2 f0fe 	udiv	r0, r2, lr
 80003a4:	fb0e 2210 	mls	r2, lr, r0, r2
 80003a8:	ea44 4402 	orr.w	r4, r4, r2, lsl #16
 80003ac:	fb00 f707 	mul.w	r7, r0, r7
 80003b0:	42a7      	cmp	r7, r4
 80003b2:	d909      	bls.n	80003c8 <__udivmoddi4+0x8c>
 80003b4:	1934      	adds	r4, r6, r4
 80003b6:	f100 32ff 	add.w	r2, r0, #4294967295
 80003ba:	f080 80da 	bcs.w	8000572 <__udivmoddi4+0x236>
 80003be:	42a7      	cmp	r7, r4
 80003c0:	f240 80d7 	bls.w	8000572 <__udivmoddi4+0x236>
 80003c4:	4434      	add	r4, r6
 80003c6:	3802      	subs	r0, #2
 80003c8:	ea40 4001 	orr.w	r0, r0, r1, lsl #16
 80003cc:	1be4      	subs	r4, r4, r7
 80003ce:	2100      	movs	r1, #0
 80003d0:	b11d      	cbz	r5, 80003da <__udivmoddi4+0x9e>
 80003d2:	40dc      	lsrs	r4, r3
 80003d4:	2300      	movs	r3, #0
 80003d6:	e9c5 4300 	strd	r4, r3, [r5]
 80003da:	e8bd 87f0 	ldmia.w	sp!, {r4, r5, r6, r7, r8, r9, sl, pc}
 80003de:	428b      	cmp	r3, r1
 80003e0:	d906      	bls.n	80003f0 <__udivmoddi4+0xb4>
 80003e2:	b10d      	cbz	r5, 80003e8 <__udivmoddi4+0xac>
 80003e4:	e9c5 0100 	strd	r0, r1, [r5]
 80003e8:	2100      	movs	r1, #0
 80003ea:	4608      	mov	r0, r1
 80003ec:	e8bd 87f0 	ldmia.w	sp!, {r4, r5, r6, r7, r8, r9, sl, pc}
 80003f0:	fab3 f183 	clz	r1, r3
 80003f4:	2900      	cmp	r1, #0
 80003f6:	d148      	bne.n	800048a <__udivmoddi4+0x14e>
 80003f8:	42bb      	cmp	r3, r7
 80003fa:	d302      	bcc.n	8000402 <__udivmoddi4+0xc6>
 80003fc:	4282      	cmp	r2, r0
 80003fe:	f200 8107 	bhi.w	8000610 <__udivmoddi4+0x2d4>
 8000402:	1a84      	subs	r4, r0, r2
 8000404:	eb67 0203 	sbc.w	r2, r7, r3
 8000408:	2001      	movs	r0, #1
 800040a:	4694      	mov	ip, r2
 800040c:	2d00      	cmp	r5, #0
 800040e:	d0e4      	beq.n	80003da <__udivmoddi4+0x9e>
 8000410:	e9c5 4c00 	strd	r4, ip, [r5]
 8000414:	e7e1      	b.n	80003da <__udivmoddi4+0x9e>
 8000416:	2a00      	cmp	r2, #0
 8000418:	f000 8092 	beq.w	8000540 <__udivmoddi4+0x204>
 800041c:	fab2 f382 	clz	r3, r2
 8000420:	2b00      	cmp	r3, #0
 8000422:	f040 80a8 	bne.w	8000576 <__udivmoddi4+0x23a>
 8000426:	1a8a      	subs	r2, r1, r2
 8000428:	ea4f 4e16 	mov.w	lr, r6, lsr #16
 800042c:	fa1f fc86 	uxth.w	ip, r6
 8000430:	2101      	movs	r1, #1
 8000432:	0c20      	lsrs	r0, r4, #16
 8000434:	fbb2 f7fe 	udiv	r7, r2, lr
 8000438:	fb0e 2217 	mls	r2, lr, r7, r2
 800043c:	ea40 4202 	orr.w	r2, r0, r2, lsl #16
 8000440:	fb0c f007 	mul.w	r0, ip, r7
 8000444:	4290      	cmp	r0, r2
 8000446:	d907      	bls.n	8000458 <__udivmoddi4+0x11c>
 8000448:	18b2      	adds	r2, r6, r2
 800044a:	f107 38ff 	add.w	r8, r7, #4294967295
 800044e:	d202      	bcs.n	8000456 <__udivmoddi4+0x11a>
 8000450:	4290      	cmp	r0, r2
 8000452:	f200 80e2 	bhi.w	800061a <__udivmoddi4+0x2de>
 8000456:	4647      	mov	r7, r8
 8000458:	1a12      	subs	r2, r2, r0
 800045a:	b2a4      	uxth	r4, r4
 800045c:	fbb2 f0fe 	udiv	r0, r2, lr
 8000460:	fb0e 2210 	mls	r2, lr, r0, r2
 8000464:	ea44 4402 	orr.w	r4, r4, r2, lsl #16
 8000468:	fb0c fc00 	mul.w	ip, ip, r0
 800046c:	45a4      	cmp	ip, r4
 800046e:	d907      	bls.n	8000480 <__udivmoddi4+0x144>
 8000470:	1934      	adds	r4, r6, r4
 8000472:	f100 32ff 	add.w	r2, r0, #4294967295
 8000476:	d202      	bcs.n	800047e <__udivmoddi4+0x142>
 8000478:	45a4      	cmp	ip, r4
 800047a:	f200 80cb 	bhi.w	8000614 <__udivmoddi4+0x2d8>
 800047e:	4610      	mov	r0, r2
 8000480:	eba4 040c 	sub.w	r4, r4, ip
 8000484:	ea40 4007 	orr.w	r0, r0, r7, lsl #16
 8000488:	e7a2      	b.n	80003d0 <__udivmoddi4+0x94>
 800048a:	f1c1 0620 	rsb	r6, r1, #32
 800048e:	408b      	lsls	r3, r1
 8000490:	fa22 fc06 	lsr.w	ip, r2, r6
 8000494:	ea4c 0c03 	orr.w	ip, ip, r3
 8000498:	fa07 f401 	lsl.w	r4, r7, r1
 800049c:	fa20 f306 	lsr.w	r3, r0, r6
 80004a0:	40f7      	lsrs	r7, r6
 80004a2:	ea4f 491c 	mov.w	r9, ip, lsr #16
 80004a6:	4323      	orrs	r3, r4
 80004a8:	fa00 f801 	lsl.w	r8, r0, r1
 80004ac:	fa1f fe8c 	uxth.w	lr, ip
 80004b0:	fbb7 f0f9 	udiv	r0, r7, r9
 80004b4:	0c1c      	lsrs	r4, r3, #16
 80004b6:	fb09 7710 	mls	r7, r9, r0, r7
 80004ba:	ea44 4407 	orr.w	r4, r4, r7, lsl #16
 80004be:	fb00 f70e 	mul.w	r7, r0, lr
 80004c2:	42a7      	cmp	r7, r4
 80004c4:	fa02 f201 	lsl.w	r2, r2, r1
 80004c8:	d90a      	bls.n	80004e0 <__udivmoddi4+0x1a4>
 80004ca:	eb1c 0404 	adds.w	r4, ip, r4
 80004ce:	f100 3aff 	add.w	sl, r0, #4294967295
 80004d2:	f080 809b 	bcs.w	800060c <__udivmoddi4+0x2d0>
 80004d6:	42a7      	cmp	r7, r4
 80004d8:	f240 8098 	bls.w	800060c <__udivmoddi4+0x2d0>
 80004dc:	3802      	subs	r0, #2
 80004de:	4464      	add	r4, ip
 80004e0:	1be4      	subs	r4, r4, r7
 80004e2:	b29f      	uxth	r7, r3
 80004e4:	fbb4 f3f9 	udiv	r3, r4, r9
 80004e8:	fb09 4413 	mls	r4, r9, r3, r4
 80004ec:	ea47 4404 	orr.w	r4, r7, r4, lsl #16
 80004f0:	fb03 fe0e 	mul.w	lr, r3, lr
 80004f4:	45a6      	cmp	lr, r4
 80004f6:	d909      	bls.n	800050c <__udivmoddi4+0x1d0>
 80004f8:	eb1c 0404 	adds.w	r4, ip, r4
 80004fc:	f103 37ff 	add.w	r7, r3, #4294967295
 8000500:	f080 8082 	bcs.w	8000608 <__udivmoddi4+0x2cc>
 8000504:	45a6      	cmp	lr, r4
 8000506:	d97f      	bls.n	8000608 <__udivmoddi4+0x2cc>
 8000508:	3b02      	subs	r3, #2
 800050a:	4464      	add	r4, ip
 800050c:	ea43 4000 	orr.w	r0, r3, r0, lsl #16
 8000510:	eba4 040e 	sub.w	r4, r4, lr
 8000514:	fba0 e702 	umull	lr, r7, r0, r2
 8000518:	42bc      	cmp	r4, r7
 800051a:	4673      	mov	r3, lr
 800051c:	46b9      	mov	r9, r7
 800051e:	d363      	bcc.n	80005e8 <__udivmoddi4+0x2ac>
 8000520:	d060      	beq.n	80005e4 <__udivmoddi4+0x2a8>
 8000522:	b15d      	cbz	r5, 800053c <__udivmoddi4+0x200>
 8000524:	ebb8 0203 	subs.w	r2, r8, r3
 8000528:	eb64 0409 	sbc.w	r4, r4, r9
 800052c:	fa04 f606 	lsl.w	r6, r4, r6
 8000530:	fa22 f301 	lsr.w	r3, r2, r1
 8000534:	431e      	orrs	r6, r3
 8000536:	40cc      	lsrs	r4, r1
 8000538:	e9c5 6400 	strd	r6, r4, [r5]
 800053c:	2100      	movs	r1, #0
 800053e:	e74c      	b.n	80003da <__udivmoddi4+0x9e>
 8000540:	0862      	lsrs	r2, r4, #1
 8000542:	0848      	lsrs	r0, r1, #1
 8000544:	ea42 71c1 	orr.w	r1, r2, r1, lsl #31
 8000548:	0c0b      	lsrs	r3, r1, #16
 800054a:	ea43 4300 	orr.w	r3, r3, r0, lsl #16
 800054e:	b28a      	uxth	r2, r1
 8000550:	ea42 4203 	orr.w	r2, r2, r3, lsl #16
 8000554:	fbb3 f1f6 	udiv	r1, r3, r6
 8000558:	07e4      	lsls	r4, r4, #31
 800055a:	46b4      	mov	ip, r6
 800055c:	4637      	mov	r7, r6
 800055e:	46b6      	mov	lr, r6
 8000560:	231f      	movs	r3, #31
 8000562:	fbb0 f0f6 	udiv	r0, r0, r6
 8000566:	1bd2      	subs	r2, r2, r7
 8000568:	ea41 4100 	orr.w	r1, r1, r0, lsl #16
 800056c:	e761      	b.n	8000432 <__udivmoddi4+0xf6>
 800056e:	4661      	mov	r1, ip
 8000570:	e714      	b.n	800039c <__udivmoddi4+0x60>
 8000572:	4610      	mov	r0, r2
 8000574:	e728      	b.n	80003c8 <__udivmoddi4+0x8c>
 8000576:	f1c3 0120 	rsb	r1, r3, #32
 800057a:	fa20 f201 	lsr.w	r2, r0, r1
 800057e:	409e      	lsls	r6, r3
 8000580:	fa27 f101 	lsr.w	r1, r7, r1
 8000584:	409f      	lsls	r7, r3
 8000586:	433a      	orrs	r2, r7
 8000588:	ea4f 4e16 	mov.w	lr, r6, lsr #16
 800058c:	fa1f fc86 	uxth.w	ip, r6
 8000590:	fbb1 f7fe 	udiv	r7, r1, lr
 8000594:	fb0e 1017 	mls	r0, lr, r7, r1
 8000598:	0c11      	lsrs	r1, r2, #16
 800059a:	ea41 4100 	orr.w	r1, r1, r0, lsl #16
 800059e:	fb07 f80c 	mul.w	r8, r7, ip
 80005a2:	4588      	cmp	r8, r1
 80005a4:	fa04 f403 	lsl.w	r4, r4, r3
 80005a8:	d93a      	bls.n	8000620 <__udivmoddi4+0x2e4>
 80005aa:	1871      	adds	r1, r6, r1
 80005ac:	f107 30ff 	add.w	r0, r7, #4294967295
 80005b0:	d201      	bcs.n	80005b6 <__udivmoddi4+0x27a>
 80005b2:	4588      	cmp	r8, r1
 80005b4:	d81f      	bhi.n	80005f6 <__udivmoddi4+0x2ba>
 80005b6:	eba1 0108 	sub.w	r1, r1, r8
 80005ba:	fbb1 f8fe 	udiv	r8, r1, lr
 80005be:	fb08 f70c 	mul.w	r7, r8, ip
 80005c2:	fb0e 1118 	mls	r1, lr, r8, r1
 80005c6:	b292      	uxth	r2, r2
 80005c8:	ea42 4201 	orr.w	r2, r2, r1, lsl #16
 80005cc:	42ba      	cmp	r2, r7
 80005ce:	d22f      	bcs.n	8000630 <__udivmoddi4+0x2f4>
 80005d0:	18b2      	adds	r2, r6, r2
 80005d2:	f108 31ff 	add.w	r1, r8, #4294967295
 80005d6:	d2c6      	bcs.n	8000566 <__udivmoddi4+0x22a>
 80005d8:	42ba      	cmp	r2, r7
 80005da:	d2c4      	bcs.n	8000566 <__udivmoddi4+0x22a>
 80005dc:	f1a8 0102 	sub.w	r1, r8, #2
 80005e0:	4432      	add	r2, r6
 80005e2:	e7c0      	b.n	8000566 <__udivmoddi4+0x22a>
 80005e4:	45f0      	cmp	r8, lr
 80005e6:	d29c      	bcs.n	8000522 <__udivmoddi4+0x1e6>
 80005e8:	ebbe 0302 	subs.w	r3, lr, r2
 80005ec:	eb67 070c 	sbc.w	r7, r7, ip
 80005f0:	3801      	subs	r0, #1
 80005f2:	46b9      	mov	r9, r7
 80005f4:	e795      	b.n	8000522 <__udivmoddi4+0x1e6>
 80005f6:	eba6 0808 	sub.w	r8, r6, r8
 80005fa:	4441      	add	r1, r8
 80005fc:	1eb8      	subs	r0, r7, #2
 80005fe:	fbb1 f8fe 	udiv	r8, r1, lr
 8000602:	fb08 f70c 	mul.w	r7, r8, ip
 8000606:	e7dc      	b.n	80005c2 <__udivmoddi4+0x286>
 8000608:	463b      	mov	r3, r7
 800060a:	e77f      	b.n	800050c <__udivmoddi4+0x1d0>
 800060c:	4650      	mov	r0, sl
 800060e:	e767      	b.n	80004e0 <__udivmoddi4+0x1a4>
 8000610:	4608      	mov	r0, r1
 8000612:	e6fb      	b.n	800040c <__udivmoddi4+0xd0>
 8000614:	4434      	add	r4, r6
 8000616:	3802      	subs	r0, #2
 8000618:	e732      	b.n	8000480 <__udivmoddi4+0x144>
 800061a:	3f02      	subs	r7, #2
 800061c:	4432      	add	r2, r6
 800061e:	e71b      	b.n	8000458 <__udivmoddi4+0x11c>
 8000620:	eba1 0108 	sub.w	r1, r1, r8
 8000624:	4638      	mov	r0, r7
 8000626:	fbb1 f8fe 	udiv	r8, r1, lr
 800062a:	fb08 f70c 	mul.w	r7, r8, ip
 800062e:	e7c8      	b.n	80005c2 <__udivmoddi4+0x286>
 8000630:	4641      	mov	r1, r8
 8000632:	e798      	b.n	8000566 <__udivmoddi4+0x22a>

08000634 <__aeabi_idiv0>:
 8000634:	4770      	bx	lr
 8000636:	bf00      	nop

08000638 <disk_io_complete>:
 8000638:	4b02      	ldr	r3, [pc, #8]	@ (8000644 <disk_io_complete+0xc>)
 800063a:	2200      	movs	r2, #0
 800063c:	2001      	movs	r0, #1
 800063e:	701a      	strb	r2, [r3, #0]
 8000640:	4770      	bx	lr
 8000642:	bf00      	nop
 8000644:	2400005d 	.word	0x2400005d

08000648 <MX_GPIO_Init>:
 8000648:	b530      	push	{r4, r5, lr}
 800064a:	2214      	movs	r2, #20
 800064c:	b08b      	sub	sp, #44	@ 0x2c
 800064e:	2100      	movs	r1, #0
 8000650:	2400      	movs	r4, #0
 8000652:	eb0d 0002 	add.w	r0, sp, r2
 8000656:	2501      	movs	r5, #1
 8000658:	f008 fab3 	bl	8008bc2 <memset>
 800065c:	4b34      	ldr	r3, [pc, #208]	@ (8000730 <MX_GPIO_Init+0xe8>)
 800065e:	2102      	movs	r1, #2
 8000660:	4834      	ldr	r0, [pc, #208]	@ (8000734 <MX_GPIO_Init+0xec>)
 8000662:	f8d3 20e0 	ldr.w	r2, [r3, #224]	@ 0xe0
 8000666:	f042 0280 	orr.w	r2, r2, #128	@ 0x80
 800066a:	f8c3 20e0 	str.w	r2, [r3, #224]	@ 0xe0
 800066e:	f8d3 20e0 	ldr.w	r2, [r3, #224]	@ 0xe0
 8000672:	f002 0280 	and.w	r2, r2, #128	@ 0x80
 8000676:	9201      	str	r2, [sp, #4]
 8000678:	9a01      	ldr	r2, [sp, #4]
 800067a:	f8d3 20e0 	ldr.w	r2, [r3, #224]	@ 0xe0
 800067e:	f042 0201 	orr.w	r2, r2, #1
 8000682:	f8c3 20e0 	str.w	r2, [r3, #224]	@ 0xe0
 8000686:	f8d3 20e0 	ldr.w	r2, [r3, #224]	@ 0xe0
 800068a:	f002 0201 	and.w	r2, r2, #1
 800068e:	9202      	str	r2, [sp, #8]
 8000690:	9a02      	ldr	r2, [sp, #8]
 8000692:	f8d3 20e0 	ldr.w	r2, [r3, #224]	@ 0xe0
 8000696:	f042 0210 	orr.w	r2, r2, #16
 800069a:	f8c3 20e0 	str.w	r2, [r3, #224]	@ 0xe0
 800069e:	f8d3 20e0 	ldr.w	r2, [r3, #224]	@ 0xe0
 80006a2:	f002 0210 	and.w	r2, r2, #16
 80006a6:	9203      	str	r2, [sp, #12]
 80006a8:	9a03      	ldr	r2, [sp, #12]
 80006aa:	f8d3 20e0 	ldr.w	r2, [r3, #224]	@ 0xe0
 80006ae:	f042 0202 	orr.w	r2, r2, #2
 80006b2:	f8c3 20e0 	str.w	r2, [r3, #224]	@ 0xe0
 80006b6:	2200      	movs	r2, #0
 80006b8:	f8d3 30e0 	ldr.w	r3, [r3, #224]	@ 0xe0
 80006bc:	f003 0302 	and.w	r3, r3, #2
 80006c0:	9304      	str	r3, [sp, #16]
 80006c2:	9b04      	ldr	r3, [sp, #16]
 80006c4:	f001 fa9e 	bl	8001c04 <HAL_GPIO_WritePin>
 80006c8:	2200      	movs	r2, #0
 80006ca:	f44f 5180 	mov.w	r1, #4096	@ 0x1000
 80006ce:	481a      	ldr	r0, [pc, #104]	@ (8000738 <MX_GPIO_Init+0xf0>)
 80006d0:	f001 fa98 	bl	8001c04 <HAL_GPIO_WritePin>
 80006d4:	2302      	movs	r3, #2
 80006d6:	a905      	add	r1, sp, #20
 80006d8:	4816      	ldr	r0, [pc, #88]	@ (8000734 <MX_GPIO_Init+0xec>)
 80006da:	e9cd 3505 	strd	r3, r5, [sp, #20]
 80006de:	e9cd 4407 	strd	r4, r4, [sp, #28]
 80006e2:	f001 f9a3 	bl	8001a2c <HAL_GPIO_Init>
 80006e6:	f44f 5200 	mov.w	r2, #8192	@ 0x2000
 80006ea:	f44f 1304 	mov.w	r3, #2162688	@ 0x210000
 80006ee:	a905      	add	r1, sp, #20
 80006f0:	4812      	ldr	r0, [pc, #72]	@ (800073c <MX_GPIO_Init+0xf4>)
 80006f2:	9407      	str	r4, [sp, #28]
 80006f4:	e9cd 2305 	strd	r2, r3, [sp, #20]
 80006f8:	f001 f998 	bl	8001a2c <HAL_GPIO_Init>
 80006fc:	f44f 5380 	mov.w	r3, #4096	@ 0x1000
 8000700:	a905      	add	r1, sp, #20
 8000702:	480d      	ldr	r0, [pc, #52]	@ (8000738 <MX_GPIO_Init+0xf0>)
 8000704:	e9cd 3505 	strd	r3, r5, [sp, #20]
 8000708:	e9cd 4407 	strd	r4, r4, [sp, #28]
 800070c:	f001 f98e 	bl	8001a2c <HAL_GPIO_Init>
 8000710:	4621      	mov	r1, r4
 8000712:	f04f 7000 	mov.w	r0, #33554432	@ 0x2000000
 8000716:	f001 f82f 	bl	8001778 <HAL_SYSCFG_AnalogSwitchConfig>
 800071a:	4622      	mov	r2, r4
 800071c:	4621      	mov	r1, r4
 800071e:	2028      	movs	r0, #40	@ 0x28
 8000720:	f001 f846 	bl	80017b0 <HAL_NVIC_SetPriority>
 8000724:	2028      	movs	r0, #40	@ 0x28
 8000726:	f001 f875 	bl	8001814 <HAL_NVIC_EnableIRQ>
 800072a:	b00b      	add	sp, #44	@ 0x2c
 800072c:	bd30      	pop	{r4, r5, pc}
 800072e:	bf00      	nop
 8000730:	58024400 	.word	0x58024400
 8000734:	58020000 	.word	0x58020000
 8000738:	58020400 	.word	0x58020400
 800073c:	58021000 	.word	0x58021000

08000740 <MX_USART1_UART_Init>:
 8000740:	4915      	ldr	r1, [pc, #84]	@ (8000798 <MX_USART1_UART_Init+0x58>)
 8000742:	4a16      	ldr	r2, [pc, #88]	@ (800079c <MX_USART1_UART_Init+0x5c>)
 8000744:	4608      	mov	r0, r1
 8000746:	b508      	push	{r3, lr}
 8000748:	4b15      	ldr	r3, [pc, #84]	@ (80007a0 <MX_USART1_UART_Init+0x60>)
 800074a:	600b      	str	r3, [r1, #0]
 800074c:	2300      	movs	r3, #0
 800074e:	e9c1 2301 	strd	r2, r3, [r1, #4]
 8000752:	220c      	movs	r2, #12
 8000754:	e9c1 3303 	strd	r3, r3, [r1, #12]
 8000758:	e9c1 2305 	strd	r2, r3, [r1, #20]
 800075c:	e9c1 3307 	strd	r3, r3, [r1, #28]
 8000760:	e9c1 3309 	strd	r3, r3, [r1, #36]	@ 0x24
 8000764:	f003 fc3b 	bl	8003fde <HAL_UART_Init>
 8000768:	4601      	mov	r1, r0
 800076a:	b108      	cbz	r0, 8000770 <MX_USART1_UART_Init+0x30>
 800076c:	b672      	cpsid	i
 800076e:	e7fe      	b.n	800076e <MX_USART1_UART_Init+0x2e>
 8000770:	4809      	ldr	r0, [pc, #36]	@ (8000798 <MX_USART1_UART_Init+0x58>)
 8000772:	f003 fca2 	bl	80040ba <HAL_UARTEx_SetTxFifoThreshold>
 8000776:	4601      	mov	r1, r0
 8000778:	b108      	cbz	r0, 800077e <MX_USART1_UART_Init+0x3e>
 800077a:	b672      	cpsid	i
 800077c:	e7fe      	b.n	800077c <MX_USART1_UART_Init+0x3c>
 800077e:	4806      	ldr	r0, [pc, #24]	@ (8000798 <MX_USART1_UART_Init+0x58>)
 8000780:	f003 fcbb 	bl	80040fa <HAL_UARTEx_SetRxFifoThreshold>
 8000784:	b108      	cbz	r0, 800078a <MX_USART1_UART_Init+0x4a>
 8000786:	b672      	cpsid	i
 8000788:	e7fe      	b.n	8000788 <MX_USART1_UART_Init+0x48>
 800078a:	4803      	ldr	r0, [pc, #12]	@ (8000798 <MX_USART1_UART_Init+0x58>)
 800078c:	f003 fc7a 	bl	8004084 <HAL_UARTEx_DisableFifoMode>
 8000790:	b108      	cbz	r0, 8000796 <MX_USART1_UART_Init+0x56>
 8000792:	b672      	cpsid	i
 8000794:	e7fe      	b.n	8000794 <MX_USART1_UART_Init+0x54>
 8000796:	bd08      	pop	{r3, pc}
 8000798:	24001520 	.word	0x24001520
 800079c:	0003d090 	.word	0x0003d090
 80007a0:	40011000 	.word	0x40011000

080007a4 <crc32b>:
 80007a4:	b530      	push	{r4, r5, lr}
 80007a6:	440a      	add	r2, r1
 80007a8:	4d08      	ldr	r5, [pc, #32]	@ (80007cc <crc32b+0x28>)
 80007aa:	428a      	cmp	r2, r1
 80007ac:	d101      	bne.n	80007b2 <crc32b+0xe>
 80007ae:	43c0      	mvns	r0, r0
 80007b0:	bd30      	pop	{r4, r5, pc}
 80007b2:	f811 3b01 	ldrb.w	r3, [r1], #1
 80007b6:	4058      	eors	r0, r3
 80007b8:	2308      	movs	r3, #8
 80007ba:	f340 0400 	sbfx	r4, r0, #0, #1
 80007be:	3b01      	subs	r3, #1
 80007c0:	ea04 0405 	and.w	r4, r4, r5
 80007c4:	ea84 0050 	eor.w	r0, r4, r0, lsr #1
 80007c8:	d1f7      	bne.n	80007ba <crc32b+0x16>
 80007ca:	e7ee      	b.n	80007aa <crc32b+0x6>
 80007cc:	edb88320 	.word	0xedb88320

080007d0 <uart_printf>:
 80007d0:	b40f      	push	{r0, r1, r2, r3}
 80007d2:	e92d 4ff0 	stmdb	sp!, {r4, r5, r6, r7, r8, r9, sl, fp, lr}
 80007d6:	b0cb      	sub	sp, #300	@ 0x12c
 80007d8:	ab54      	add	r3, sp, #336	@ 0x150
 80007da:	aa0a      	add	r2, sp, #40	@ 0x28
 80007dc:	a801      	add	r0, sp, #4
 80007de:	f853 4b04 	ldr.w	r4, [r3], #4
 80007e2:	4611      	mov	r1, r2
 80007e4:	6003      	str	r3, [r0, #0]
 80007e6:	f814 3b01 	ldrb.w	r3, [r4], #1
 80007ea:	b98b      	cbnz	r3, 8000810 <uart_printf+0x40>
 80007ec:	7013      	strb	r3, [r2, #0]
 80007ee:	1a52      	subs	r2, r2, r1
 80007f0:	f04f 33ff 	mov.w	r3, #4294967295
 80007f4:	4859      	ldr	r0, [pc, #356]	@ (800095c <uart_printf+0x18c>)
 80007f6:	b292      	uxth	r2, r2
 80007f8:	f003 fb3b 	bl	8003e72 <HAL_UART_Transmit>
 80007fc:	f44f 5100 	mov.w	r1, #8192	@ 0x2000
 8000800:	4857      	ldr	r0, [pc, #348]	@ (8000960 <uart_printf+0x190>)
 8000802:	f001 fa04 	bl	8001c0e <HAL_GPIO_TogglePin>
 8000806:	b04b      	add	sp, #300	@ 0x12c
 8000808:	e8bd 4ff0 	ldmia.w	sp!, {r4, r5, r6, r7, r8, r9, sl, fp, lr}
 800080c:	b004      	add	sp, #16
 800080e:	4770      	bx	lr
 8000810:	2b25      	cmp	r3, #37	@ 0x25
 8000812:	d10d      	bne.n	8000830 <uart_printf+0x60>
 8000814:	f04f 0e20 	mov.w	lr, #32
 8000818:	2600      	movs	r6, #0
 800081a:	f814 3b01 	ldrb.w	r3, [r4], #1
 800081e:	2b69      	cmp	r3, #105	@ 0x69
 8000820:	d82a      	bhi.n	8000878 <uart_printf+0xa8>
 8000822:	2b61      	cmp	r3, #97	@ 0x61
 8000824:	d807      	bhi.n	8000836 <uart_printf+0x66>
 8000826:	2b30      	cmp	r3, #48	@ 0x30
 8000828:	d038      	beq.n	800089c <uart_printf+0xcc>
 800082a:	d81b      	bhi.n	8000864 <uart_printf+0x94>
 800082c:	2b25      	cmp	r3, #37	@ 0x25
 800082e:	d1da      	bne.n	80007e6 <uart_printf+0x16>
 8000830:	f802 3b01 	strb.w	r3, [r2], #1
 8000834:	e7d7      	b.n	80007e6 <uart_printf+0x16>
 8000836:	3b62      	subs	r3, #98	@ 0x62
 8000838:	2b07      	cmp	r3, #7
 800083a:	d8d4      	bhi.n	80007e6 <uart_printf+0x16>
 800083c:	a501      	add	r5, pc, #4	@ (adr r5, 8000844 <uart_printf+0x74>)
 800083e:	f855 f023 	ldr.w	pc, [r5, r3, lsl #2]
 8000842:	bf00      	nop
 8000844:	08000943 	.word	0x08000943
 8000848:	080008a7 	.word	0x080008a7
 800084c:	080008b1 	.word	0x080008b1
 8000850:	080007e7 	.word	0x080007e7
 8000854:	080007e7 	.word	0x080007e7
 8000858:	080007e7 	.word	0x080007e7
 800085c:	080007e7 	.word	0x080007e7
 8000860:	080008b1 	.word	0x080008b1
 8000864:	f1a3 0531 	sub.w	r5, r3, #49	@ 0x31
 8000868:	2d08      	cmp	r5, #8
 800086a:	d8bc      	bhi.n	80007e6 <uart_printf+0x16>
 800086c:	250a      	movs	r5, #10
 800086e:	fb05 3306 	mla	r3, r5, r6, r3
 8000872:	f1a3 0630 	sub.w	r6, r3, #48	@ 0x30
 8000876:	e7d0      	b.n	800081a <uart_printf+0x4a>
 8000878:	2b75      	cmp	r3, #117	@ 0x75
 800087a:	d057      	beq.n	800092c <uart_printf+0x15c>
 800087c:	2b78      	cmp	r3, #120	@ 0x78
 800087e:	d05e      	beq.n	800093e <uart_printf+0x16e>
 8000880:	2b73      	cmp	r3, #115	@ 0x73
 8000882:	d1b0      	bne.n	80007e6 <uart_printf+0x16>
 8000884:	6803      	ldr	r3, [r0, #0]
 8000886:	1d1d      	adds	r5, r3, #4
 8000888:	681b      	ldr	r3, [r3, #0]
 800088a:	3b01      	subs	r3, #1
 800088c:	6005      	str	r5, [r0, #0]
 800088e:	f813 5f01 	ldrb.w	r5, [r3, #1]!
 8000892:	2d00      	cmp	r5, #0
 8000894:	d0a7      	beq.n	80007e6 <uart_printf+0x16>
 8000896:	f802 5b01 	strb.w	r5, [r2], #1
 800089a:	e7f8      	b.n	800088e <uart_printf+0xbe>
 800089c:	2e00      	cmp	r6, #0
 800089e:	bf08      	it	eq
 80008a0:	f04f 0e30 	moveq.w	lr, #48	@ 0x30
 80008a4:	e7e2      	b.n	800086c <uart_printf+0x9c>
 80008a6:	6803      	ldr	r3, [r0, #0]
 80008a8:	1d1d      	adds	r5, r3, #4
 80008aa:	681b      	ldr	r3, [r3, #0]
 80008ac:	6005      	str	r5, [r0, #0]
 80008ae:	e7bf      	b.n	8000830 <uart_printf+0x60>
 80008b0:	6803      	ldr	r3, [r0, #0]
 80008b2:	f8d3 9000 	ldr.w	r9, [r3]
 80008b6:	1d1d      	adds	r5, r3, #4
 80008b8:	ea89 77e9 	eor.w	r7, r9, r9, asr #31
 80008bc:	6005      	str	r5, [r0, #0]
 80008be:	250a      	movs	r5, #10
 80008c0:	eba7 77e9 	sub.w	r7, r7, r9, asr #31
 80008c4:	f10d 0808 	add.w	r8, sp, #8
 80008c8:	46c4      	mov	ip, r8
 80008ca:	fbb7 fbf5 	udiv	fp, r7, r5
 80008ce:	fb05 731b 	mls	r3, r5, fp, r7
 80008d2:	f103 0a30 	add.w	sl, r3, #48	@ 0x30
 80008d6:	f1ba 0f39 	cmp.w	sl, #57	@ 0x39
 80008da:	bf88      	it	hi
 80008dc:	f103 0a37 	addhi.w	sl, r3, #55	@ 0x37
 80008e0:	4643      	mov	r3, r8
 80008e2:	42bd      	cmp	r5, r7
 80008e4:	f803 ab01 	strb.w	sl, [r3], #1
 80008e8:	d92d      	bls.n	8000946 <uart_printf+0x176>
 80008ea:	f1b9 0f00 	cmp.w	r9, #0
 80008ee:	bfbe      	ittt	lt
 80008f0:	252d      	movlt	r5, #45	@ 0x2d
 80008f2:	701d      	strblt	r5, [r3, #0]
 80008f4:	f108 0302 	addlt.w	r3, r8, #2
 80008f8:	eba3 050c 	sub.w	r5, r3, ip
 80008fc:	1b76      	subs	r6, r6, r5
 80008fe:	4615      	mov	r5, r2
 8000900:	eb06 0802 	add.w	r8, r6, r2
 8000904:	eba8 0705 	sub.w	r7, r8, r5
 8000908:	2f00      	cmp	r7, #0
 800090a:	dc1f      	bgt.n	800094c <uart_printf+0x17c>
 800090c:	2e00      	cmp	r6, #0
 800090e:	bfa8      	it	ge
 8000910:	1992      	addge	r2, r2, r6
 8000912:	461d      	mov	r5, r3
 8000914:	189f      	adds	r7, r3, r2
 8000916:	4565      	cmp	r5, ip
 8000918:	eba7 0605 	sub.w	r6, r7, r5
 800091c:	d819      	bhi.n	8000952 <uart_printf+0x182>
 800091e:	eba3 050c 	sub.w	r5, r3, ip
 8000922:	4563      	cmp	r3, ip
 8000924:	bf38      	it	cc
 8000926:	2500      	movcc	r5, #0
 8000928:	442a      	add	r2, r5
 800092a:	e75c      	b.n	80007e6 <uart_printf+0x16>
 800092c:	2502      	movs	r5, #2
 800092e:	3508      	adds	r5, #8
 8000930:	6803      	ldr	r3, [r0, #0]
 8000932:	f04f 0900 	mov.w	r9, #0
 8000936:	1d1f      	adds	r7, r3, #4
 8000938:	6007      	str	r7, [r0, #0]
 800093a:	681f      	ldr	r7, [r3, #0]
 800093c:	e7c2      	b.n	80008c4 <uart_printf+0xf4>
 800093e:	2508      	movs	r5, #8
 8000940:	e7f5      	b.n	800092e <uart_printf+0x15e>
 8000942:	2502      	movs	r5, #2
 8000944:	e7f4      	b.n	8000930 <uart_printf+0x160>
 8000946:	4698      	mov	r8, r3
 8000948:	465f      	mov	r7, fp
 800094a:	e7be      	b.n	80008ca <uart_printf+0xfa>
 800094c:	f805 eb01 	strb.w	lr, [r5], #1
 8000950:	e7d8      	b.n	8000904 <uart_printf+0x134>
 8000952:	f815 ed01 	ldrb.w	lr, [r5, #-1]!
 8000956:	f886 e000 	strb.w	lr, [r6]
 800095a:	e7dc      	b.n	8000916 <uart_printf+0x146>
 800095c:	24001520 	.word	0x24001520
 8000960:	58020000 	.word	0x58020000

08000964 <compareFlashToFile>:
 8000964:	e92d 47f3 	stmdb	sp!, {r0, r1, r4, r5, r6, r7, r8, r9, sl, lr}
 8000968:	2400      	movs	r4, #0
 800096a:	4f2a      	ldr	r7, [pc, #168]	@ (8000a14 <compareFlashToFile+0xb0>)
 800096c:	f8df 90c4 	ldr.w	r9, [pc, #196]	@ 8000a34 <compareFlashToFile+0xd0>
 8000970:	2200      	movs	r2, #0
 8000972:	4625      	mov	r5, r4
 8000974:	4626      	mov	r6, r4
 8000976:	2300      	movs	r3, #0
 8000978:	4827      	ldr	r0, [pc, #156]	@ (8000a18 <compareFlashToFile+0xb4>)
 800097a:	f005 fd0c 	bl	8006396 <f_lseek>
 800097e:	7038      	strb	r0, [r7, #0]
 8000980:	f8d9 3000 	ldr.w	r3, [r9]
 8000984:	7839      	ldrb	r1, [r7, #0]
 8000986:	42b3      	cmp	r3, r6
 8000988:	d932      	bls.n	80009f0 <compareFlashToFile+0x8c>
 800098a:	bb91      	cbnz	r1, 80009f2 <compareFlashToFile+0x8e>
 800098c:	b12c      	cbz	r4, 800099a <compareFlashToFile+0x36>
 800098e:	2401      	movs	r4, #1
 8000990:	4822      	ldr	r0, [pc, #136]	@ (8000a1c <compareFlashToFile+0xb8>)
 8000992:	f7ff ff1d 	bl	80007d0 <uart_printf>
 8000996:	4620      	mov	r0, r4
 8000998:	e02f      	b.n	80009fa <compareFlashToFile+0x96>
 800099a:	ab01      	add	r3, sp, #4
 800099c:	f44f 5280 	mov.w	r2, #4096	@ 0x1000
 80009a0:	491f      	ldr	r1, [pc, #124]	@ (8000a20 <compareFlashToFile+0xbc>)
 80009a2:	46b0      	mov	r8, r6
 80009a4:	481c      	ldr	r0, [pc, #112]	@ (8000a18 <compareFlashToFile+0xb4>)
 80009a6:	f005 fb57 	bl	8006058 <f_read>
 80009aa:	9a01      	ldr	r2, [sp, #4]
 80009ac:	7038      	strb	r0, [r7, #0]
 80009ae:	43e8      	mvns	r0, r5
 80009b0:	491b      	ldr	r1, [pc, #108]	@ (8000a20 <compareFlashToFile+0xbc>)
 80009b2:	f7ff fef7 	bl	80007a4 <crc32b>
 80009b6:	f8df a068 	ldr.w	sl, [pc, #104]	@ 8000a20 <compareFlashToFile+0xbc>
 80009ba:	4605      	mov	r5, r0
 80009bc:	9b01      	ldr	r3, [sp, #4]
 80009be:	eba8 0106 	sub.w	r1, r8, r6
 80009c2:	783a      	ldrb	r2, [r7, #0]
 80009c4:	428b      	cmp	r3, r1
 80009c6:	d901      	bls.n	80009cc <compareFlashToFile+0x68>
 80009c8:	b902      	cbnz	r2, 80009cc <compareFlashToFile+0x68>
 80009ca:	b10c      	cbz	r4, 80009d0 <compareFlashToFile+0x6c>
 80009cc:	441e      	add	r6, r3
 80009ce:	e7d7      	b.n	8000980 <compareFlashToFile+0x1c>
 80009d0:	f108 6100 	add.w	r1, r8, #134217728	@ 0x8000000
 80009d4:	f81a 3b01 	ldrb.w	r3, [sl], #1
 80009d8:	f501 3100 	add.w	r1, r1, #131072	@ 0x20000
 80009dc:	780a      	ldrb	r2, [r1, #0]
 80009de:	429a      	cmp	r2, r3
 80009e0:	d003      	beq.n	80009ea <compareFlashToFile+0x86>
 80009e2:	2401      	movs	r4, #1
 80009e4:	480f      	ldr	r0, [pc, #60]	@ (8000a24 <compareFlashToFile+0xc0>)
 80009e6:	f7ff fef3 	bl	80007d0 <uart_printf>
 80009ea:	f108 0801 	add.w	r8, r8, #1
 80009ee:	e7e5      	b.n	80009bc <compareFlashToFile+0x58>
 80009f0:	b131      	cbz	r1, 8000a00 <compareFlashToFile+0x9c>
 80009f2:	480d      	ldr	r0, [pc, #52]	@ (8000a28 <compareFlashToFile+0xc4>)
 80009f4:	f7ff feec 	bl	80007d0 <uart_printf>
 80009f8:	2002      	movs	r0, #2
 80009fa:	b002      	add	sp, #8
 80009fc:	e8bd 87f0 	ldmia.w	sp!, {r4, r5, r6, r7, r8, r9, sl, pc}
 8000a00:	2c00      	cmp	r4, #0
 8000a02:	d1c4      	bne.n	800098e <compareFlashToFile+0x2a>
 8000a04:	4809      	ldr	r0, [pc, #36]	@ (8000a2c <compareFlashToFile+0xc8>)
 8000a06:	f7ff fee3 	bl	80007d0 <uart_printf>
 8000a0a:	4629      	mov	r1, r5
 8000a0c:	4808      	ldr	r0, [pc, #32]	@ (8000a30 <compareFlashToFile+0xcc>)
 8000a0e:	f7ff fedf 	bl	80007d0 <uart_printf>
 8000a12:	e7c0      	b.n	8000996 <compareFlashToFile+0x32>
 8000a14:	24001064 	.word	0x24001064
 8000a18:	24001068 	.word	0x24001068
 8000a1c:	08008ca8 	.word	0x08008ca8
 8000a20:	24000060 	.word	0x24000060
 8000a24:	08008c76 	.word	0x08008c76
 8000a28:	08008c92 	.word	0x08008c92
 8000a2c:	08008cce 	.word	0x08008cce
 8000a30:	08008d90 	.word	0x08008d90
 8000a34:	24001060 	.word	0x24001060

08000a38 <CopyFileToFlashMemory>:
 8000a38:	e92d 4ff7 	stmdb	sp!, {r0, r1, r2, r4, r5, r6, r7, r8, r9, sl, fp, lr}
 8000a3c:	f000 ff54 	bl	80018e8 <HAL_FLASH_Unlock>
 8000a40:	2200      	movs	r2, #0
 8000a42:	2300      	movs	r3, #0
 8000a44:	4849      	ldr	r0, [pc, #292]	@ (8000b6c <CopyFileToFlashMemory+0x134>)
 8000a46:	f005 fca6 	bl	8006396 <f_lseek>
 8000a4a:	2401      	movs	r4, #1
 8000a4c:	4605      	mov	r5, r0
 8000a4e:	f8df 9144 	ldr.w	r9, [pc, #324]	@ 8000b94 <CopyFileToFlashMemory+0x15c>
 8000a52:	f504 43ff 	add.w	r3, r4, #32640	@ 0x7f80
 8000a56:	f8d9 2000 	ldr.w	r2, [r9]
 8000a5a:	337f      	adds	r3, #127	@ 0x7f
 8000a5c:	ebb2 4f43 	cmp.w	r2, r3, lsl #17
 8000a60:	d900      	bls.n	8000a64 <CopyFileToFlashMemory+0x2c>
 8000a62:	b1b5      	cbz	r5, 8000a92 <CopyFileToFlashMemory+0x5a>
 8000a64:	2400      	movs	r4, #0
 8000a66:	f8df a11c 	ldr.w	sl, [pc, #284]	@ 8000b84 <CopyFileToFlashMemory+0x14c>
 8000a6a:	4941      	ldr	r1, [pc, #260]	@ (8000b70 <CopyFileToFlashMemory+0x138>)
 8000a6c:	4626      	mov	r6, r4
 8000a6e:	46a0      	mov	r8, r4
 8000a70:	4840      	ldr	r0, [pc, #256]	@ (8000b74 <CopyFileToFlashMemory+0x13c>)
 8000a72:	f7ff fead 	bl	80007d0 <uart_printf>
 8000a76:	f8d9 3000 	ldr.w	r3, [r9]
 8000a7a:	4543      	cmp	r3, r8
 8000a7c:	d956      	bls.n	8000b2c <CopyFileToFlashMemory+0xf4>
 8000a7e:	b31d      	cbz	r5, 8000ac8 <CopyFileToFlashMemory+0x90>
 8000a80:	f000 ff44 	bl	800190c <HAL_FLASH_Lock>
 8000a84:	4629      	mov	r1, r5
 8000a86:	483c      	ldr	r0, [pc, #240]	@ (8000b78 <CopyFileToFlashMemory+0x140>)
 8000a88:	f7ff fea2 	bl	80007d0 <uart_printf>
 8000a8c:	2c00      	cmp	r4, #0
 8000a8e:	d056      	beq.n	8000b3e <CopyFileToFlashMemory+0x106>
 8000a90:	e051      	b.n	8000b36 <CopyFileToFlashMemory+0xfe>
 8000a92:	4621      	mov	r1, r4
 8000a94:	4839      	ldr	r0, [pc, #228]	@ (8000b7c <CopyFileToFlashMemory+0x144>)
 8000a96:	f7ff fe9b 	bl	80007d0 <uart_printf>
 8000a9a:	2220      	movs	r2, #32
 8000a9c:	2101      	movs	r1, #1
 8000a9e:	4620      	mov	r0, r4
 8000aa0:	f000 ffb2 	bl	8001a08 <FLASH_Erase_Sector>
 8000aa4:	f000 ff3e 	bl	8001924 <HAL_FLASH_GetError>
 8000aa8:	b160      	cbz	r0, 8000ac4 <CopyFileToFlashMemory+0x8c>
 8000aaa:	2401      	movs	r4, #1
 8000aac:	f000 ff3a 	bl	8001924 <HAL_FLASH_GetError>
 8000ab0:	4601      	mov	r1, r0
 8000ab2:	4833      	ldr	r0, [pc, #204]	@ (8000b80 <CopyFileToFlashMemory+0x148>)
 8000ab4:	f7ff fe8c 	bl	80007d0 <uart_printf>
 8000ab8:	f000 ff28 	bl	800190c <HAL_FLASH_Lock>
 8000abc:	4620      	mov	r0, r4
 8000abe:	b003      	add	sp, #12
 8000ac0:	e8bd 8ff0 	ldmia.w	sp!, {r4, r5, r6, r7, r8, r9, sl, fp, pc}
 8000ac4:	3401      	adds	r4, #1
 8000ac6:	e7c4      	b.n	8000a52 <CopyFileToFlashMemory+0x1a>
 8000ac8:	ab01      	add	r3, sp, #4
 8000aca:	f44f 5280 	mov.w	r2, #4096	@ 0x1000
 8000ace:	492d      	ldr	r1, [pc, #180]	@ (8000b84 <CopyFileToFlashMemory+0x14c>)
 8000ad0:	4826      	ldr	r0, [pc, #152]	@ (8000b6c <CopyFileToFlashMemory+0x134>)
 8000ad2:	f005 fac1 	bl	8006058 <f_read>
 8000ad6:	9f01      	ldr	r7, [sp, #4]
 8000ad8:	4605      	mov	r5, r0
 8000ada:	492a      	ldr	r1, [pc, #168]	@ (8000b84 <CopyFileToFlashMemory+0x14c>)
 8000adc:	43f0      	mvns	r0, r6
 8000ade:	463a      	mov	r2, r7
 8000ae0:	f7ff fe60 	bl	80007a4 <crc32b>
 8000ae4:	f5b7 5f80 	cmp.w	r7, #4096	@ 0x1000
 8000ae8:	4606      	mov	r6, r0
 8000aea:	d207      	bcs.n	8000afc <CopyFileToFlashMemory+0xc4>
 8000aec:	427a      	negs	r2, r7
 8000aee:	21ff      	movs	r1, #255	@ 0xff
 8000af0:	eb0a 0007 	add.w	r0, sl, r7
 8000af4:	f002 021f 	and.w	r2, r2, #31
 8000af8:	f008 f863 	bl	8008bc2 <memset>
 8000afc:	f108 6b00 	add.w	fp, r8, #134217728	@ 0x8000000
 8000b00:	2700      	movs	r7, #0
 8000b02:	f50b 3b00 	add.w	fp, fp, #131072	@ 0x20000
 8000b06:	9a01      	ldr	r2, [sp, #4]
 8000b08:	42ba      	cmp	r2, r7
 8000b0a:	d903      	bls.n	8000b14 <CopyFileToFlashMemory+0xdc>
 8000b0c:	ea44 0305 	orr.w	r3, r4, r5
 8000b10:	b2db      	uxtb	r3, r3
 8000b12:	b10b      	cbz	r3, 8000b18 <CopyFileToFlashMemory+0xe0>
 8000b14:	4490      	add	r8, r2
 8000b16:	e7ae      	b.n	8000a76 <CopyFileToFlashMemory+0x3e>
 8000b18:	eb0a 0207 	add.w	r2, sl, r7
 8000b1c:	eb0b 0107 	add.w	r1, fp, r7
 8000b20:	2001      	movs	r0, #1
 8000b22:	3720      	adds	r7, #32
 8000b24:	f000 ff34 	bl	8001990 <HAL_FLASH_Program>
 8000b28:	4604      	mov	r4, r0
 8000b2a:	e7ec      	b.n	8000b06 <CopyFileToFlashMemory+0xce>
 8000b2c:	f000 feee 	bl	800190c <HAL_FLASH_Lock>
 8000b30:	2d00      	cmp	r5, #0
 8000b32:	d1a7      	bne.n	8000a84 <CopyFileToFlashMemory+0x4c>
 8000b34:	b14c      	cbz	r4, 8000b4a <CopyFileToFlashMemory+0x112>
 8000b36:	4621      	mov	r1, r4
 8000b38:	4813      	ldr	r0, [pc, #76]	@ (8000b88 <CopyFileToFlashMemory+0x150>)
 8000b3a:	f7ff fe49 	bl	80007d0 <uart_printf>
 8000b3e:	2401      	movs	r4, #1
 8000b40:	f44f 707a 	mov.w	r0, #1000	@ 0x3e8
 8000b44:	f000 fe06 	bl	8001754 <HAL_Delay>
 8000b48:	e7b8      	b.n	8000abc <CopyFileToFlashMemory+0x84>
 8000b4a:	4909      	ldr	r1, [pc, #36]	@ (8000b70 <CopyFileToFlashMemory+0x138>)
 8000b4c:	f04f 30ff 	mov.w	r0, #4294967295
 8000b50:	f8d9 2000 	ldr.w	r2, [r9]
 8000b54:	f7ff fe26 	bl	80007a4 <crc32b>
 8000b58:	4286      	cmp	r6, r0
 8000b5a:	4601      	mov	r1, r0
 8000b5c:	d001      	beq.n	8000b62 <CopyFileToFlashMemory+0x12a>
 8000b5e:	480b      	ldr	r0, [pc, #44]	@ (8000b8c <CopyFileToFlashMemory+0x154>)
 8000b60:	e7eb      	b.n	8000b3a <CopyFileToFlashMemory+0x102>
 8000b62:	4631      	mov	r1, r6
 8000b64:	480a      	ldr	r0, [pc, #40]	@ (8000b90 <CopyFileToFlashMemory+0x158>)
 8000b66:	f7ff fe33 	bl	80007d0 <uart_printf>
 8000b6a:	e7e9      	b.n	8000b40 <CopyFileToFlashMemory+0x108>
 8000b6c:	24001068 	.word	0x24001068
 8000b70:	08020000 	.word	0x08020000
 8000b74:	08008d2c 	.word	0x08008d2c
 8000b78:	08008da4 	.word	0x08008da4
 8000b7c:	08008cf2 	.word	0x08008cf2
 8000b80:	08008d12 	.word	0x08008d12
 8000b84:	24000060 	.word	0x24000060
 8000b88:	08008d49 	.word	0x08008d49
 8000b8c:	08008d63 	.word	0x08008d63
 8000b90:	08008d85 	.word	0x08008d85
 8000b94:	24001060 	.word	0x24001060

08000b98 <inquiry_complete_cb>:
 8000b98:	684b      	ldr	r3, [r1, #4]
 8000b9a:	b5f0      	push	{r4, r5, r6, r7, lr}
 8000b9c:	7b1b      	ldrb	r3, [r3, #12]
 8000b9e:	b085      	sub	sp, #20
 8000ba0:	4604      	mov	r4, r0
 8000ba2:	2b00      	cmp	r3, #0
 8000ba4:	f040 80bc 	bne.w	8000d20 <inquiry_complete_cb+0x188>
 8000ba8:	680e      	ldr	r6, [r1, #0]
 8000baa:	7b71      	ldrb	r1, [r6, #13]
 8000bac:	f005 ff0c 	bl	80069c8 <tuh_msc_get_block_count>
 8000bb0:	7b71      	ldrb	r1, [r6, #13]
 8000bb2:	4605      	mov	r5, r0
 8000bb4:	4620      	mov	r0, r4
 8000bb6:	f005 ff13 	bl	80069e0 <tuh_msc_get_block_size>
 8000bba:	4604      	mov	r4, r0
 8000bbc:	f000 fdc4 	bl	8001748 <HAL_GetTick>
 8000bc0:	f44f 1280 	mov.w	r2, #1048576	@ 0x100000
 8000bc4:	4601      	mov	r1, r0
 8000bc6:	462b      	mov	r3, r5
 8000bc8:	4858      	ldr	r0, [pc, #352]	@ (8000d2c <inquiry_complete_cb+0x194>)
 8000bca:	9400      	str	r4, [sp, #0]
 8000bcc:	fbb2 f2f4 	udiv	r2, r2, r4
 8000bd0:	fbb5 f2f2 	udiv	r2, r5, r2
 8000bd4:	4d56      	ldr	r5, [pc, #344]	@ (8000d30 <inquiry_complete_cb+0x198>)
 8000bd6:	f7ff fdfb 	bl	80007d0 <uart_printf>
 8000bda:	4956      	ldr	r1, [pc, #344]	@ (8000d34 <inquiry_complete_cb+0x19c>)
 8000bdc:	2201      	movs	r2, #1
 8000bde:	4856      	ldr	r0, [pc, #344]	@ (8000d38 <inquiry_complete_cb+0x1a0>)
 8000be0:	f005 f8d4 	bl	8005d8c <f_mount>
 8000be4:	4601      	mov	r1, r0
 8000be6:	7028      	strb	r0, [r5, #0]
 8000be8:	2800      	cmp	r0, #0
 8000bea:	d03e      	beq.n	8000c6a <inquiry_complete_cb+0xd2>
 8000bec:	2803      	cmp	r0, #3
 8000bee:	d138      	bne.n	8000c62 <inquiry_complete_cb+0xca>
 8000bf0:	4852      	ldr	r0, [pc, #328]	@ (8000d3c <inquiry_complete_cb+0x1a4>)
 8000bf2:	f7ff fded 	bl	80007d0 <uart_printf>
 8000bf6:	4b52      	ldr	r3, [pc, #328]	@ (8000d40 <inquiry_complete_cb+0x1a8>)
 8000bf8:	2200      	movs	r2, #0
 8000bfa:	4c52      	ldr	r4, [pc, #328]	@ (8000d44 <inquiry_complete_cb+0x1ac>)
 8000bfc:	f8d3 10cc 	ldr.w	r1, [r3, #204]	@ 0xcc
 8000c00:	4610      	mov	r0, r2
 8000c02:	600a      	str	r2, [r1, #0]
 8000c04:	f8d3 30cc 	ldr.w	r3, [r3, #204]	@ 0xcc
 8000c08:	494a      	ldr	r1, [pc, #296]	@ (8000d34 <inquiry_complete_cb+0x19c>)
 8000c0a:	601a      	str	r2, [r3, #0]
 8000c0c:	f005 f8be 	bl	8005d8c <f_mount>
 8000c10:	6823      	ldr	r3, [r4, #0]
 8000c12:	3301      	adds	r3, #1
 8000c14:	d018      	beq.n	8000c48 <inquiry_complete_cb+0xb0>
 8000c16:	4621      	mov	r1, r4
 8000c18:	484b      	ldr	r0, [pc, #300]	@ (8000d48 <inquiry_complete_cb+0x1b0>)
 8000c1a:	f7ff fdd9 	bl	80007d0 <uart_printf>
 8000c1e:	2019      	movs	r0, #25
 8000c20:	f000 fd98 	bl	8001754 <HAL_Delay>
 8000c24:	2028      	movs	r0, #40	@ 0x28
 8000c26:	f000 fe03 	bl	8001830 <HAL_NVIC_DisableIRQ>
 8000c2a:	f001 f833 	bl	8001c94 <HAL_RCC_DeInit>
 8000c2e:	f000 fd09 	bl	8001644 <HAL_DeInit>
 8000c32:	4b46      	ldr	r3, [pc, #280]	@ (8000d4c <inquiry_complete_cb+0x1b4>)
 8000c34:	609c      	str	r4, [r3, #8]
 8000c36:	f3bf 8f4f 	dsb	sy
 8000c3a:	f3bf 8f6f 	isb	sy
 8000c3e:	e9d4 3200 	ldrd	r3, r2, [r4]
 8000c42:	f383 8808 	msr	MSP, r3
 8000c46:	4710      	bx	r2
 8000c48:	4841      	ldr	r0, [pc, #260]	@ (8000d50 <inquiry_complete_cb+0x1b8>)
 8000c4a:	f7ff fdc1 	bl	80007d0 <uart_printf>
 8000c4e:	f44f 5100 	mov.w	r1, #8192	@ 0x2000
 8000c52:	4840      	ldr	r0, [pc, #256]	@ (8000d54 <inquiry_complete_cb+0x1bc>)
 8000c54:	f000 ffdb 	bl	8001c0e <HAL_GPIO_TogglePin>
 8000c58:	f240 50dc 	movw	r0, #1500	@ 0x5dc
 8000c5c:	f000 fd7a 	bl	8001754 <HAL_Delay>
 8000c60:	e7f5      	b.n	8000c4e <inquiry_complete_cb+0xb6>
 8000c62:	483d      	ldr	r0, [pc, #244]	@ (8000d58 <inquiry_complete_cb+0x1c0>)
 8000c64:	f7ff fdb4 	bl	80007d0 <uart_printf>
 8000c68:	e7c5      	b.n	8000bf6 <inquiry_complete_cb+0x5e>
 8000c6a:	4e3c      	ldr	r6, [pc, #240]	@ (8000d5c <inquiry_complete_cb+0x1c4>)
 8000c6c:	483c      	ldr	r0, [pc, #240]	@ (8000d60 <inquiry_complete_cb+0x1c8>)
 8000c6e:	f7ff fdaf 	bl	80007d0 <uart_printf>
 8000c72:	2201      	movs	r2, #1
 8000c74:	493a      	ldr	r1, [pc, #232]	@ (8000d60 <inquiry_complete_cb+0x1c8>)
 8000c76:	4630      	mov	r0, r6
 8000c78:	f005 f8ac 	bl	8005dd4 <f_open>
 8000c7c:	b108      	cbz	r0, 8000c82 <inquiry_complete_cb+0xea>
 8000c7e:	4839      	ldr	r0, [pc, #228]	@ (8000d64 <inquiry_complete_cb+0x1cc>)
 8000c80:	e7b7      	b.n	8000bf2 <inquiry_complete_cb+0x5a>
 8000c82:	4839      	ldr	r0, [pc, #228]	@ (8000d68 <inquiry_complete_cb+0x1d0>)
 8000c84:	f7ff fda4 	bl	80007d0 <uart_printf>
 8000c88:	4f38      	ldr	r7, [pc, #224]	@ (8000d6c <inquiry_complete_cb+0x1d4>)
 8000c8a:	6933      	ldr	r3, [r6, #16]
 8000c8c:	4838      	ldr	r0, [pc, #224]	@ (8000d70 <inquiry_complete_cb+0x1d8>)
 8000c8e:	603b      	str	r3, [r7, #0]
 8000c90:	4b38      	ldr	r3, [pc, #224]	@ (8000d74 <inquiry_complete_cb+0x1dc>)
 8000c92:	f8b3 3080 	ldrh.w	r3, [r3, #128]	@ 0x80
 8000c96:	f8ad 300e 	strh.w	r3, [sp, #14]
 8000c9a:	f8bd 100e 	ldrh.w	r1, [sp, #14]
 8000c9e:	b289      	uxth	r1, r1
 8000ca0:	f7ff fd96 	bl	80007d0 <uart_printf>
 8000ca4:	f8bd 400e 	ldrh.w	r4, [sp, #14]
 8000ca8:	4833      	ldr	r0, [pc, #204]	@ (8000d78 <inquiry_complete_cb+0x1e0>)
 8000caa:	b2a4      	uxth	r4, r4
 8000cac:	02a4      	lsls	r4, r4, #10
 8000cae:	f5a4 3400 	sub.w	r4, r4, #131072	@ 0x20000
 8000cb2:	0aa1      	lsrs	r1, r4, #10
 8000cb4:	f7ff fd8c 	bl	80007d0 <uart_printf>
 8000cb8:	6839      	ldr	r1, [r7, #0]
 8000cba:	4830      	ldr	r0, [pc, #192]	@ (8000d7c <inquiry_complete_cb+0x1e4>)
 8000cbc:	0a89      	lsrs	r1, r1, #10
 8000cbe:	f7ff fd87 	bl	80007d0 <uart_printf>
 8000cc2:	683b      	ldr	r3, [r7, #0]
 8000cc4:	42a3      	cmp	r3, r4
 8000cc6:	d906      	bls.n	8000cd6 <inquiry_complete_cb+0x13e>
 8000cc8:	482d      	ldr	r0, [pc, #180]	@ (8000d80 <inquiry_complete_cb+0x1e8>)
 8000cca:	f7ff fd81 	bl	80007d0 <uart_printf>
 8000cce:	4630      	mov	r0, r6
 8000cd0:	f005 fb52 	bl	8006378 <f_close>
 8000cd4:	e78f      	b.n	8000bf6 <inquiry_complete_cb+0x5e>
 8000cd6:	482b      	ldr	r0, [pc, #172]	@ (8000d84 <inquiry_complete_cb+0x1ec>)
 8000cd8:	f7ff fd7a 	bl	80007d0 <uart_printf>
 8000cdc:	f7ff fe42 	bl	8000964 <compareFlashToFile>
 8000ce0:	2802      	cmp	r0, #2
 8000ce2:	7028      	strb	r0, [r5, #0]
 8000ce4:	d087      	beq.n	8000bf6 <inquiry_complete_cb+0x5e>
 8000ce6:	2801      	cmp	r0, #1
 8000ce8:	d102      	bne.n	8000cf0 <inquiry_complete_cb+0x158>
 8000cea:	f7ff fea5 	bl	8000a38 <CopyFileToFlashMemory>
 8000cee:	7028      	strb	r0, [r5, #0]
 8000cf0:	481a      	ldr	r0, [pc, #104]	@ (8000d5c <inquiry_complete_cb+0x1c4>)
 8000cf2:	f005 fb41 	bl	8006378 <f_close>
 8000cf6:	782b      	ldrb	r3, [r5, #0]
 8000cf8:	2b00      	cmp	r3, #0
 8000cfa:	f47f af7c 	bne.w	8000bf6 <inquiry_complete_cb+0x5e>
 8000cfe:	4822      	ldr	r0, [pc, #136]	@ (8000d88 <inquiry_complete_cb+0x1f0>)
 8000d00:	f005 fc65 	bl	80065ce <f_unlink>
 8000d04:	4920      	ldr	r1, [pc, #128]	@ (8000d88 <inquiry_complete_cb+0x1f0>)
 8000d06:	4816      	ldr	r0, [pc, #88]	@ (8000d60 <inquiry_complete_cb+0x1c8>)
 8000d08:	f005 fcbd 	bl	8006686 <f_rename>
 8000d0c:	b128      	cbz	r0, 8000d1a <inquiry_complete_cb+0x182>
 8000d0e:	481f      	ldr	r0, [pc, #124]	@ (8000d8c <inquiry_complete_cb+0x1f4>)
 8000d10:	f7ff fd5e 	bl	80007d0 <uart_printf>
 8000d14:	2301      	movs	r3, #1
 8000d16:	702b      	strb	r3, [r5, #0]
 8000d18:	e76d      	b.n	8000bf6 <inquiry_complete_cb+0x5e>
 8000d1a:	491b      	ldr	r1, [pc, #108]	@ (8000d88 <inquiry_complete_cb+0x1f0>)
 8000d1c:	481c      	ldr	r0, [pc, #112]	@ (8000d90 <inquiry_complete_cb+0x1f8>)
 8000d1e:	e7a1      	b.n	8000c64 <inquiry_complete_cb+0xcc>
 8000d20:	481c      	ldr	r0, [pc, #112]	@ (8000d94 <inquiry_complete_cb+0x1fc>)
 8000d22:	f7ff fd55 	bl	80007d0 <uart_printf>
 8000d26:	2000      	movs	r0, #0
 8000d28:	b005      	add	sp, #20
 8000d2a:	bdf0      	pop	{r4, r5, r6, r7, pc}
 8000d2c:	08008dc6 	.word	0x08008dc6
 8000d30:	24001064 	.word	0x24001064
 8000d34:	08008fb7 	.word	0x08008fb7
 8000d38:	240012c8 	.word	0x240012c8
 8000d3c:	08008dfc 	.word	0x08008dfc
 8000d40:	58004000 	.word	0x58004000
 8000d44:	08020000 	.word	0x08020000
 8000d48:	08008f70 	.word	0x08008f70
 8000d4c:	e000ed00 	.word	0xe000ed00
 8000d50:	08008f95 	.word	0x08008f95
 8000d54:	58020000 	.word	0x58020000
 8000d58:	08008e1b 	.word	0x08008e1b
 8000d5c:	24001068 	.word	0x24001068
 8000d60:	08008e52 	.word	0x08008e52
 8000d64:	08008e5f 	.word	0x08008e5f
 8000d68:	08008e6c 	.word	0x08008e6c
 8000d6c:	24001060 	.word	0x24001060
 8000d70:	08008e83 	.word	0x08008e83
 8000d74:	1ff1e800 	.word	0x1ff1e800
 8000d78:	08008ea4 	.word	0x08008ea4
 8000d7c:	08008ebe 	.word	0x08008ebe
 8000d80:	08008eda 	.word	0x08008eda
 8000d84:	08008eff 	.word	0x08008eff
 8000d88:	08008f27 	.word	0x08008f27
 8000d8c:	08008f34 	.word	0x08008f34
 8000d90:	08008f5a 	.word	0x08008f5a
 8000d94:	08008db5 	.word	0x08008db5

08000d98 <tuh_max3421_int_api>:
 8000d98:	b508      	push	{r3, lr}
 8000d9a:	b149      	cbz	r1, 8000db0 <tuh_max3421_int_api+0x18>
 8000d9c:	2200      	movs	r2, #0
 8000d9e:	2028      	movs	r0, #40	@ 0x28
 8000da0:	4611      	mov	r1, r2
 8000da2:	f000 fd05 	bl	80017b0 <HAL_NVIC_SetPriority>
 8000da6:	2028      	movs	r0, #40	@ 0x28
 8000da8:	e8bd 4008 	ldmia.w	sp!, {r3, lr}
 8000dac:	f000 bd32 	b.w	8001814 <HAL_NVIC_EnableIRQ>
 8000db0:	2028      	movs	r0, #40	@ 0x28
 8000db2:	e8bd 4008 	ldmia.w	sp!, {r3, lr}
 8000db6:	f000 bd3b 	b.w	8001830 <HAL_NVIC_DisableIRQ>
	...

08000dbc <tuh_max3421_spi_cs_api>:
 8000dbc:	f081 0201 	eor.w	r2, r1, #1
 8000dc0:	4802      	ldr	r0, [pc, #8]	@ (8000dcc <tuh_max3421_spi_cs_api+0x10>)
 8000dc2:	f44f 5180 	mov.w	r1, #4096	@ 0x1000
 8000dc6:	f000 bf1d 	b.w	8001c04 <HAL_GPIO_WritePin>
 8000dca:	bf00      	nop
 8000dcc:	58020400 	.word	0x58020400

08000dd0 <HAL_SPI_TransmitReceive_fast>:
 8000dd0:	b5f0      	push	{r4, r5, r6, r7, lr}
 8000dd2:	4e1f      	ldr	r6, [pc, #124]	@ (8000e50 <HAL_SPI_TransmitReceive_fast+0x80>)
 8000dd4:	f04f 0cff 	mov.w	ip, #255	@ 0xff
 8000dd8:	4f1e      	ldr	r7, [pc, #120]	@ (8000e54 <HAL_SPI_TransmitReceive_fast+0x84>)
 8000dda:	6833      	ldr	r3, [r6, #0]
 8000ddc:	685c      	ldr	r4, [r3, #4]
 8000dde:	f36f 040f 	bfc	r4, #0, #16
 8000de2:	4314      	orrs	r4, r2
 8000de4:	605c      	str	r4, [r3, #4]
 8000de6:	681c      	ldr	r4, [r3, #0]
 8000de8:	f044 0401 	orr.w	r4, r4, #1
 8000dec:	601c      	str	r4, [r3, #0]
 8000dee:	681c      	ldr	r4, [r3, #0]
 8000df0:	f444 7400 	orr.w	r4, r4, #512	@ 0x200
 8000df4:	601c      	str	r4, [r3, #0]
 8000df6:	4614      	mov	r4, r2
 8000df8:	b962      	cbnz	r2, 8000e14 <HAL_SPI_TransmitReceive_fast+0x44>
 8000dfa:	b9bc      	cbnz	r4, 8000e2c <HAL_SPI_TransmitReceive_fast+0x5c>
 8000dfc:	6833      	ldr	r3, [r6, #0]
 8000dfe:	699a      	ldr	r2, [r3, #24]
 8000e00:	f042 0210 	orr.w	r2, r2, #16
 8000e04:	619a      	str	r2, [r3, #24]
 8000e06:	681a      	ldr	r2, [r3, #0]
 8000e08:	f022 0201 	bic.w	r2, r2, #1
 8000e0c:	601a      	str	r2, [r3, #0]
 8000e0e:	4b11      	ldr	r3, [pc, #68]	@ (8000e54 <HAL_SPI_TransmitReceive_fast+0x84>)
 8000e10:	781b      	ldrb	r3, [r3, #0]
 8000e12:	bdf0      	pop	{r4, r5, r6, r7, pc}
 8000e14:	695d      	ldr	r5, [r3, #20]
 8000e16:	07ad      	lsls	r5, r5, #30
 8000e18:	d506      	bpl.n	8000e28 <HAL_SPI_TransmitReceive_fast+0x58>
 8000e1a:	b190      	cbz	r0, 8000e42 <HAL_SPI_TransmitReceive_fast+0x72>
 8000e1c:	f810 5b01 	ldrb.w	r5, [r0], #1
 8000e20:	f883 5020 	strb.w	r5, [r3, #32]
 8000e24:	3a01      	subs	r2, #1
 8000e26:	b292      	uxth	r2, r2
 8000e28:	2c00      	cmp	r4, #0
 8000e2a:	d0e5      	beq.n	8000df8 <HAL_SPI_TransmitReceive_fast+0x28>
 8000e2c:	695d      	ldr	r5, [r3, #20]
 8000e2e:	07ed      	lsls	r5, r5, #31
 8000e30:	d5e2      	bpl.n	8000df8 <HAL_SPI_TransmitReceive_fast+0x28>
 8000e32:	f893 5030 	ldrb.w	r5, [r3, #48]	@ 0x30
 8000e36:	b139      	cbz	r1, 8000e48 <HAL_SPI_TransmitReceive_fast+0x78>
 8000e38:	f801 5b01 	strb.w	r5, [r1], #1
 8000e3c:	3c01      	subs	r4, #1
 8000e3e:	b2a4      	uxth	r4, r4
 8000e40:	e7da      	b.n	8000df8 <HAL_SPI_TransmitReceive_fast+0x28>
 8000e42:	f883 c020 	strb.w	ip, [r3, #32]
 8000e46:	e7ed      	b.n	8000e24 <HAL_SPI_TransmitReceive_fast+0x54>
 8000e48:	b2ed      	uxtb	r5, r5
 8000e4a:	703d      	strb	r5, [r7, #0]
 8000e4c:	e7f6      	b.n	8000e3c <HAL_SPI_TransmitReceive_fast+0x6c>
 8000e4e:	bf00      	nop
 8000e50:	240015b4 	.word	0x240015b4
 8000e54:	2400005c 	.word	0x2400005c

08000e58 <tuh_max3421_spi_xfer_api>:
 8000e58:	4608      	mov	r0, r1
 8000e5a:	4611      	mov	r1, r2
 8000e5c:	b29a      	uxth	r2, r3
 8000e5e:	b508      	push	{r3, lr}
 8000e60:	f7ff ffb6 	bl	8000dd0 <HAL_SPI_TransmitReceive_fast>
 8000e64:	2001      	movs	r0, #1
 8000e66:	bd08      	pop	{r3, pc}

08000e68 <tusb_time_millis_api>:
 8000e68:	f000 bc6e 	b.w	8001748 <HAL_GetTick>

08000e6c <tuh_msc_mount_cb>:
 8000e6c:	b507      	push	{r0, r1, r2, lr}
 8000e6e:	2100      	movs	r1, #0
 8000e70:	4b03      	ldr	r3, [pc, #12]	@ (8000e80 <tuh_msc_mount_cb+0x14>)
 8000e72:	4a04      	ldr	r2, [pc, #16]	@ (8000e84 <tuh_msc_mount_cb+0x18>)
 8000e74:	9100      	str	r1, [sp, #0]
 8000e76:	f005 fe47 	bl	8006b08 <tuh_msc_inquiry>
 8000e7a:	b003      	add	sp, #12
 8000e7c:	bd00      	pop	{pc}
 8000e7e:	bf00      	nop
 8000e80:	08000b99 	.word	0x08000b99
 8000e84:	2400163c 	.word	0x2400163c

08000e88 <disk_status>:
 8000e88:	3001      	adds	r0, #1
 8000e8a:	b508      	push	{r3, lr}
 8000e8c:	b2c0      	uxtb	r0, r0
 8000e8e:	f005 fdb3 	bl	80069f8 <tuh_msc_mounted>
 8000e92:	f080 0001 	eor.w	r0, r0, #1
 8000e96:	0040      	lsls	r0, r0, #1
 8000e98:	f000 00fe 	and.w	r0, r0, #254	@ 0xfe
 8000e9c:	bd08      	pop	{r3, pc}

08000e9e <disk_initialize>:
 8000e9e:	2000      	movs	r0, #0
 8000ea0:	4770      	bx	lr
	...

08000ea4 <disk_read>:
 8000ea4:	b57f      	push	{r0, r1, r2, r3, r4, r5, r6, lr}
 8000ea6:	2401      	movs	r4, #1
 8000ea8:	4613      	mov	r3, r2
 8000eaa:	4d0f      	ldr	r5, [pc, #60]	@ (8000ee8 <disk_read+0x44>)
 8000eac:	460e      	mov	r6, r1
 8000eae:	4a0f      	ldr	r2, [pc, #60]	@ (8000eec <disk_read+0x48>)
 8000eb0:	4420      	add	r0, r4
 8000eb2:	702c      	strb	r4, [r5, #0]
 8000eb4:	2100      	movs	r1, #0
 8000eb6:	9201      	str	r2, [sp, #4]
 8000eb8:	b2c0      	uxtb	r0, r0
 8000eba:	f8bd 2020 	ldrh.w	r2, [sp, #32]
 8000ebe:	9102      	str	r1, [sp, #8]
 8000ec0:	9200      	str	r2, [sp, #0]
 8000ec2:	4632      	mov	r2, r6
 8000ec4:	f005 ff12 	bl	8006cec <tuh_msc_read10>
 8000ec8:	b940      	cbnz	r0, 8000edc <disk_read+0x38>
 8000eca:	7028      	strb	r0, [r5, #0]
 8000ecc:	4620      	mov	r0, r4
 8000ece:	b004      	add	sp, #16
 8000ed0:	bd70      	pop	{r4, r5, r6, pc}
 8000ed2:	2100      	movs	r1, #0
 8000ed4:	f04f 30ff 	mov.w	r0, #4294967295
 8000ed8:	f006 fe38 	bl	8007b4c <tuh_task_ext>
 8000edc:	782b      	ldrb	r3, [r5, #0]
 8000ede:	f003 00ff 	and.w	r0, r3, #255	@ 0xff
 8000ee2:	2b00      	cmp	r3, #0
 8000ee4:	d1f5      	bne.n	8000ed2 <disk_read+0x2e>
 8000ee6:	e7f2      	b.n	8000ece <disk_read+0x2a>
 8000ee8:	2400005d 	.word	0x2400005d
 8000eec:	08000639 	.word	0x08000639

08000ef0 <disk_write>:
 8000ef0:	b530      	push	{r4, r5, lr}
 8000ef2:	4613      	mov	r3, r2
 8000ef4:	4c0e      	ldr	r4, [pc, #56]	@ (8000f30 <disk_write+0x40>)
 8000ef6:	2201      	movs	r2, #1
 8000ef8:	b085      	sub	sp, #20
 8000efa:	460d      	mov	r5, r1
 8000efc:	2100      	movs	r1, #0
 8000efe:	7022      	strb	r2, [r4, #0]
 8000f00:	4410      	add	r0, r2
 8000f02:	4a0c      	ldr	r2, [pc, #48]	@ (8000f34 <disk_write+0x44>)
 8000f04:	b2c0      	uxtb	r0, r0
 8000f06:	9102      	str	r1, [sp, #8]
 8000f08:	9201      	str	r2, [sp, #4]
 8000f0a:	f8bd 2020 	ldrh.w	r2, [sp, #32]
 8000f0e:	9200      	str	r2, [sp, #0]
 8000f10:	462a      	mov	r2, r5
 8000f12:	f005 ff41 	bl	8006d98 <tuh_msc_write10>
 8000f16:	7823      	ldrb	r3, [r4, #0]
 8000f18:	f003 00ff 	and.w	r0, r3, #255	@ 0xff
 8000f1c:	b90b      	cbnz	r3, 8000f22 <disk_write+0x32>
 8000f1e:	b005      	add	sp, #20
 8000f20:	bd30      	pop	{r4, r5, pc}
 8000f22:	2100      	movs	r1, #0
 8000f24:	f04f 30ff 	mov.w	r0, #4294967295
 8000f28:	f006 fe10 	bl	8007b4c <tuh_task_ext>
 8000f2c:	e7f3      	b.n	8000f16 <disk_write+0x26>
 8000f2e:	bf00      	nop
 8000f30:	2400005d 	.word	0x2400005d
 8000f34:	08000639 	.word	0x08000639

08000f38 <disk_ioctl>:
 8000f38:	3001      	adds	r0, #1
 8000f3a:	b510      	push	{r4, lr}
 8000f3c:	b2c0      	uxtb	r0, r0
 8000f3e:	4614      	mov	r4, r2
 8000f40:	2903      	cmp	r1, #3
 8000f42:	d812      	bhi.n	8000f6a <disk_ioctl+0x32>
 8000f44:	e8df f001 	tbb	[pc, r1]
 8000f48:	0e090207 	.word	0x0e090207
 8000f4c:	2100      	movs	r1, #0
 8000f4e:	f005 fd3b 	bl	80069c8 <tuh_msc_get_block_count>
 8000f52:	b280      	uxth	r0, r0
 8000f54:	6020      	str	r0, [r4, #0]
 8000f56:	2000      	movs	r0, #0
 8000f58:	bd10      	pop	{r4, pc}
 8000f5a:	2100      	movs	r1, #0
 8000f5c:	f005 fd40 	bl	80069e0 <tuh_msc_get_block_size>
 8000f60:	8020      	strh	r0, [r4, #0]
 8000f62:	e7f8      	b.n	8000f56 <disk_ioctl+0x1e>
 8000f64:	2301      	movs	r3, #1
 8000f66:	6013      	str	r3, [r2, #0]
 8000f68:	e7f5      	b.n	8000f56 <disk_ioctl+0x1e>
 8000f6a:	2004      	movs	r0, #4
 8000f6c:	e7f4      	b.n	8000f58 <disk_ioctl+0x20>

08000f6e <MAX3421_wait_frames>:
 8000f6e:	2300      	movs	r3, #0
 8000f70:	2240      	movs	r2, #64	@ 0x40
 8000f72:	b570      	push	{r4, r5, r6, lr}
 8000f74:	4604      	mov	r4, r0
 8000f76:	460d      	mov	r5, r1
 8000f78:	4618      	mov	r0, r3
 8000f7a:	21c8      	movs	r1, #200	@ 0xc8
 8000f7c:	f007 f8bc 	bl	80080f8 <tuh_max3421_reg_write>
 8000f80:	f000 fbe2 	bl	8001748 <HAL_GetTick>
 8000f84:	4606      	mov	r6, r0
 8000f86:	b124      	cbz	r4, 8000f92 <MAX3421_wait_frames+0x24>
 8000f88:	f000 fbde 	bl	8001748 <HAL_GetTick>
 8000f8c:	1b83      	subs	r3, r0, r6
 8000f8e:	42ab      	cmp	r3, r5
 8000f90:	d303      	bcc.n	8000f9a <MAX3421_wait_frames+0x2c>
 8000f92:	1e20      	subs	r0, r4, #0
 8000f94:	bf18      	it	ne
 8000f96:	2001      	movne	r0, #1
 8000f98:	bd70      	pop	{r4, r5, r6, pc}
 8000f9a:	2200      	movs	r2, #0
 8000f9c:	21c8      	movs	r1, #200	@ 0xc8
 8000f9e:	4610      	mov	r0, r2
 8000fa0:	f007 f884 	bl	80080ac <tuh_max3421_reg_read>
 8000fa4:	0643      	lsls	r3, r0, #25
 8000fa6:	d5ef      	bpl.n	8000f88 <MAX3421_wait_frames+0x1a>
 8000fa8:	2300      	movs	r3, #0
 8000faa:	2240      	movs	r2, #64	@ 0x40
 8000fac:	21c8      	movs	r1, #200	@ 0xc8
 8000fae:	3c01      	subs	r4, #1
 8000fb0:	4618      	mov	r0, r3
 8000fb2:	f007 f8a1 	bl	80080f8 <tuh_max3421_reg_write>
 8000fb6:	e7e6      	b.n	8000f86 <MAX3421_wait_frames+0x18>

08000fb8 <SystemClock_Config>:
 8000fb8:	b530      	push	{r4, r5, lr}
 8000fba:	b09d      	sub	sp, #116	@ 0x74
 8000fbc:	224c      	movs	r2, #76	@ 0x4c
 8000fbe:	2100      	movs	r1, #0
 8000fc0:	a809      	add	r0, sp, #36	@ 0x24
 8000fc2:	f007 fdfe 	bl	8008bc2 <memset>
 8000fc6:	2220      	movs	r2, #32
 8000fc8:	2100      	movs	r1, #0
 8000fca:	a801      	add	r0, sp, #4
 8000fcc:	f007 fdf9 	bl	8008bc2 <memset>
 8000fd0:	2002      	movs	r0, #2
 8000fd2:	f000 fe3b 	bl	8001c4c <HAL_PWREx_ConfigSupply>
 8000fd6:	2300      	movs	r3, #0
 8000fd8:	9300      	str	r3, [sp, #0]
 8000fda:	4b20      	ldr	r3, [pc, #128]	@ (800105c <SystemClock_Config+0xa4>)
 8000fdc:	699a      	ldr	r2, [r3, #24]
 8000fde:	f422 4240 	bic.w	r2, r2, #49152	@ 0xc000
 8000fe2:	619a      	str	r2, [r3, #24]
 8000fe4:	699a      	ldr	r2, [r3, #24]
 8000fe6:	f402 4240 	and.w	r2, r2, #49152	@ 0xc000
 8000fea:	9200      	str	r2, [sp, #0]
 8000fec:	9a00      	ldr	r2, [sp, #0]
 8000fee:	699a      	ldr	r2, [r3, #24]
 8000ff0:	0491      	lsls	r1, r2, #18
 8000ff2:	d5fc      	bpl.n	8000fee <SystemClock_Config+0x36>
 8000ff4:	2201      	movs	r2, #1
 8000ff6:	f44f 3380 	mov.w	r3, #65536	@ 0x10000
 8000ffa:	2503      	movs	r5, #3
 8000ffc:	2440      	movs	r4, #64	@ 0x40
 8000ffe:	212c      	movs	r1, #44	@ 0x2c
 8001000:	a809      	add	r0, sp, #36	@ 0x24
 8001002:	e9cd 5309 	strd	r5, r3, [sp, #36]	@ 0x24
 8001006:	e9cd 240c 	strd	r2, r4, [sp, #48]	@ 0x30
 800100a:	2302      	movs	r3, #2
 800100c:	e9cd 1215 	strd	r1, r2, [sp, #84]	@ 0x54
 8001010:	220b      	movs	r2, #11
 8001012:	9314      	str	r3, [sp, #80]	@ 0x50
 8001014:	e9cd 2317 	strd	r2, r3, [sp, #92]	@ 0x5c
 8001018:	e9cd 3312 	strd	r3, r3, [sp, #72]	@ 0x48
 800101c:	220c      	movs	r2, #12
 800101e:	2300      	movs	r3, #0
 8001020:	e9cd 2319 	strd	r2, r3, [sp, #100]	@ 0x64
 8001024:	931b      	str	r3, [sp, #108]	@ 0x6c
 8001026:	f000 ff09 	bl	8001e3c <HAL_RCC_OscConfig>
 800102a:	b108      	cbz	r0, 8001030 <SystemClock_Config+0x78>
 800102c:	b672      	cpsid	i
 800102e:	e7fe      	b.n	800102e <SystemClock_Config+0x76>
 8001030:	233f      	movs	r3, #63	@ 0x3f
 8001032:	9003      	str	r0, [sp, #12]
 8001034:	4629      	mov	r1, r5
 8001036:	a801      	add	r0, sp, #4
 8001038:	9406      	str	r4, [sp, #24]
 800103a:	e9cd 3501 	strd	r3, r5, [sp, #4]
 800103e:	2308      	movs	r3, #8
 8001040:	e9cd 3404 	strd	r3, r4, [sp, #16]
 8001044:	f44f 6380 	mov.w	r3, #1024	@ 0x400
 8001048:	e9cd 3407 	strd	r3, r4, [sp, #28]
 800104c:	f001 fa0e 	bl	800246c <HAL_RCC_ClockConfig>
 8001050:	b108      	cbz	r0, 8001056 <SystemClock_Config+0x9e>
 8001052:	b672      	cpsid	i
 8001054:	e7fe      	b.n	8001054 <SystemClock_Config+0x9c>
 8001056:	b01d      	add	sp, #116	@ 0x74
 8001058:	bd30      	pop	{r4, r5, pc}
 800105a:	bf00      	nop
 800105c:	58024800 	.word	0x58024800

08001060 <PeriphCommonClock_Config>:
 8001060:	b500      	push	{lr}
 8001062:	b0af      	sub	sp, #188	@ 0xbc
 8001064:	22b0      	movs	r2, #176	@ 0xb0
 8001066:	2100      	movs	r1, #0
 8001068:	a802      	add	r0, sp, #8
 800106a:	f007 fdaa 	bl	8008bc2 <memset>
 800106e:	f04f 4200 	mov.w	r2, #2147483648	@ 0x80000000
 8001072:	2300      	movs	r3, #0
 8001074:	4668      	mov	r0, sp
 8001076:	e9cd 2300 	strd	r2, r3, [sp]
 800107a:	f001 fc79 	bl	8002970 <HAL_RCCEx_PeriphCLKConfig>
 800107e:	b108      	cbz	r0, 8001084 <PeriphCommonClock_Config+0x24>
 8001080:	b672      	cpsid	i
 8001082:	e7fe      	b.n	8001082 <PeriphCommonClock_Config+0x22>
 8001084:	b02f      	add	sp, #188	@ 0xbc
 8001086:	bd00      	pop	{pc}

08001088 <main>:
 8001088:	b530      	push	{r4, r5, lr}
 800108a:	b087      	sub	sp, #28
 800108c:	2210      	movs	r2, #16
 800108e:	2100      	movs	r1, #0
 8001090:	2400      	movs	r4, #0
 8001092:	a802      	add	r0, sp, #8
 8001094:	f007 fd95 	bl	8008bc2 <memset>
 8001098:	f000 fbdc 	bl	8001854 <HAL_MPU_Disable>
 800109c:	2301      	movs	r3, #1
 800109e:	a802      	add	r0, sp, #8
 80010a0:	f8ad 3008 	strh.w	r3, [sp, #8]
 80010a4:	f248 731f 	movw	r3, #34591	@ 0x871f
 80010a8:	e9cd 4303 	strd	r4, r3, [sp, #12]
 80010ac:	f240 1301 	movw	r3, #257	@ 0x101
 80010b0:	9305      	str	r3, [sp, #20]
 80010b2:	f000 fbed 	bl	8001890 <HAL_MPU_ConfigRegion>
 80010b6:	2004      	movs	r0, #4
 80010b8:	f000 fbda 	bl	8001870 <HAL_MPU_Enable>
 80010bc:	f000 fb0a 	bl	80016d4 <HAL_Init>
 80010c0:	f7ff ff7a 	bl	8000fb8 <SystemClock_Config>
 80010c4:	f7ff ffcc 	bl	8001060 <PeriphCommonClock_Config>
 80010c8:	f7ff fabe 	bl	8000648 <MX_GPIO_Init>
 80010cc:	4a6d      	ldr	r2, [pc, #436]	@ (8001284 <main+0x1fc>)
 80010ce:	4b6e      	ldr	r3, [pc, #440]	@ (8001288 <main+0x200>)
 80010d0:	f04f 6180 	mov.w	r1, #67108864	@ 0x4000000
 80010d4:	200f      	movs	r0, #15
 80010d6:	6154      	str	r4, [r2, #20]
 80010d8:	6013      	str	r3, [r2, #0]
 80010da:	f44f 0380 	mov.w	r3, #4194304	@ 0x400000
 80010de:	6454      	str	r4, [r2, #68]	@ 0x44
 80010e0:	6594      	str	r4, [r2, #88]	@ 0x58
 80010e2:	e9c2 3401 	strd	r3, r4, [r2, #4]
 80010e6:	2307      	movs	r3, #7
 80010e8:	e9c2 3403 	strd	r3, r4, [r2, #12]
 80010ec:	f04f 5380 	mov.w	r3, #268435456	@ 0x10000000
 80010f0:	e9c2 1306 	strd	r1, r3, [r2, #24]
 80010f4:	23f0      	movs	r3, #240	@ 0xf0
 80010f6:	e9c2 0312 	strd	r0, r3, [r2, #72]	@ 0x48
 80010fa:	4610      	mov	r0, r2
 80010fc:	e9c2 4408 	strd	r4, r4, [r2, #32]
 8001100:	e9c2 440a 	strd	r4, r4, [r2, #40]	@ 0x28
 8001104:	e9c2 440d 	strd	r4, r4, [r2, #52]	@ 0x34
 8001108:	e9c2 440f 	strd	r4, r4, [r2, #60]	@ 0x3c
 800110c:	e9c2 4414 	strd	r4, r4, [r2, #80]	@ 0x50
 8001110:	f002 fa3e 	bl	8003590 <HAL_SPI_Init>
 8001114:	4604      	mov	r4, r0
 8001116:	b108      	cbz	r0, 800111c <main+0x94>
 8001118:	b672      	cpsid	i
 800111a:	e7fe      	b.n	800111a <main+0x92>
 800111c:	f7ff fb10 	bl	8000740 <MX_USART1_UART_Init>
 8001120:	4d5a      	ldr	r5, [pc, #360]	@ (800128c <main+0x204>)
 8001122:	f000 fd8b 	bl	8001c3c <HAL_PWR_EnableBkUpAccess>
 8001126:	4b5a      	ldr	r3, [pc, #360]	@ (8001290 <main+0x208>)
 8001128:	2190      	movs	r1, #144	@ 0x90
 800112a:	4620      	mov	r0, r4
 800112c:	f8d3 20f4 	ldr.w	r2, [r3, #244]	@ 0xf4
 8001130:	f442 3280 	orr.w	r2, r2, #65536	@ 0x10000
 8001134:	f8c3 20f4 	str.w	r2, [r3, #244]	@ 0xf4
 8001138:	4622      	mov	r2, r4
 800113a:	f8d3 30f4 	ldr.w	r3, [r3, #244]	@ 0xf4
 800113e:	f403 3380 	and.w	r3, r3, #65536	@ 0x10000
 8001142:	9302      	str	r3, [sp, #8]
 8001144:	9b02      	ldr	r3, [sp, #8]
 8001146:	f006 ffb1 	bl	80080ac <tuh_max3421_reg_read>
 800114a:	4b52      	ldr	r3, [pc, #328]	@ (8001294 <main+0x20c>)
 800114c:	a901      	add	r1, sp, #4
 800114e:	4620      	mov	r0, r4
 8001150:	881b      	ldrh	r3, [r3, #0]
 8001152:	f8ad 3004 	strh.w	r3, [sp, #4]
 8001156:	f007 fc55 	bl	8008a04 <tusb_rhport_init>
 800115a:	4b4f      	ldr	r3, [pc, #316]	@ (8001298 <main+0x210>)
 800115c:	f8d3 20cc 	ldr.w	r2, [r3, #204]	@ 0xcc
 8001160:	6812      	ldr	r2, [r2, #0]
 8001162:	42aa      	cmp	r2, r5
 8001164:	d125      	bne.n	80011b2 <main+0x12a>
 8001166:	f8d3 20cc 	ldr.w	r2, [r3, #204]	@ 0xcc
 800116a:	6014      	str	r4, [r2, #0]
 800116c:	f8d3 30cc 	ldr.w	r3, [r3, #204]	@ 0xcc
 8001170:	601c      	str	r4, [r3, #0]
 8001172:	f7ff fa69 	bl	8000648 <MX_GPIO_Init>
 8001176:	f7ff fae3 	bl	8000740 <MX_USART1_UART_Init>
 800117a:	4848      	ldr	r0, [pc, #288]	@ (800129c <main+0x214>)
 800117c:	f7ff fb28 	bl	80007d0 <uart_printf>
 8001180:	2019      	movs	r0, #25
 8001182:	f000 fae7 	bl	8001754 <HAL_Delay>
 8001186:	2028      	movs	r0, #40	@ 0x28
 8001188:	f000 fb52 	bl	8001830 <HAL_NVIC_DisableIRQ>
 800118c:	f000 fd82 	bl	8001c94 <HAL_RCC_DeInit>
 8001190:	f000 fa58 	bl	8001644 <HAL_DeInit>
 8001194:	4b42      	ldr	r3, [pc, #264]	@ (80012a0 <main+0x218>)
 8001196:	4a43      	ldr	r2, [pc, #268]	@ (80012a4 <main+0x21c>)
 8001198:	609a      	str	r2, [r3, #8]
 800119a:	f3bf 8f4f 	dsb	sy
 800119e:	f3bf 8f6f 	isb	sy
 80011a2:	4b41      	ldr	r3, [pc, #260]	@ (80012a8 <main+0x220>)
 80011a4:	f8d3 2800 	ldr.w	r2, [r3, #2048]	@ 0x800
 80011a8:	f8d3 3804 	ldr.w	r3, [r3, #2052]	@ 0x804
 80011ac:	f382 8808 	msr	MSP, r2
 80011b0:	4718      	bx	r3
 80011b2:	4c39      	ldr	r4, [pc, #228]	@ (8001298 <main+0x210>)
 80011b4:	f640 11c4 	movw	r1, #2500	@ 0x9c4
 80011b8:	20fa      	movs	r0, #250	@ 0xfa
 80011ba:	f8d4 30cc 	ldr.w	r3, [r4, #204]	@ 0xcc
 80011be:	601d      	str	r5, [r3, #0]
 80011c0:	f8d4 30cc 	ldr.w	r3, [r4, #204]	@ 0xcc
 80011c4:	601d      	str	r5, [r3, #0]
 80011c6:	f7ff fed2 	bl	8000f6e <MAX3421_wait_frames>
 80011ca:	f8d4 20cc 	ldr.w	r2, [r4, #204]	@ 0xcc
 80011ce:	2300      	movs	r3, #0
 80011d0:	4605      	mov	r5, r0
 80011d2:	4836      	ldr	r0, [pc, #216]	@ (80012ac <main+0x224>)
 80011d4:	6013      	str	r3, [r2, #0]
 80011d6:	f8d4 20cc 	ldr.w	r2, [r4, #204]	@ 0xcc
 80011da:	f640 0498 	movw	r4, #2200	@ 0x898
 80011de:	6013      	str	r3, [r2, #0]
 80011e0:	f7ff faf6 	bl	80007d0 <uart_printf>
 80011e4:	2100      	movs	r1, #0
 80011e6:	f04f 30ff 	mov.w	r0, #4294967295
 80011ea:	f006 fcaf 	bl	8007b4c <tuh_task_ext>
 80011ee:	b91d      	cbnz	r5, 80011f8 <main+0x170>
 80011f0:	f000 faaa 	bl	8001748 <HAL_GetTick>
 80011f4:	42a0      	cmp	r0, r4
 80011f6:	d9f5      	bls.n	80011e4 <main+0x15c>
 80011f8:	f000 faa6 	bl	8001748 <HAL_GetTick>
 80011fc:	4601      	mov	r1, r0
 80011fe:	482c      	ldr	r0, [pc, #176]	@ (80012b0 <main+0x228>)
 8001200:	2400      	movs	r4, #0
 8001202:	f7ff fae5 	bl	80007d0 <uart_printf>
 8001206:	4b24      	ldr	r3, [pc, #144]	@ (8001298 <main+0x210>)
 8001208:	4d2a      	ldr	r5, [pc, #168]	@ (80012b4 <main+0x22c>)
 800120a:	4620      	mov	r0, r4
 800120c:	f8d3 20cc 	ldr.w	r2, [r3, #204]	@ 0xcc
 8001210:	4929      	ldr	r1, [pc, #164]	@ (80012b8 <main+0x230>)
 8001212:	6014      	str	r4, [r2, #0]
 8001214:	4622      	mov	r2, r4
 8001216:	f8d3 30cc 	ldr.w	r3, [r3, #204]	@ 0xcc
 800121a:	601c      	str	r4, [r3, #0]
 800121c:	f004 fdb6 	bl	8005d8c <f_mount>
 8001220:	682b      	ldr	r3, [r5, #0]
 8001222:	3301      	adds	r3, #1
 8001224:	d021      	beq.n	800126a <main+0x1e2>
 8001226:	4629      	mov	r1, r5
 8001228:	4824      	ldr	r0, [pc, #144]	@ (80012bc <main+0x234>)
 800122a:	f7ff fad1 	bl	80007d0 <uart_printf>
 800122e:	2019      	movs	r0, #25
 8001230:	f000 fa90 	bl	8001754 <HAL_Delay>
 8001234:	2028      	movs	r0, #40	@ 0x28
 8001236:	f000 fafb 	bl	8001830 <HAL_NVIC_DisableIRQ>
 800123a:	f04f 23e0 	mov.w	r3, #3758153728	@ 0xe000e000
 800123e:	619c      	str	r4, [r3, #24]
 8001240:	615c      	str	r4, [r3, #20]
 8001242:	611c      	str	r4, [r3, #16]
 8001244:	4c16      	ldr	r4, [pc, #88]	@ (80012a0 <main+0x218>)
 8001246:	6863      	ldr	r3, [r4, #4]
 8001248:	f043 7300 	orr.w	r3, r3, #33554432	@ 0x2000000
 800124c:	6063      	str	r3, [r4, #4]
 800124e:	f000 fd21 	bl	8001c94 <HAL_RCC_DeInit>
 8001252:	f000 f9f7 	bl	8001644 <HAL_DeInit>
 8001256:	60a5      	str	r5, [r4, #8]
 8001258:	f3bf 8f4f 	dsb	sy
 800125c:	f3bf 8f6f 	isb	sy
 8001260:	686b      	ldr	r3, [r5, #4]
 8001262:	682a      	ldr	r2, [r5, #0]
 8001264:	f382 8808 	msr	MSP, r2
 8001268:	4798      	blx	r3
 800126a:	4815      	ldr	r0, [pc, #84]	@ (80012c0 <main+0x238>)
 800126c:	f7ff fab0 	bl	80007d0 <uart_printf>
 8001270:	f44f 5100 	mov.w	r1, #8192	@ 0x2000
 8001274:	4813      	ldr	r0, [pc, #76]	@ (80012c4 <main+0x23c>)
 8001276:	f000 fcca 	bl	8001c0e <HAL_GPIO_TogglePin>
 800127a:	f240 50dc 	movw	r0, #1500	@ 0x5dc
 800127e:	f000 fa69 	bl	8001754 <HAL_Delay>
 8001282:	e7f5      	b.n	8001270 <main+0x1e8>
 8001284:	240015b4 	.word	0x240015b4
 8001288:	40003800 	.word	0x40003800
 800128c:	ba5eba11 	.word	0xba5eba11
 8001290:	58024400 	.word	0x58024400
 8001294:	08008c68 	.word	0x08008c68
 8001298:	58004000 	.word	0x58004000
 800129c:	08008fb8 	.word	0x08008fb8
 80012a0:	e000ed00 	.word	0xe000ed00
 80012a4:	1ff09800 	.word	0x1ff09800
 80012a8:	1ff09000 	.word	0x1ff09000
 80012ac:	08008fce 	.word	0x08008fce
 80012b0:	08008fef 	.word	0x08008fef
 80012b4:	08020000 	.word	0x08020000
 80012b8:	08008fb7 	.word	0x08008fb7
 80012bc:	08008f70 	.word	0x08008f70
 80012c0:	08008f95 	.word	0x08008f95
 80012c4:	58020000 	.word	0x58020000

080012c8 <HAL_TIM_PeriodElapsedCallback>:
 80012c8:	6802      	ldr	r2, [r0, #0]
 80012ca:	4b03      	ldr	r3, [pc, #12]	@ (80012d8 <HAL_TIM_PeriodElapsedCallback+0x10>)
 80012cc:	429a      	cmp	r2, r3
 80012ce:	d101      	bne.n	80012d4 <HAL_TIM_PeriodElapsedCallback+0xc>
 80012d0:	f000 ba2e 	b.w	8001730 <HAL_IncTick>
 80012d4:	4770      	bx	lr
 80012d6:	bf00      	nop
 80012d8:	40001000 	.word	0x40001000

080012dc <Error_Handler>:
 80012dc:	b672      	cpsid	i
 80012de:	e7fe      	b.n	80012de <Error_Handler+0x2>

080012e0 <HAL_MspInit>:
 80012e0:	4b07      	ldr	r3, [pc, #28]	@ (8001300 <HAL_MspInit+0x20>)
 80012e2:	b082      	sub	sp, #8
 80012e4:	f8d3 20f4 	ldr.w	r2, [r3, #244]	@ 0xf4
 80012e8:	f042 0202 	orr.w	r2, r2, #2
 80012ec:	f8c3 20f4 	str.w	r2, [r3, #244]	@ 0xf4
 80012f0:	f8d3 30f4 	ldr.w	r3, [r3, #244]	@ 0xf4
 80012f4:	f003 0302 	and.w	r3, r3, #2
 80012f8:	9301      	str	r3, [sp, #4]
 80012fa:	9b01      	ldr	r3, [sp, #4]
 80012fc:	b002      	add	sp, #8
 80012fe:	4770      	bx	lr
 8001300:	58024400 	.word	0x58024400

08001304 <HAL_SPI_MspInit>:
 8001304:	b510      	push	{r4, lr}
 8001306:	b0b6      	sub	sp, #216	@ 0xd8
 8001308:	4604      	mov	r4, r0
 800130a:	2214      	movs	r2, #20
 800130c:	2100      	movs	r1, #0
 800130e:	a803      	add	r0, sp, #12
 8001310:	f007 fc57 	bl	8008bc2 <memset>
 8001314:	22b8      	movs	r2, #184	@ 0xb8
 8001316:	2100      	movs	r1, #0
 8001318:	a808      	add	r0, sp, #32
 800131a:	f007 fc52 	bl	8008bc2 <memset>
 800131e:	6822      	ldr	r2, [r4, #0]
 8001320:	4b1c      	ldr	r3, [pc, #112]	@ (8001394 <HAL_SPI_MspInit+0x90>)
 8001322:	429a      	cmp	r2, r3
 8001324:	d134      	bne.n	8001390 <HAL_SPI_MspInit+0x8c>
 8001326:	2300      	movs	r3, #0
 8001328:	f44f 5280 	mov.w	r2, #4096	@ 0x1000
 800132c:	a808      	add	r0, sp, #32
 800132e:	e9cd 2308 	strd	r2, r3, [sp, #32]
 8001332:	f44f 4380 	mov.w	r3, #16384	@ 0x4000
 8001336:	931f      	str	r3, [sp, #124]	@ 0x7c
 8001338:	f001 fb1a 	bl	8002970 <HAL_RCCEx_PeriphCLKConfig>
 800133c:	b108      	cbz	r0, 8001342 <HAL_SPI_MspInit+0x3e>
 800133e:	f7ff ffcd 	bl	80012dc <Error_Handler>
 8001342:	4b15      	ldr	r3, [pc, #84]	@ (8001398 <HAL_SPI_MspInit+0x94>)
 8001344:	a903      	add	r1, sp, #12
 8001346:	4815      	ldr	r0, [pc, #84]	@ (800139c <HAL_SPI_MspInit+0x98>)
 8001348:	f8d3 20e8 	ldr.w	r2, [r3, #232]	@ 0xe8
 800134c:	f442 4280 	orr.w	r2, r2, #16384	@ 0x4000
 8001350:	f8c3 20e8 	str.w	r2, [r3, #232]	@ 0xe8
 8001354:	f8d3 20e8 	ldr.w	r2, [r3, #232]	@ 0xe8
 8001358:	f402 4280 	and.w	r2, r2, #16384	@ 0x4000
 800135c:	9201      	str	r2, [sp, #4]
 800135e:	9a01      	ldr	r2, [sp, #4]
 8001360:	f8d3 20e0 	ldr.w	r2, [r3, #224]	@ 0xe0
 8001364:	f042 0202 	orr.w	r2, r2, #2
 8001368:	f8c3 20e0 	str.w	r2, [r3, #224]	@ 0xe0
 800136c:	f44f 4260 	mov.w	r2, #57344	@ 0xe000
 8001370:	f8d3 30e0 	ldr.w	r3, [r3, #224]	@ 0xe0
 8001374:	f003 0302 	and.w	r3, r3, #2
 8001378:	9302      	str	r3, [sp, #8]
 800137a:	9b02      	ldr	r3, [sp, #8]
 800137c:	2302      	movs	r3, #2
 800137e:	e9cd 2303 	strd	r2, r3, [sp, #12]
 8001382:	2300      	movs	r3, #0
 8001384:	e9cd 3305 	strd	r3, r3, [sp, #20]
 8001388:	2305      	movs	r3, #5
 800138a:	9307      	str	r3, [sp, #28]
 800138c:	f000 fb4e 	bl	8001a2c <HAL_GPIO_Init>
 8001390:	b036      	add	sp, #216	@ 0xd8
 8001392:	bd10      	pop	{r4, pc}
 8001394:	40003800 	.word	0x40003800
 8001398:	58024400 	.word	0x58024400
 800139c:	58020400 	.word	0x58020400

080013a0 <HAL_UART_MspInit>:
 80013a0:	b510      	push	{r4, lr}
 80013a2:	b0b6      	sub	sp, #216	@ 0xd8
 80013a4:	4604      	mov	r4, r0
 80013a6:	2214      	movs	r2, #20
 80013a8:	2100      	movs	r1, #0
 80013aa:	a803      	add	r0, sp, #12
 80013ac:	f007 fc09 	bl	8008bc2 <memset>
 80013b0:	22b8      	movs	r2, #184	@ 0xb8
 80013b2:	2100      	movs	r1, #0
 80013b4:	a808      	add	r0, sp, #32
 80013b6:	f007 fc04 	bl	8008bc2 <memset>
 80013ba:	6822      	ldr	r2, [r4, #0]
 80013bc:	4b1a      	ldr	r3, [pc, #104]	@ (8001428 <HAL_UART_MspInit+0x88>)
 80013be:	429a      	cmp	r2, r3
 80013c0:	d130      	bne.n	8001424 <HAL_UART_MspInit+0x84>
 80013c2:	2201      	movs	r2, #1
 80013c4:	2300      	movs	r3, #0
 80013c6:	a808      	add	r0, sp, #32
 80013c8:	e9cd 2308 	strd	r2, r3, [sp, #32]
 80013cc:	f001 fad0 	bl	8002970 <HAL_RCCEx_PeriphCLKConfig>
 80013d0:	b108      	cbz	r0, 80013d6 <HAL_UART_MspInit+0x36>
 80013d2:	f7ff ff83 	bl	80012dc <Error_Handler>
 80013d6:	4b15      	ldr	r3, [pc, #84]	@ (800142c <HAL_UART_MspInit+0x8c>)
 80013d8:	a903      	add	r1, sp, #12
 80013da:	4815      	ldr	r0, [pc, #84]	@ (8001430 <HAL_UART_MspInit+0x90>)
 80013dc:	f8d3 20f0 	ldr.w	r2, [r3, #240]	@ 0xf0
 80013e0:	f042 0210 	orr.w	r2, r2, #16
 80013e4:	f8c3 20f0 	str.w	r2, [r3, #240]	@ 0xf0
 80013e8:	f8d3 20f0 	ldr.w	r2, [r3, #240]	@ 0xf0
 80013ec:	f002 0210 	and.w	r2, r2, #16
 80013f0:	9201      	str	r2, [sp, #4]
 80013f2:	9a01      	ldr	r2, [sp, #4]
 80013f4:	f8d3 20e0 	ldr.w	r2, [r3, #224]	@ 0xe0
 80013f8:	f042 0201 	orr.w	r2, r2, #1
 80013fc:	f8c3 20e0 	str.w	r2, [r3, #224]	@ 0xe0
 8001400:	f44f 62c0 	mov.w	r2, #1536	@ 0x600
 8001404:	f8d3 30e0 	ldr.w	r3, [r3, #224]	@ 0xe0
 8001408:	f003 0301 	and.w	r3, r3, #1
 800140c:	9302      	str	r3, [sp, #8]
 800140e:	9b02      	ldr	r3, [sp, #8]
 8001410:	2302      	movs	r3, #2
 8001412:	e9cd 2303 	strd	r2, r3, [sp, #12]
 8001416:	2300      	movs	r3, #0
 8001418:	e9cd 3305 	strd	r3, r3, [sp, #20]
 800141c:	2307      	movs	r3, #7
 800141e:	9307      	str	r3, [sp, #28]
 8001420:	f000 fb04 	bl	8001a2c <HAL_GPIO_Init>
 8001424:	b036      	add	sp, #216	@ 0xd8
 8001426:	bd10      	pop	{r4, pc}
 8001428:	40011000 	.word	0x40011000
 800142c:	58024400 	.word	0x58024400
 8001430:	58020000 	.word	0x58020000

08001434 <HAL_InitTick>:
 8001434:	280f      	cmp	r0, #15
 8001436:	b510      	push	{r4, lr}
 8001438:	4604      	mov	r4, r0
 800143a:	b08a      	sub	sp, #40	@ 0x28
 800143c:	d902      	bls.n	8001444 <HAL_InitTick+0x10>
 800143e:	2001      	movs	r0, #1
 8001440:	b00a      	add	sp, #40	@ 0x28
 8001442:	bd10      	pop	{r4, pc}
 8001444:	4601      	mov	r1, r0
 8001446:	2200      	movs	r2, #0
 8001448:	2036      	movs	r0, #54	@ 0x36
 800144a:	f000 f9b1 	bl	80017b0 <HAL_NVIC_SetPriority>
 800144e:	2036      	movs	r0, #54	@ 0x36
 8001450:	f000 f9e0 	bl	8001814 <HAL_NVIC_EnableIRQ>
 8001454:	4b18      	ldr	r3, [pc, #96]	@ (80014b8 <HAL_InitTick+0x84>)
 8001456:	4669      	mov	r1, sp
 8001458:	a802      	add	r0, sp, #8
 800145a:	601c      	str	r4, [r3, #0]
 800145c:	4b17      	ldr	r3, [pc, #92]	@ (80014bc <HAL_InitTick+0x88>)
 800145e:	f8d3 20e8 	ldr.w	r2, [r3, #232]	@ 0xe8
 8001462:	f042 0210 	orr.w	r2, r2, #16
 8001466:	f8c3 20e8 	str.w	r2, [r3, #232]	@ 0xe8
 800146a:	f8d3 30e8 	ldr.w	r3, [r3, #232]	@ 0xe8
 800146e:	f003 0310 	and.w	r3, r3, #16
 8001472:	9301      	str	r3, [sp, #4]
 8001474:	9b01      	ldr	r3, [sp, #4]
 8001476:	f001 f965 	bl	8002744 <HAL_RCC_GetClockConfig>
 800147a:	9b07      	ldr	r3, [sp, #28]
 800147c:	b9c3      	cbnz	r3, 80014b0 <HAL_InitTick+0x7c>
 800147e:	f001 f93d 	bl	80026fc <HAL_RCC_GetPCLK1Freq>
 8001482:	4a0f      	ldr	r2, [pc, #60]	@ (80014c0 <HAL_InitTick+0x8c>)
 8001484:	4b0f      	ldr	r3, [pc, #60]	@ (80014c4 <HAL_InitTick+0x90>)
 8001486:	6013      	str	r3, [r2, #0]
 8001488:	f240 33e7 	movw	r3, #999	@ 0x3e7
 800148c:	60d3      	str	r3, [r2, #12]
 800148e:	4b0e      	ldr	r3, [pc, #56]	@ (80014c8 <HAL_InitTick+0x94>)
 8001490:	fbb0 f0f3 	udiv	r0, r0, r3
 8001494:	3801      	subs	r0, #1
 8001496:	2300      	movs	r3, #0
 8001498:	6050      	str	r0, [r2, #4]
 800149a:	4610      	mov	r0, r2
 800149c:	6113      	str	r3, [r2, #16]
 800149e:	6093      	str	r3, [r2, #8]
 80014a0:	f002 fa62 	bl	8003968 <HAL_TIM_Base_Init>
 80014a4:	2800      	cmp	r0, #0
 80014a6:	d1ca      	bne.n	800143e <HAL_InitTick+0xa>
 80014a8:	4805      	ldr	r0, [pc, #20]	@ (80014c0 <HAL_InitTick+0x8c>)
 80014aa:	f002 f917 	bl	80036dc <HAL_TIM_Base_Start_IT>
 80014ae:	e7c7      	b.n	8001440 <HAL_InitTick+0xc>
 80014b0:	f001 f924 	bl	80026fc <HAL_RCC_GetPCLK1Freq>
 80014b4:	0040      	lsls	r0, r0, #1
 80014b6:	e7e4      	b.n	8001482 <HAL_InitTick+0x4e>
 80014b8:	2400000c 	.word	0x2400000c
 80014bc:	58024400 	.word	0x58024400
 80014c0:	24001660 	.word	0x24001660
 80014c4:	40001000 	.word	0x40001000
 80014c8:	000f4240 	.word	0x000f4240

080014cc <NMI_Handler>:
 80014cc:	e7fe      	b.n	80014cc <NMI_Handler>

080014ce <HardFault_Handler>:
 80014ce:	e7fe      	b.n	80014ce <HardFault_Handler>

080014d0 <MemManage_Handler>:
 80014d0:	e7fe      	b.n	80014d0 <MemManage_Handler>

080014d2 <BusFault_Handler>:
 80014d2:	e7fe      	b.n	80014d2 <BusFault_Handler>

080014d4 <UsageFault_Handler>:
 80014d4:	e7fe      	b.n	80014d4 <UsageFault_Handler>

080014d6 <SVC_Handler>:
 80014d6:	4770      	bx	lr

080014d8 <DebugMon_Handler>:
 80014d8:	4770      	bx	lr

080014da <PendSV_Handler>:
 80014da:	4770      	bx	lr

080014dc <SysTick_Handler>:
 80014dc:	4770      	bx	lr
	...

080014e0 <EXTI15_10_IRQHandler>:
 80014e0:	b508      	push	{r3, lr}
 80014e2:	f44f 5100 	mov.w	r1, #8192	@ 0x2000
 80014e6:	4806      	ldr	r0, [pc, #24]	@ (8001500 <EXTI15_10_IRQHandler+0x20>)
 80014e8:	f000 fb86 	bl	8001bf8 <HAL_GPIO_ReadPin>
 80014ec:	b910      	cbnz	r0, 80014f4 <EXTI15_10_IRQHandler+0x14>
 80014ee:	2101      	movs	r1, #1
 80014f0:	f007 f89a 	bl	8008628 <hcd_int_handler>
 80014f4:	f44f 5000 	mov.w	r0, #8192	@ 0x2000
 80014f8:	e8bd 4008 	ldmia.w	sp!, {r3, lr}
 80014fc:	f000 bb91 	b.w	8001c22 <HAL_GPIO_EXTI_IRQHandler>
 8001500:	58021000 	.word	0x58021000

08001504 <TIM6_DAC_IRQHandler>:
 8001504:	4801      	ldr	r0, [pc, #4]	@ (800150c <TIM6_DAC_IRQHandler+0x8>)
 8001506:	f002 b933 	b.w	8003770 <HAL_TIM_IRQHandler>
 800150a:	bf00      	nop
 800150c:	24001660 	.word	0x24001660

08001510 <SystemInit>:
 8001510:	4a28      	ldr	r2, [pc, #160]	@ (80015b4 <SystemInit+0xa4>)
 8001512:	f8d2 3088 	ldr.w	r3, [r2, #136]	@ 0x88
 8001516:	f443 0370 	orr.w	r3, r3, #15728640	@ 0xf00000
 800151a:	f8c2 3088 	str.w	r3, [r2, #136]	@ 0x88
 800151e:	4a26      	ldr	r2, [pc, #152]	@ (80015b8 <SystemInit+0xa8>)
 8001520:	6813      	ldr	r3, [r2, #0]
 8001522:	f003 030f 	and.w	r3, r3, #15
 8001526:	2b06      	cmp	r3, #6
 8001528:	d805      	bhi.n	8001536 <SystemInit+0x26>
 800152a:	6813      	ldr	r3, [r2, #0]
 800152c:	f023 030f 	bic.w	r3, r3, #15
 8001530:	f043 0307 	orr.w	r3, r3, #7
 8001534:	6013      	str	r3, [r2, #0]
 8001536:	4b21      	ldr	r3, [pc, #132]	@ (80015bc <SystemInit+0xac>)
 8001538:	681a      	ldr	r2, [r3, #0]
 800153a:	f042 0201 	orr.w	r2, r2, #1
 800153e:	601a      	str	r2, [r3, #0]
 8001540:	2200      	movs	r2, #0
 8001542:	611a      	str	r2, [r3, #16]
 8001544:	4a1e      	ldr	r2, [pc, #120]	@ (80015c0 <SystemInit+0xb0>)
 8001546:	6819      	ldr	r1, [r3, #0]
 8001548:	400a      	ands	r2, r1
 800154a:	491b      	ldr	r1, [pc, #108]	@ (80015b8 <SystemInit+0xa8>)
 800154c:	601a      	str	r2, [r3, #0]
 800154e:	680a      	ldr	r2, [r1, #0]
 8001550:	0710      	lsls	r0, r2, #28
 8001552:	d505      	bpl.n	8001560 <SystemInit+0x50>
 8001554:	680a      	ldr	r2, [r1, #0]
 8001556:	f022 020f 	bic.w	r2, r2, #15
 800155a:	f042 0207 	orr.w	r2, r2, #7
 800155e:	600a      	str	r2, [r1, #0]
 8001560:	2200      	movs	r2, #0
 8001562:	4918      	ldr	r1, [pc, #96]	@ (80015c4 <SystemInit+0xb4>)
 8001564:	619a      	str	r2, [r3, #24]
 8001566:	61da      	str	r2, [r3, #28]
 8001568:	621a      	str	r2, [r3, #32]
 800156a:	6299      	str	r1, [r3, #40]	@ 0x28
 800156c:	4916      	ldr	r1, [pc, #88]	@ (80015c8 <SystemInit+0xb8>)
 800156e:	62d9      	str	r1, [r3, #44]	@ 0x2c
 8001570:	4916      	ldr	r1, [pc, #88]	@ (80015cc <SystemInit+0xbc>)
 8001572:	6319      	str	r1, [r3, #48]	@ 0x30
 8001574:	635a      	str	r2, [r3, #52]	@ 0x34
 8001576:	6399      	str	r1, [r3, #56]	@ 0x38
 8001578:	63da      	str	r2, [r3, #60]	@ 0x3c
 800157a:	6419      	str	r1, [r3, #64]	@ 0x40
 800157c:	645a      	str	r2, [r3, #68]	@ 0x44
 800157e:	6819      	ldr	r1, [r3, #0]
 8001580:	f421 2180 	bic.w	r1, r1, #262144	@ 0x40000
 8001584:	6019      	str	r1, [r3, #0]
 8001586:	661a      	str	r2, [r3, #96]	@ 0x60
 8001588:	f8d3 20d4 	ldr.w	r2, [r3, #212]	@ 0xd4
 800158c:	04d2      	lsls	r2, r2, #19
 800158e:	d40f      	bmi.n	80015b0 <SystemInit+0xa0>
 8001590:	f8d3 20d4 	ldr.w	r2, [r3, #212]	@ 0xd4
 8001594:	f243 01d2 	movw	r1, #12498	@ 0x30d2
 8001598:	f442 5280 	orr.w	r2, r2, #4096	@ 0x1000
 800159c:	f8c3 20d4 	str.w	r2, [r3, #212]	@ 0xd4
 80015a0:	4a0b      	ldr	r2, [pc, #44]	@ (80015d0 <SystemInit+0xc0>)
 80015a2:	6011      	str	r1, [r2, #0]
 80015a4:	f8d3 20d4 	ldr.w	r2, [r3, #212]	@ 0xd4
 80015a8:	f422 5280 	bic.w	r2, r2, #4096	@ 0x1000
 80015ac:	f8c3 20d4 	str.w	r2, [r3, #212]	@ 0xd4
 80015b0:	4770      	bx	lr
 80015b2:	bf00      	nop
 80015b4:	e000ed00 	.word	0xe000ed00
 80015b8:	52002000 	.word	0x52002000
 80015bc:	58024400 	.word	0x58024400
 80015c0:	eaf6ed7f 	.word	0xeaf6ed7f
 80015c4:	02020200 	.word	0x02020200
 80015c8:	01ff0000 	.word	0x01ff0000
 80015cc:	01010280 	.word	0x01010280
 80015d0:	52004000 	.word	0x52004000

080015d4 <ExitRun0Mode>:
 80015d4:	4b04      	ldr	r3, [pc, #16]	@ (80015e8 <ExitRun0Mode+0x14>)
 80015d6:	68da      	ldr	r2, [r3, #12]
 80015d8:	f042 0202 	orr.w	r2, r2, #2
 80015dc:	60da      	str	r2, [r3, #12]
 80015de:	685a      	ldr	r2, [r3, #4]
 80015e0:	0492      	lsls	r2, r2, #18
 80015e2:	d5fc      	bpl.n	80015de <ExitRun0Mode+0xa>
 80015e4:	4770      	bx	lr
 80015e6:	bf00      	nop
 80015e8:	58024800 	.word	0x58024800

080015ec <Reset_Handler>:
 80015ec:	f8df d038 	ldr.w	sp, [pc, #56]	@ 8001628 <LoopFillZerobss+0xe>
 80015f0:	f7ff fff0 	bl	80015d4 <ExitRun0Mode>
 80015f4:	f7ff ff8c 	bl	8001510 <SystemInit>
 80015f8:	480c      	ldr	r0, [pc, #48]	@ (800162c <LoopFillZerobss+0x12>)
 80015fa:	490d      	ldr	r1, [pc, #52]	@ (8001630 <LoopFillZerobss+0x16>)
 80015fc:	4a0d      	ldr	r2, [pc, #52]	@ (8001634 <LoopFillZerobss+0x1a>)
 80015fe:	2300      	movs	r3, #0
 8001600:	e002      	b.n	8001608 <LoopCopyDataInit>

08001602 <CopyDataInit>:
 8001602:	58d4      	ldr	r4, [r2, r3]
 8001604:	50c4      	str	r4, [r0, r3]
 8001606:	3304      	adds	r3, #4

08001608 <LoopCopyDataInit>:
 8001608:	18c4      	adds	r4, r0, r3
 800160a:	428c      	cmp	r4, r1
 800160c:	d3f9      	bcc.n	8001602 <CopyDataInit>
 800160e:	4a0a      	ldr	r2, [pc, #40]	@ (8001638 <LoopFillZerobss+0x1e>)
 8001610:	4c0a      	ldr	r4, [pc, #40]	@ (800163c <LoopFillZerobss+0x22>)
 8001612:	2300      	movs	r3, #0
 8001614:	e001      	b.n	800161a <LoopFillZerobss>

08001616 <FillZerobss>:
 8001616:	6013      	str	r3, [r2, #0]
 8001618:	3204      	adds	r2, #4

0800161a <LoopFillZerobss>:
 800161a:	42a2      	cmp	r2, r4
 800161c:	d3fb      	bcc.n	8001616 <FillZerobss>
 800161e:	f007 fae5 	bl	8008bec <__libc_init_array>
 8001622:	f7ff fd31 	bl	8001088 <main>
 8001626:	4770      	bx	lr
 8001628:	24050000 	.word	0x24050000
 800162c:	24000000 	.word	0x24000000
 8001630:	24000040 	.word	0x24000040
 8001634:	080094e0 	.word	0x080094e0
 8001638:	24000040 	.word	0x24000040
 800163c:	24001e24 	.word	0x24001e24

08001640 <ADC3_IRQHandler>:
 8001640:	e7fe      	b.n	8001640 <ADC3_IRQHandler>

08001642 <HAL_MspDeInit>:
 8001642:	4770      	bx	lr

08001644 <HAL_DeInit>:
 8001644:	4b1b      	ldr	r3, [pc, #108]	@ (80016b4 <HAL_DeInit+0x70>)
 8001646:	4a1c      	ldr	r2, [pc, #112]	@ (80016b8 <HAL_DeInit+0x74>)
 8001648:	b510      	push	{r4, lr}
 800164a:	67da      	str	r2, [r3, #124]	@ 0x7c
 800164c:	2400      	movs	r4, #0
 800164e:	4a1b      	ldr	r2, [pc, #108]	@ (80016bc <HAL_DeInit+0x78>)
 8001650:	67dc      	str	r4, [r3, #124]	@ 0x7c
 8001652:	f8c3 2080 	str.w	r2, [r3, #128]	@ 0x80
 8001656:	4a1a      	ldr	r2, [pc, #104]	@ (80016c0 <HAL_DeInit+0x7c>)
 8001658:	f8c3 4080 	str.w	r4, [r3, #128]	@ 0x80
 800165c:	f8c3 2084 	str.w	r2, [r3, #132]	@ 0x84
 8001660:	4a18      	ldr	r2, [pc, #96]	@ (80016c4 <HAL_DeInit+0x80>)
 8001662:	f8c3 4084 	str.w	r4, [r3, #132]	@ 0x84
 8001666:	f8c3 2088 	str.w	r2, [r3, #136]	@ 0x88
 800166a:	2208      	movs	r2, #8
 800166c:	f8c3 4088 	str.w	r4, [r3, #136]	@ 0x88
 8001670:	f8c3 208c 	str.w	r2, [r3, #140]	@ 0x8c
 8001674:	4a14      	ldr	r2, [pc, #80]	@ (80016c8 <HAL_DeInit+0x84>)
 8001676:	f8c3 408c 	str.w	r4, [r3, #140]	@ 0x8c
 800167a:	f8c3 2090 	str.w	r2, [r3, #144]	@ 0x90
 800167e:	4a13      	ldr	r2, [pc, #76]	@ (80016cc <HAL_DeInit+0x88>)
 8001680:	f8c3 4090 	str.w	r4, [r3, #144]	@ 0x90
 8001684:	f8c3 2094 	str.w	r2, [r3, #148]	@ 0x94
 8001688:	f102 5275 	add.w	r2, r2, #1027604480	@ 0x3d400000
 800168c:	f8c3 4094 	str.w	r4, [r3, #148]	@ 0x94
 8001690:	f502 12b9 	add.w	r2, r2, #1515520	@ 0x172000
 8001694:	f602 72bd 	addw	r2, r2, #4029	@ 0xfbd
 8001698:	f8c3 2098 	str.w	r2, [r3, #152]	@ 0x98
 800169c:	4a0c      	ldr	r2, [pc, #48]	@ (80016d0 <HAL_DeInit+0x8c>)
 800169e:	f8c3 4098 	str.w	r4, [r3, #152]	@ 0x98
 80016a2:	f8c3 209c 	str.w	r2, [r3, #156]	@ 0x9c
 80016a6:	f8c3 409c 	str.w	r4, [r3, #156]	@ 0x9c
 80016aa:	f7ff ffca 	bl	8001642 <HAL_MspDeInit>
 80016ae:	4620      	mov	r0, r4
 80016b0:	bd10      	pop	{r4, pc}
 80016b2:	bf00      	nop
 80016b4:	58024400 	.word	0x58024400
 80016b8:	00e95011 	.word	0x00e95011
 80016bc:	02008023 	.word	0x02008023
 80016c0:	00030271 	.word	0x00030271
 80016c4:	032806ff 	.word	0x032806ff
 80016c8:	eaffc3ff 	.word	0xeaffc3ff
 80016cc:	03000136 	.word	0x03000136
 80016d0:	0420deaa 	.word	0x0420deaa

080016d4 <HAL_Init>:
 80016d4:	b510      	push	{r4, lr}
 80016d6:	2003      	movs	r0, #3
 80016d8:	f000 f858 	bl	800178c <HAL_NVIC_SetPriorityGrouping>
 80016dc:	f000 fe24 	bl	8002328 <HAL_RCC_GetSysClockFreq>
 80016e0:	490f      	ldr	r1, [pc, #60]	@ (8001720 <HAL_Init+0x4c>)
 80016e2:	4a10      	ldr	r2, [pc, #64]	@ (8001724 <HAL_Init+0x50>)
 80016e4:	698b      	ldr	r3, [r1, #24]
 80016e6:	f3c3 2303 	ubfx	r3, r3, #8, #4
 80016ea:	5cd3      	ldrb	r3, [r2, r3]
 80016ec:	f003 031f 	and.w	r3, r3, #31
 80016f0:	40d8      	lsrs	r0, r3
 80016f2:	698b      	ldr	r3, [r1, #24]
 80016f4:	f003 030f 	and.w	r3, r3, #15
 80016f8:	5cd3      	ldrb	r3, [r2, r3]
 80016fa:	4a0b      	ldr	r2, [pc, #44]	@ (8001728 <HAL_Init+0x54>)
 80016fc:	f003 031f 	and.w	r3, r3, #31
 8001700:	fa20 f303 	lsr.w	r3, r0, r3
 8001704:	6013      	str	r3, [r2, #0]
 8001706:	4b09      	ldr	r3, [pc, #36]	@ (800172c <HAL_Init+0x58>)
 8001708:	6018      	str	r0, [r3, #0]
 800170a:	200f      	movs	r0, #15
 800170c:	f7ff fe92 	bl	8001434 <HAL_InitTick>
 8001710:	4604      	mov	r4, r0
 8001712:	b918      	cbnz	r0, 800171c <HAL_Init+0x48>
 8001714:	f7ff fde4 	bl	80012e0 <HAL_MspInit>
 8001718:	4620      	mov	r0, r4
 800171a:	bd10      	pop	{r4, pc}
 800171c:	2401      	movs	r4, #1
 800171e:	e7fb      	b.n	8001718 <HAL_Init+0x44>
 8001720:	58024400 	.word	0x58024400
 8001724:	0800902e 	.word	0x0800902e
 8001728:	24000000 	.word	0x24000000
 800172c:	24000004 	.word	0x24000004

08001730 <HAL_IncTick>:
 8001730:	4a03      	ldr	r2, [pc, #12]	@ (8001740 <HAL_IncTick+0x10>)
 8001732:	4b04      	ldr	r3, [pc, #16]	@ (8001744 <HAL_IncTick+0x14>)
 8001734:	6811      	ldr	r1, [r2, #0]
 8001736:	781b      	ldrb	r3, [r3, #0]
 8001738:	440b      	add	r3, r1
 800173a:	6013      	str	r3, [r2, #0]
 800173c:	4770      	bx	lr
 800173e:	bf00      	nop
 8001740:	240016ac 	.word	0x240016ac
 8001744:	24000008 	.word	0x24000008

08001748 <HAL_GetTick>:
 8001748:	4b01      	ldr	r3, [pc, #4]	@ (8001750 <HAL_GetTick+0x8>)
 800174a:	6818      	ldr	r0, [r3, #0]
 800174c:	4770      	bx	lr
 800174e:	bf00      	nop
 8001750:	240016ac 	.word	0x240016ac

08001754 <HAL_Delay>:
 8001754:	b538      	push	{r3, r4, r5, lr}
 8001756:	4604      	mov	r4, r0
 8001758:	f7ff fff6 	bl	8001748 <HAL_GetTick>
 800175c:	4605      	mov	r5, r0
 800175e:	1c63      	adds	r3, r4, #1
 8001760:	bf1e      	ittt	ne
 8001762:	4b04      	ldrne	r3, [pc, #16]	@ (8001774 <HAL_Delay+0x20>)
 8001764:	781b      	ldrbne	r3, [r3, #0]
 8001766:	18e4      	addne	r4, r4, r3
 8001768:	f7ff ffee 	bl	8001748 <HAL_GetTick>
 800176c:	1b43      	subs	r3, r0, r5
 800176e:	42a3      	cmp	r3, r4
 8001770:	d3fa      	bcc.n	8001768 <HAL_Delay+0x14>
 8001772:	bd38      	pop	{r3, r4, r5, pc}
 8001774:	24000008 	.word	0x24000008

08001778 <HAL_SYSCFG_AnalogSwitchConfig>:
 8001778:	4a03      	ldr	r2, [pc, #12]	@ (8001788 <HAL_SYSCFG_AnalogSwitchConfig+0x10>)
 800177a:	6853      	ldr	r3, [r2, #4]
 800177c:	ea23 0300 	bic.w	r3, r3, r0
 8001780:	430b      	orrs	r3, r1
 8001782:	6053      	str	r3, [r2, #4]
 8001784:	4770      	bx	lr
 8001786:	bf00      	nop
 8001788:	58000400 	.word	0x58000400

0800178c <HAL_NVIC_SetPriorityGrouping>:
 800178c:	4907      	ldr	r1, [pc, #28]	@ (80017ac <HAL_NVIC_SetPriorityGrouping+0x20>)
 800178e:	0203      	lsls	r3, r0, #8
 8001790:	68ca      	ldr	r2, [r1, #12]
 8001792:	f403 63e0 	and.w	r3, r3, #1792	@ 0x700
 8001796:	f422 62e0 	bic.w	r2, r2, #1792	@ 0x700
 800179a:	0412      	lsls	r2, r2, #16
 800179c:	0c12      	lsrs	r2, r2, #16
 800179e:	4313      	orrs	r3, r2
 80017a0:	f043 63bf 	orr.w	r3, r3, #100139008	@ 0x5f80000
 80017a4:	f443 3300 	orr.w	r3, r3, #131072	@ 0x20000
 80017a8:	60cb      	str	r3, [r1, #12]
 80017aa:	4770      	bx	lr
 80017ac:	e000ed00 	.word	0xe000ed00

080017b0 <HAL_NVIC_SetPriority>:
 80017b0:	4b16      	ldr	r3, [pc, #88]	@ (800180c <HAL_NVIC_SetPriority+0x5c>)
 80017b2:	b530      	push	{r4, r5, lr}
 80017b4:	68dc      	ldr	r4, [r3, #12]
 80017b6:	f3c4 2402 	ubfx	r4, r4, #8, #3
 80017ba:	f1c4 0307 	rsb	r3, r4, #7
 80017be:	1d25      	adds	r5, r4, #4
 80017c0:	2b04      	cmp	r3, #4
 80017c2:	bf28      	it	cs
 80017c4:	2304      	movcs	r3, #4
 80017c6:	2d06      	cmp	r5, #6
 80017c8:	f04f 35ff 	mov.w	r5, #4294967295
 80017cc:	bf8c      	ite	hi
 80017ce:	3c03      	subhi	r4, #3
 80017d0:	2400      	movls	r4, #0
 80017d2:	fa05 f303 	lsl.w	r3, r5, r3
 80017d6:	2800      	cmp	r0, #0
 80017d8:	fa05 f504 	lsl.w	r5, r5, r4
 80017dc:	ea21 0303 	bic.w	r3, r1, r3
 80017e0:	ea22 0205 	bic.w	r2, r2, r5
 80017e4:	fa03 f304 	lsl.w	r3, r3, r4
 80017e8:	ea43 0302 	orr.w	r3, r3, r2
 80017ec:	ea4f 1303 	mov.w	r3, r3, lsl #4
 80017f0:	b2db      	uxtb	r3, r3
 80017f2:	db06      	blt.n	8001802 <HAL_NVIC_SetPriority+0x52>
 80017f4:	f100 4060 	add.w	r0, r0, #3758096384	@ 0xe0000000
 80017f8:	f500 4061 	add.w	r0, r0, #57600	@ 0xe100
 80017fc:	f880 3300 	strb.w	r3, [r0, #768]	@ 0x300
 8001800:	bd30      	pop	{r4, r5, pc}
 8001802:	f000 000f 	and.w	r0, r0, #15
 8001806:	4a02      	ldr	r2, [pc, #8]	@ (8001810 <HAL_NVIC_SetPriority+0x60>)
 8001808:	5413      	strb	r3, [r2, r0]
 800180a:	e7f9      	b.n	8001800 <HAL_NVIC_SetPriority+0x50>
 800180c:	e000ed00 	.word	0xe000ed00
 8001810:	e000ed14 	.word	0xe000ed14

08001814 <HAL_NVIC_EnableIRQ>:
 8001814:	2800      	cmp	r0, #0
 8001816:	db07      	blt.n	8001828 <HAL_NVIC_EnableIRQ+0x14>
 8001818:	2301      	movs	r3, #1
 800181a:	0941      	lsrs	r1, r0, #5
 800181c:	f000 001f 	and.w	r0, r0, #31
 8001820:	4a02      	ldr	r2, [pc, #8]	@ (800182c <HAL_NVIC_EnableIRQ+0x18>)
 8001822:	4083      	lsls	r3, r0
 8001824:	f842 3021 	str.w	r3, [r2, r1, lsl #2]
 8001828:	4770      	bx	lr
 800182a:	bf00      	nop
 800182c:	e000e100 	.word	0xe000e100

08001830 <HAL_NVIC_DisableIRQ>:
 8001830:	2800      	cmp	r0, #0
 8001832:	db0c      	blt.n	800184e <HAL_NVIC_DisableIRQ+0x1e>
 8001834:	0943      	lsrs	r3, r0, #5
 8001836:	2201      	movs	r2, #1
 8001838:	f000 001f 	and.w	r0, r0, #31
 800183c:	4904      	ldr	r1, [pc, #16]	@ (8001850 <HAL_NVIC_DisableIRQ+0x20>)
 800183e:	3320      	adds	r3, #32
 8001840:	4082      	lsls	r2, r0
 8001842:	f841 2023 	str.w	r2, [r1, r3, lsl #2]
 8001846:	f3bf 8f4f 	dsb	sy
 800184a:	f3bf 8f6f 	isb	sy
 800184e:	4770      	bx	lr
 8001850:	e000e100 	.word	0xe000e100

08001854 <HAL_MPU_Disable>:
 8001854:	f3bf 8f5f 	dmb	sy
 8001858:	4b04      	ldr	r3, [pc, #16]	@ (800186c <HAL_MPU_Disable+0x18>)
 800185a:	6a5a      	ldr	r2, [r3, #36]	@ 0x24
 800185c:	f422 3280 	bic.w	r2, r2, #65536	@ 0x10000
 8001860:	625a      	str	r2, [r3, #36]	@ 0x24
 8001862:	2200      	movs	r2, #0
 8001864:	f8c3 2094 	str.w	r2, [r3, #148]	@ 0x94
 8001868:	4770      	bx	lr
 800186a:	bf00      	nop
 800186c:	e000ed00 	.word	0xe000ed00

08001870 <HAL_MPU_Enable>:
 8001870:	4b06      	ldr	r3, [pc, #24]	@ (800188c <HAL_MPU_Enable+0x1c>)
 8001872:	f040 0001 	orr.w	r0, r0, #1
 8001876:	f8c3 0094 	str.w	r0, [r3, #148]	@ 0x94
 800187a:	6a5a      	ldr	r2, [r3, #36]	@ 0x24
 800187c:	f442 3280 	orr.w	r2, r2, #65536	@ 0x10000
 8001880:	625a      	str	r2, [r3, #36]	@ 0x24
 8001882:	f3bf 8f4f 	dsb	sy
 8001886:	f3bf 8f6f 	isb	sy
 800188a:	4770      	bx	lr
 800188c:	e000ed00 	.word	0xe000ed00

08001890 <HAL_MPU_ConfigRegion>:
 8001890:	7843      	ldrb	r3, [r0, #1]
 8001892:	4a14      	ldr	r2, [pc, #80]	@ (80018e4 <HAL_MPU_ConfigRegion+0x54>)
 8001894:	f8c2 3098 	str.w	r3, [r2, #152]	@ 0x98
 8001898:	f8d2 30a0 	ldr.w	r3, [r2, #160]	@ 0xa0
 800189c:	f023 0301 	bic.w	r3, r3, #1
 80018a0:	f8c2 30a0 	str.w	r3, [r2, #160]	@ 0xa0
 80018a4:	6843      	ldr	r3, [r0, #4]
 80018a6:	f8c2 309c 	str.w	r3, [r2, #156]	@ 0x9c
 80018aa:	7ac3      	ldrb	r3, [r0, #11]
 80018ac:	7b01      	ldrb	r1, [r0, #12]
 80018ae:	061b      	lsls	r3, r3, #24
 80018b0:	ea43 7301 	orr.w	r3, r3, r1, lsl #28
 80018b4:	7801      	ldrb	r1, [r0, #0]
 80018b6:	430b      	orrs	r3, r1
 80018b8:	7a81      	ldrb	r1, [r0, #10]
 80018ba:	ea43 43c1 	orr.w	r3, r3, r1, lsl #19
 80018be:	7b41      	ldrb	r1, [r0, #13]
 80018c0:	ea43 4381 	orr.w	r3, r3, r1, lsl #18
 80018c4:	7b81      	ldrb	r1, [r0, #14]
 80018c6:	ea43 4341 	orr.w	r3, r3, r1, lsl #17
 80018ca:	7bc1      	ldrb	r1, [r0, #15]
 80018cc:	ea43 4301 	orr.w	r3, r3, r1, lsl #16
 80018d0:	7a41      	ldrb	r1, [r0, #9]
 80018d2:	ea43 2301 	orr.w	r3, r3, r1, lsl #8
 80018d6:	7a01      	ldrb	r1, [r0, #8]
 80018d8:	ea43 0341 	orr.w	r3, r3, r1, lsl #1
 80018dc:	f8c2 30a0 	str.w	r3, [r2, #160]	@ 0xa0
 80018e0:	4770      	bx	lr
 80018e2:	bf00      	nop
 80018e4:	e000ed00 	.word	0xe000ed00

080018e8 <HAL_FLASH_Unlock>:
 80018e8:	4b06      	ldr	r3, [pc, #24]	@ (8001904 <HAL_FLASH_Unlock+0x1c>)
 80018ea:	68d8      	ldr	r0, [r3, #12]
 80018ec:	f010 0001 	ands.w	r0, r0, #1
 80018f0:	d007      	beq.n	8001902 <HAL_FLASH_Unlock+0x1a>
 80018f2:	4a05      	ldr	r2, [pc, #20]	@ (8001908 <HAL_FLASH_Unlock+0x20>)
 80018f4:	605a      	str	r2, [r3, #4]
 80018f6:	f102 3288 	add.w	r2, r2, #2290649224	@ 0x88888888
 80018fa:	605a      	str	r2, [r3, #4]
 80018fc:	68d8      	ldr	r0, [r3, #12]
 80018fe:	f000 0001 	and.w	r0, r0, #1
 8001902:	4770      	bx	lr
 8001904:	52002000 	.word	0x52002000
 8001908:	45670123 	.word	0x45670123

0800190c <HAL_FLASH_Lock>:
 800190c:	4b04      	ldr	r3, [pc, #16]	@ (8001920 <HAL_FLASH_Lock+0x14>)
 800190e:	68da      	ldr	r2, [r3, #12]
 8001910:	f042 0201 	orr.w	r2, r2, #1
 8001914:	60da      	str	r2, [r3, #12]
 8001916:	68d8      	ldr	r0, [r3, #12]
 8001918:	43c0      	mvns	r0, r0
 800191a:	f000 0001 	and.w	r0, r0, #1
 800191e:	4770      	bx	lr
 8001920:	52002000 	.word	0x52002000

08001924 <HAL_FLASH_GetError>:
 8001924:	4b01      	ldr	r3, [pc, #4]	@ (800192c <HAL_FLASH_GetError+0x8>)
 8001926:	6998      	ldr	r0, [r3, #24]
 8001928:	4770      	bx	lr
 800192a:	bf00      	nop
 800192c:	240016b0 	.word	0x240016b0

08001930 <FLASH_WaitForLastOperation>:
 8001930:	b5f8      	push	{r3, r4, r5, r6, r7, lr}
 8001932:	4606      	mov	r6, r0
 8001934:	460c      	mov	r4, r1
 8001936:	4d13      	ldr	r5, [pc, #76]	@ (8001984 <FLASH_WaitForLastOperation+0x54>)
 8001938:	f7ff ff06 	bl	8001748 <HAL_GetTick>
 800193c:	4607      	mov	r7, r0
 800193e:	692b      	ldr	r3, [r5, #16]
 8001940:	075a      	lsls	r2, r3, #29
 8001942:	d40c      	bmi.n	800195e <FLASH_WaitForLastOperation+0x2e>
 8001944:	2c01      	cmp	r4, #1
 8001946:	d11b      	bne.n	8001980 <FLASH_WaitForLastOperation+0x50>
 8001948:	692b      	ldr	r3, [r5, #16]
 800194a:	4a0f      	ldr	r2, [pc, #60]	@ (8001988 <FLASH_WaitForLastOperation+0x58>)
 800194c:	4013      	ands	r3, r2
 800194e:	d011      	beq.n	8001974 <FLASH_WaitForLastOperation+0x44>
 8001950:	490e      	ldr	r1, [pc, #56]	@ (800198c <FLASH_WaitForLastOperation+0x5c>)
 8001952:	4620      	mov	r0, r4
 8001954:	698a      	ldr	r2, [r1, #24]
 8001956:	431a      	orrs	r2, r3
 8001958:	618a      	str	r2, [r1, #24]
 800195a:	616b      	str	r3, [r5, #20]
 800195c:	bdf8      	pop	{r3, r4, r5, r6, r7, pc}
 800195e:	1c71      	adds	r1, r6, #1
 8001960:	d0ed      	beq.n	800193e <FLASH_WaitForLastOperation+0xe>
 8001962:	f7ff fef1 	bl	8001748 <HAL_GetTick>
 8001966:	1bc0      	subs	r0, r0, r7
 8001968:	42b0      	cmp	r0, r6
 800196a:	d801      	bhi.n	8001970 <FLASH_WaitForLastOperation+0x40>
 800196c:	2e00      	cmp	r6, #0
 800196e:	d1e6      	bne.n	800193e <FLASH_WaitForLastOperation+0xe>
 8001970:	2003      	movs	r0, #3
 8001972:	e7f3      	b.n	800195c <FLASH_WaitForLastOperation+0x2c>
 8001974:	692b      	ldr	r3, [r5, #16]
 8001976:	03db      	lsls	r3, r3, #15
 8001978:	d502      	bpl.n	8001980 <FLASH_WaitForLastOperation+0x50>
 800197a:	f44f 3380 	mov.w	r3, #65536	@ 0x10000
 800197e:	616b      	str	r3, [r5, #20]
 8001980:	2000      	movs	r0, #0
 8001982:	e7eb      	b.n	800195c <FLASH_WaitForLastOperation+0x2c>
 8001984:	52002000 	.word	0x52002000
 8001988:	17ee0000 	.word	0x17ee0000
 800198c:	240016b0 	.word	0x240016b0

08001990 <HAL_FLASH_Program>:
 8001990:	b570      	push	{r4, r5, r6, lr}
 8001992:	4c1b      	ldr	r4, [pc, #108]	@ (8001a00 <HAL_FLASH_Program+0x70>)
 8001994:	460d      	mov	r5, r1
 8001996:	4616      	mov	r6, r2
 8001998:	7d23      	ldrb	r3, [r4, #20]
 800199a:	2b01      	cmp	r3, #1
 800199c:	d02c      	beq.n	80019f8 <HAL_FLASH_Program+0x68>
 800199e:	f105 4378 	add.w	r3, r5, #4160749568	@ 0xf8000000
 80019a2:	2101      	movs	r1, #1
 80019a4:	f5b3 1f80 	cmp.w	r3, #1048576	@ 0x100000
 80019a8:	7521      	strb	r1, [r4, #20]
 80019aa:	d227      	bcs.n	80019fc <HAL_FLASH_Program+0x6c>
 80019ac:	2300      	movs	r3, #0
 80019ae:	f24c 3050 	movw	r0, #50000	@ 0xc350
 80019b2:	61a3      	str	r3, [r4, #24]
 80019b4:	f7ff ffbc 	bl	8001930 <FLASH_WaitForLastOperation>
 80019b8:	b9d8      	cbnz	r0, 80019f2 <HAL_FLASH_Program+0x62>
 80019ba:	4a12      	ldr	r2, [pc, #72]	@ (8001a04 <HAL_FLASH_Program+0x74>)
 80019bc:	68d3      	ldr	r3, [r2, #12]
 80019be:	f043 0302 	orr.w	r3, r3, #2
 80019c2:	60d3      	str	r3, [r2, #12]
 80019c4:	f3bf 8f6f 	isb	sy
 80019c8:	f3bf 8f4f 	dsb	sy
 80019cc:	5833      	ldr	r3, [r6, r0]
 80019ce:	502b      	str	r3, [r5, r0]
 80019d0:	3004      	adds	r0, #4
 80019d2:	2820      	cmp	r0, #32
 80019d4:	d1fa      	bne.n	80019cc <HAL_FLASH_Program+0x3c>
 80019d6:	f3bf 8f6f 	isb	sy
 80019da:	f3bf 8f4f 	dsb	sy
 80019de:	2101      	movs	r1, #1
 80019e0:	f24c 3050 	movw	r0, #50000	@ 0xc350
 80019e4:	f7ff ffa4 	bl	8001930 <FLASH_WaitForLastOperation>
 80019e8:	4a06      	ldr	r2, [pc, #24]	@ (8001a04 <HAL_FLASH_Program+0x74>)
 80019ea:	68d3      	ldr	r3, [r2, #12]
 80019ec:	f023 0302 	bic.w	r3, r3, #2
 80019f0:	60d3      	str	r3, [r2, #12]
 80019f2:	2300      	movs	r3, #0
 80019f4:	7523      	strb	r3, [r4, #20]
 80019f6:	bd70      	pop	{r4, r5, r6, pc}
 80019f8:	2002      	movs	r0, #2
 80019fa:	e7fc      	b.n	80019f6 <HAL_FLASH_Program+0x66>
 80019fc:	4608      	mov	r0, r1
 80019fe:	e7fa      	b.n	80019f6 <HAL_FLASH_Program+0x66>
 8001a00:	240016b0 	.word	0x240016b0
 8001a04:	52002000 	.word	0x52002000

08001a08 <FLASH_Erase_Sector>:
 8001a08:	07cb      	lsls	r3, r1, #31
 8001a0a:	d50b      	bpl.n	8001a24 <FLASH_Erase_Sector+0x1c>
 8001a0c:	4906      	ldr	r1, [pc, #24]	@ (8001a28 <FLASH_Erase_Sector+0x20>)
 8001a0e:	68cb      	ldr	r3, [r1, #12]
 8001a10:	f423 63e6 	bic.w	r3, r3, #1840	@ 0x730
 8001a14:	60cb      	str	r3, [r1, #12]
 8001a16:	68cb      	ldr	r3, [r1, #12]
 8001a18:	ea43 2000 	orr.w	r0, r3, r0, lsl #8
 8001a1c:	4302      	orrs	r2, r0
 8001a1e:	f042 0284 	orr.w	r2, r2, #132	@ 0x84
 8001a22:	60ca      	str	r2, [r1, #12]
 8001a24:	4770      	bx	lr
 8001a26:	bf00      	nop
 8001a28:	52002000 	.word	0x52002000

08001a2c <HAL_GPIO_Init>:
 8001a2c:	e92d 4ff7 	stmdb	sp!, {r0, r1, r2, r4, r5, r6, r7, r8, r9, sl, fp, lr}
 8001a30:	2300      	movs	r3, #0
 8001a32:	f8df 91c0 	ldr.w	r9, [pc, #448]	@ 8001bf4 <HAL_GPIO_Init+0x1c8>
 8001a36:	f04f 44b0 	mov.w	r4, #1476395008	@ 0x58000000
 8001a3a:	680a      	ldr	r2, [r1, #0]
 8001a3c:	fa32 f503 	lsrs.w	r5, r2, r3
 8001a40:	d102      	bne.n	8001a48 <HAL_GPIO_Init+0x1c>
 8001a42:	b003      	add	sp, #12
 8001a44:	e8bd 8ff0 	ldmia.w	sp!, {r4, r5, r6, r7, r8, r9, sl, fp, pc}
 8001a48:	2501      	movs	r5, #1
 8001a4a:	fa05 fa03 	lsl.w	sl, r5, r3
 8001a4e:	ea1a 0202 	ands.w	r2, sl, r2
 8001a52:	f000 80bb 	beq.w	8001bcc <HAL_GPIO_Init+0x1a0>
 8001a56:	684e      	ldr	r6, [r1, #4]
 8001a58:	2703      	movs	r7, #3
 8001a5a:	ea4f 0843 	mov.w	r8, r3, lsl #1
 8001a5e:	f8d1 c008 	ldr.w	ip, [r1, #8]
 8001a62:	f006 0503 	and.w	r5, r6, #3
 8001a66:	fa07 fe08 	lsl.w	lr, r7, r8
 8001a6a:	1e6f      	subs	r7, r5, #1
 8001a6c:	ea6f 0e0e 	mvn.w	lr, lr
 8001a70:	2f01      	cmp	r7, #1
 8001a72:	d833      	bhi.n	8001adc <HAL_GPIO_Init+0xb0>
 8001a74:	6887      	ldr	r7, [r0, #8]
 8001a76:	ea07 0b0e 	and.w	fp, r7, lr
 8001a7a:	68cf      	ldr	r7, [r1, #12]
 8001a7c:	fa07 f708 	lsl.w	r7, r7, r8
 8001a80:	ea47 070b 	orr.w	r7, r7, fp
 8001a84:	6087      	str	r7, [r0, #8]
 8001a86:	6847      	ldr	r7, [r0, #4]
 8001a88:	ea27 0a0a 	bic.w	sl, r7, sl
 8001a8c:	f3c6 1700 	ubfx	r7, r6, #4, #1
 8001a90:	409f      	lsls	r7, r3
 8001a92:	ea47 070a 	orr.w	r7, r7, sl
 8001a96:	6047      	str	r7, [r0, #4]
 8001a98:	68c7      	ldr	r7, [r0, #12]
 8001a9a:	fa0c fc08 	lsl.w	ip, ip, r8
 8001a9e:	2d02      	cmp	r5, #2
 8001aa0:	ea07 070e 	and.w	r7, r7, lr
 8001aa4:	ea4c 0707 	orr.w	r7, ip, r7
 8001aa8:	60c7      	str	r7, [r0, #12]
 8001aaa:	d11c      	bne.n	8001ae6 <HAL_GPIO_Init+0xba>
 8001aac:	ea4f 0cd3 	mov.w	ip, r3, lsr #3
 8001ab0:	f003 0a07 	and.w	sl, r3, #7
 8001ab4:	f04f 0b0f 	mov.w	fp, #15
 8001ab8:	eb00 0c8c 	add.w	ip, r0, ip, lsl #2
 8001abc:	ea4f 0a8a 	mov.w	sl, sl, lsl #2
 8001ac0:	f8dc 7020 	ldr.w	r7, [ip, #32]
 8001ac4:	fa0b fb0a 	lsl.w	fp, fp, sl
 8001ac8:	ea27 0b0b 	bic.w	fp, r7, fp
 8001acc:	690f      	ldr	r7, [r1, #16]
 8001ace:	fa07 f70a 	lsl.w	r7, r7, sl
 8001ad2:	ea47 070b 	orr.w	r7, r7, fp
 8001ad6:	f8cc 7020 	str.w	r7, [ip, #32]
 8001ada:	e004      	b.n	8001ae6 <HAL_GPIO_Init+0xba>
 8001adc:	2d03      	cmp	r5, #3
 8001ade:	d1db      	bne.n	8001a98 <HAL_GPIO_Init+0x6c>
 8001ae0:	f1bc 0f01 	cmp.w	ip, #1
 8001ae4:	d1d8      	bne.n	8001a98 <HAL_GPIO_Init+0x6c>
 8001ae6:	6807      	ldr	r7, [r0, #0]
 8001ae8:	fa05 f508 	lsl.w	r5, r5, r8
 8001aec:	f416 3f40 	tst.w	r6, #196608	@ 0x30000
 8001af0:	ea07 070e 	and.w	r7, r7, lr
 8001af4:	ea45 0507 	orr.w	r5, r5, r7
 8001af8:	6005      	str	r5, [r0, #0]
 8001afa:	d067      	beq.n	8001bcc <HAL_GPIO_Init+0x1a0>
 8001afc:	f8d9 50f4 	ldr.w	r5, [r9, #244]	@ 0xf4
 8001b00:	f023 0703 	bic.w	r7, r3, #3
 8001b04:	f003 0c03 	and.w	ip, r3, #3
 8001b08:	f04f 0e0f 	mov.w	lr, #15
 8001b0c:	f045 0502 	orr.w	r5, r5, #2
 8001b10:	f107 47b0 	add.w	r7, r7, #1476395008	@ 0x58000000
 8001b14:	ea4f 0c8c 	mov.w	ip, ip, lsl #2
 8001b18:	f8c9 50f4 	str.w	r5, [r9, #244]	@ 0xf4
 8001b1c:	f507 6780 	add.w	r7, r7, #1024	@ 0x400
 8001b20:	f8d9 50f4 	ldr.w	r5, [r9, #244]	@ 0xf4
 8001b24:	fa0e fe0c 	lsl.w	lr, lr, ip
 8001b28:	f005 0502 	and.w	r5, r5, #2
 8001b2c:	9501      	str	r5, [sp, #4]
 8001b2e:	9d01      	ldr	r5, [sp, #4]
 8001b30:	68bd      	ldr	r5, [r7, #8]
 8001b32:	ea25 0e0e 	bic.w	lr, r5, lr
 8001b36:	4d2e      	ldr	r5, [pc, #184]	@ (8001bf0 <HAL_GPIO_Init+0x1c4>)
 8001b38:	42a8      	cmp	r0, r5
 8001b3a:	d049      	beq.n	8001bd0 <HAL_GPIO_Init+0x1a4>
 8001b3c:	f505 6580 	add.w	r5, r5, #1024	@ 0x400
 8001b40:	42a8      	cmp	r0, r5
 8001b42:	d047      	beq.n	8001bd4 <HAL_GPIO_Init+0x1a8>
 8001b44:	f505 6580 	add.w	r5, r5, #1024	@ 0x400
 8001b48:	42a8      	cmp	r0, r5
 8001b4a:	d045      	beq.n	8001bd8 <HAL_GPIO_Init+0x1ac>
 8001b4c:	f505 6580 	add.w	r5, r5, #1024	@ 0x400
 8001b50:	42a8      	cmp	r0, r5
 8001b52:	d043      	beq.n	8001bdc <HAL_GPIO_Init+0x1b0>
 8001b54:	f505 6580 	add.w	r5, r5, #1024	@ 0x400
 8001b58:	42a8      	cmp	r0, r5
 8001b5a:	d041      	beq.n	8001be0 <HAL_GPIO_Init+0x1b4>
 8001b5c:	f505 6580 	add.w	r5, r5, #1024	@ 0x400
 8001b60:	42a8      	cmp	r0, r5
 8001b62:	d03f      	beq.n	8001be4 <HAL_GPIO_Init+0x1b8>
 8001b64:	f505 6580 	add.w	r5, r5, #1024	@ 0x400
 8001b68:	42a8      	cmp	r0, r5
 8001b6a:	d03d      	beq.n	8001be8 <HAL_GPIO_Init+0x1bc>
 8001b6c:	f505 6580 	add.w	r5, r5, #1024	@ 0x400
 8001b70:	42a8      	cmp	r0, r5
 8001b72:	d03b      	beq.n	8001bec <HAL_GPIO_Init+0x1c0>
 8001b74:	f505 6500 	add.w	r5, r5, #2048	@ 0x800
 8001b78:	42a8      	cmp	r0, r5
 8001b7a:	bf14      	ite	ne
 8001b7c:	250a      	movne	r5, #10
 8001b7e:	2509      	moveq	r5, #9
 8001b80:	fa05 f50c 	lsl.w	r5, r5, ip
 8001b84:	f416 1f80 	tst.w	r6, #1048576	@ 0x100000
 8001b88:	ea45 050e 	orr.w	r5, r5, lr
 8001b8c:	60bd      	str	r5, [r7, #8]
 8001b8e:	ea6f 0702 	mvn.w	r7, r2
 8001b92:	6825      	ldr	r5, [r4, #0]
 8001b94:	bf0c      	ite	eq
 8001b96:	403d      	andeq	r5, r7
 8001b98:	4315      	orrne	r5, r2
 8001b9a:	f416 1f00 	tst.w	r6, #2097152	@ 0x200000
 8001b9e:	6025      	str	r5, [r4, #0]
 8001ba0:	6865      	ldr	r5, [r4, #4]
 8001ba2:	bf0c      	ite	eq
 8001ba4:	403d      	andeq	r5, r7
 8001ba6:	4315      	orrne	r5, r2
 8001ba8:	f416 3f00 	tst.w	r6, #131072	@ 0x20000
 8001bac:	6065      	str	r5, [r4, #4]
 8001bae:	f8d4 5084 	ldr.w	r5, [r4, #132]	@ 0x84
 8001bb2:	bf0c      	ite	eq
 8001bb4:	403d      	andeq	r5, r7
 8001bb6:	4315      	orrne	r5, r2
 8001bb8:	03f6      	lsls	r6, r6, #15
 8001bba:	f8c4 5084 	str.w	r5, [r4, #132]	@ 0x84
 8001bbe:	f8d4 5080 	ldr.w	r5, [r4, #128]	@ 0x80
 8001bc2:	bf54      	ite	pl
 8001bc4:	403d      	andpl	r5, r7
 8001bc6:	4315      	orrmi	r5, r2
 8001bc8:	f8c4 5080 	str.w	r5, [r4, #128]	@ 0x80
 8001bcc:	3301      	adds	r3, #1
 8001bce:	e734      	b.n	8001a3a <HAL_GPIO_Init+0xe>
 8001bd0:	2500      	movs	r5, #0
 8001bd2:	e7d5      	b.n	8001b80 <HAL_GPIO_Init+0x154>
 8001bd4:	2501      	movs	r5, #1
 8001bd6:	e7d3      	b.n	8001b80 <HAL_GPIO_Init+0x154>
 8001bd8:	2502      	movs	r5, #2
 8001bda:	e7d1      	b.n	8001b80 <HAL_GPIO_Init+0x154>
 8001bdc:	2503      	movs	r5, #3
 8001bde:	e7cf      	b.n	8001b80 <HAL_GPIO_Init+0x154>
 8001be0:	2504      	movs	r5, #4
 8001be2:	e7cd      	b.n	8001b80 <HAL_GPIO_Init+0x154>
 8001be4:	2505      	movs	r5, #5
 8001be6:	e7cb      	b.n	8001b80 <HAL_GPIO_Init+0x154>
 8001be8:	2506      	movs	r5, #6
 8001bea:	e7c9      	b.n	8001b80 <HAL_GPIO_Init+0x154>
 8001bec:	2507      	movs	r5, #7
 8001bee:	e7c7      	b.n	8001b80 <HAL_GPIO_Init+0x154>
 8001bf0:	58020000 	.word	0x58020000
 8001bf4:	58024400 	.word	0x58024400

08001bf8 <HAL_GPIO_ReadPin>:
 8001bf8:	6900      	ldr	r0, [r0, #16]
 8001bfa:	4008      	ands	r0, r1
 8001bfc:	3800      	subs	r0, #0
 8001bfe:	bf18      	it	ne
 8001c00:	2001      	movne	r0, #1
 8001c02:	4770      	bx	lr

08001c04 <HAL_GPIO_WritePin>:
 8001c04:	b10a      	cbz	r2, 8001c0a <HAL_GPIO_WritePin+0x6>
 8001c06:	6181      	str	r1, [r0, #24]
 8001c08:	4770      	bx	lr
 8001c0a:	0409      	lsls	r1, r1, #16
 8001c0c:	e7fb      	b.n	8001c06 <HAL_GPIO_WritePin+0x2>

08001c0e <HAL_GPIO_TogglePin>:
 8001c0e:	6943      	ldr	r3, [r0, #20]
 8001c10:	ea01 0203 	and.w	r2, r1, r3
 8001c14:	ea21 0103 	bic.w	r1, r1, r3
 8001c18:	ea41 4102 	orr.w	r1, r1, r2, lsl #16
 8001c1c:	6181      	str	r1, [r0, #24]
 8001c1e:	4770      	bx	lr

08001c20 <HAL_GPIO_EXTI_Callback>:
 8001c20:	4770      	bx	lr

08001c22 <HAL_GPIO_EXTI_IRQHandler>:
 8001c22:	f04f 42b0 	mov.w	r2, #1476395008	@ 0x58000000
 8001c26:	f8d2 1088 	ldr.w	r1, [r2, #136]	@ 0x88
 8001c2a:	4201      	tst	r1, r0
 8001c2c:	b508      	push	{r3, lr}
 8001c2e:	d003      	beq.n	8001c38 <HAL_GPIO_EXTI_IRQHandler+0x16>
 8001c30:	f8c2 0088 	str.w	r0, [r2, #136]	@ 0x88
 8001c34:	f7ff fff4 	bl	8001c20 <HAL_GPIO_EXTI_Callback>
 8001c38:	bd08      	pop	{r3, pc}
	...

08001c3c <HAL_PWR_EnableBkUpAccess>:
 8001c3c:	4a02      	ldr	r2, [pc, #8]	@ (8001c48 <HAL_PWR_EnableBkUpAccess+0xc>)
 8001c3e:	6813      	ldr	r3, [r2, #0]
 8001c40:	f443 7380 	orr.w	r3, r3, #256	@ 0x100
 8001c44:	6013      	str	r3, [r2, #0]
 8001c46:	4770      	bx	lr
 8001c48:	58024800 	.word	0x58024800

08001c4c <HAL_PWREx_ConfigSupply>:
 8001c4c:	b538      	push	{r3, r4, r5, lr}
 8001c4e:	4c10      	ldr	r4, [pc, #64]	@ (8001c90 <HAL_PWREx_ConfigSupply+0x44>)
 8001c50:	68e3      	ldr	r3, [r4, #12]
 8001c52:	f013 0f04 	tst.w	r3, #4
 8001c56:	68e3      	ldr	r3, [r4, #12]
 8001c58:	d105      	bne.n	8001c66 <HAL_PWREx_ConfigSupply+0x1a>
 8001c5a:	f003 0307 	and.w	r3, r3, #7
 8001c5e:	1a18      	subs	r0, r3, r0
 8001c60:	bf18      	it	ne
 8001c62:	2001      	movne	r0, #1
 8001c64:	bd38      	pop	{r3, r4, r5, pc}
 8001c66:	f023 0307 	bic.w	r3, r3, #7
 8001c6a:	4318      	orrs	r0, r3
 8001c6c:	60e0      	str	r0, [r4, #12]
 8001c6e:	f7ff fd6b 	bl	8001748 <HAL_GetTick>
 8001c72:	4605      	mov	r5, r0
 8001c74:	6863      	ldr	r3, [r4, #4]
 8001c76:	049b      	lsls	r3, r3, #18
 8001c78:	d501      	bpl.n	8001c7e <HAL_PWREx_ConfigSupply+0x32>
 8001c7a:	2000      	movs	r0, #0
 8001c7c:	e7f2      	b.n	8001c64 <HAL_PWREx_ConfigSupply+0x18>
 8001c7e:	f7ff fd63 	bl	8001748 <HAL_GetTick>
 8001c82:	1b40      	subs	r0, r0, r5
 8001c84:	f5b0 7f7a 	cmp.w	r0, #1000	@ 0x3e8
 8001c88:	d9f4      	bls.n	8001c74 <HAL_PWREx_ConfigSupply+0x28>
 8001c8a:	2001      	movs	r0, #1
 8001c8c:	e7ea      	b.n	8001c64 <HAL_PWREx_ConfigSupply+0x18>
 8001c8e:	bf00      	nop
 8001c90:	58024800 	.word	0x58024800

08001c94 <HAL_RCC_DeInit>:
 8001c94:	4a5f      	ldr	r2, [pc, #380]	@ (8001e14 <HAL_RCC_DeInit+0x180>)
 8001c96:	b5f8      	push	{r3, r4, r5, r6, r7, lr}
 8001c98:	6813      	ldr	r3, [r2, #0]
 8001c9a:	f003 030f 	and.w	r3, r3, #15
 8001c9e:	2b06      	cmp	r3, #6
 8001ca0:	f240 8082 	bls.w	8001da8 <HAL_RCC_DeInit+0x114>
 8001ca4:	4c5c      	ldr	r4, [pc, #368]	@ (8001e18 <HAL_RCC_DeInit+0x184>)
 8001ca6:	f7ff fd4f 	bl	8001748 <HAL_GetTick>
 8001caa:	4605      	mov	r5, r0
 8001cac:	6823      	ldr	r3, [r4, #0]
 8001cae:	f043 0301 	orr.w	r3, r3, #1
 8001cb2:	6023      	str	r3, [r4, #0]
 8001cb4:	6823      	ldr	r3, [r4, #0]
 8001cb6:	075e      	lsls	r6, r3, #29
 8001cb8:	f140 8085 	bpl.w	8001dc6 <HAL_RCC_DeInit+0x132>
 8001cbc:	6863      	ldr	r3, [r4, #4]
 8001cbe:	4a57      	ldr	r2, [pc, #348]	@ (8001e1c <HAL_RCC_DeInit+0x188>)
 8001cc0:	f043 4380 	orr.w	r3, r3, #1073741824	@ 0x40000000
 8001cc4:	6063      	str	r3, [r4, #4]
 8001cc6:	2300      	movs	r3, #0
 8001cc8:	6123      	str	r3, [r4, #16]
 8001cca:	4b55      	ldr	r3, [pc, #340]	@ (8001e20 <HAL_RCC_DeInit+0x18c>)
 8001ccc:	6013      	str	r3, [r2, #0]
 8001cce:	4a55      	ldr	r2, [pc, #340]	@ (8001e24 <HAL_RCC_DeInit+0x190>)
 8001cd0:	6013      	str	r3, [r2, #0]
 8001cd2:	4b55      	ldr	r3, [pc, #340]	@ (8001e28 <HAL_RCC_DeInit+0x194>)
 8001cd4:	6818      	ldr	r0, [r3, #0]
 8001cd6:	f7ff fbad 	bl	8001434 <HAL_InitTick>
 8001cda:	4605      	mov	r5, r0
 8001cdc:	2800      	cmp	r0, #0
 8001cde:	d16f      	bne.n	8001dc0 <HAL_RCC_DeInit+0x12c>
 8001ce0:	f7ff fd32 	bl	8001748 <HAL_GetTick>
 8001ce4:	4c4c      	ldr	r4, [pc, #304]	@ (8001e18 <HAL_RCC_DeInit+0x184>)
 8001ce6:	4606      	mov	r6, r0
 8001ce8:	f241 3788 	movw	r7, #5000	@ 0x1388
 8001cec:	6923      	ldr	r3, [r4, #16]
 8001cee:	f013 0f38 	tst.w	r3, #56	@ 0x38
 8001cf2:	d170      	bne.n	8001dd6 <HAL_RCC_DeInit+0x142>
 8001cf4:	f7ff fd28 	bl	8001748 <HAL_GetTick>
 8001cf8:	6822      	ldr	r2, [r4, #0]
 8001cfa:	4b4c      	ldr	r3, [pc, #304]	@ (8001e2c <HAL_RCC_DeInit+0x198>)
 8001cfc:	4606      	mov	r6, r0
 8001cfe:	4013      	ands	r3, r2
 8001d00:	6023      	str	r3, [r4, #0]
 8001d02:	4c45      	ldr	r4, [pc, #276]	@ (8001e18 <HAL_RCC_DeInit+0x184>)
 8001d04:	6823      	ldr	r3, [r4, #0]
 8001d06:	0398      	lsls	r0, r3, #14
 8001d08:	d46b      	bmi.n	8001de2 <HAL_RCC_DeInit+0x14e>
 8001d0a:	f7ff fd1d 	bl	8001748 <HAL_GetTick>
 8001d0e:	6823      	ldr	r3, [r4, #0]
 8001d10:	4606      	mov	r6, r0
 8001d12:	f023 7380 	bic.w	r3, r3, #16777216	@ 0x1000000
 8001d16:	6023      	str	r3, [r4, #0]
 8001d18:	4c3f      	ldr	r4, [pc, #252]	@ (8001e18 <HAL_RCC_DeInit+0x184>)
 8001d1a:	6823      	ldr	r3, [r4, #0]
 8001d1c:	0199      	lsls	r1, r3, #6
 8001d1e:	d466      	bmi.n	8001dee <HAL_RCC_DeInit+0x15a>
 8001d20:	f7ff fd12 	bl	8001748 <HAL_GetTick>
 8001d24:	6823      	ldr	r3, [r4, #0]
 8001d26:	4606      	mov	r6, r0
 8001d28:	f023 6380 	bic.w	r3, r3, #67108864	@ 0x4000000
 8001d2c:	6023      	str	r3, [r4, #0]
 8001d2e:	4c3a      	ldr	r4, [pc, #232]	@ (8001e18 <HAL_RCC_DeInit+0x184>)
 8001d30:	6823      	ldr	r3, [r4, #0]
 8001d32:	011a      	lsls	r2, r3, #4
 8001d34:	d461      	bmi.n	8001dfa <HAL_RCC_DeInit+0x166>
 8001d36:	f7ff fd07 	bl	8001748 <HAL_GetTick>
 8001d3a:	6823      	ldr	r3, [r4, #0]
 8001d3c:	4606      	mov	r6, r0
 8001d3e:	f023 5380 	bic.w	r3, r3, #268435456	@ 0x10000000
 8001d42:	6023      	str	r3, [r4, #0]
 8001d44:	4c34      	ldr	r4, [pc, #208]	@ (8001e18 <HAL_RCC_DeInit+0x184>)
 8001d46:	6823      	ldr	r3, [r4, #0]
 8001d48:	f013 5300 	ands.w	r3, r3, #536870912	@ 0x20000000
 8001d4c:	d15b      	bne.n	8001e06 <HAL_RCC_DeInit+0x172>
 8001d4e:	4a38      	ldr	r2, [pc, #224]	@ (8001e30 <HAL_RCC_DeInit+0x19c>)
 8001d50:	61a3      	str	r3, [r4, #24]
 8001d52:	61e3      	str	r3, [r4, #28]
 8001d54:	6223      	str	r3, [r4, #32]
 8001d56:	62a2      	str	r2, [r4, #40]	@ 0x28
 8001d58:	4a36      	ldr	r2, [pc, #216]	@ (8001e34 <HAL_RCC_DeInit+0x1a0>)
 8001d5a:	62e2      	str	r2, [r4, #44]	@ 0x2c
 8001d5c:	4a36      	ldr	r2, [pc, #216]	@ (8001e38 <HAL_RCC_DeInit+0x1a4>)
 8001d5e:	6322      	str	r2, [r4, #48]	@ 0x30
 8001d60:	6363      	str	r3, [r4, #52]	@ 0x34
 8001d62:	63a2      	str	r2, [r4, #56]	@ 0x38
 8001d64:	63e3      	str	r3, [r4, #60]	@ 0x3c
 8001d66:	6422      	str	r2, [r4, #64]	@ 0x40
 8001d68:	6463      	str	r3, [r4, #68]	@ 0x44
 8001d6a:	6822      	ldr	r2, [r4, #0]
 8001d6c:	f422 2280 	bic.w	r2, r2, #262144	@ 0x40000
 8001d70:	6022      	str	r2, [r4, #0]
 8001d72:	6623      	str	r3, [r4, #96]	@ 0x60
 8001d74:	f04f 33ff 	mov.w	r3, #4294967295
 8001d78:	4a26      	ldr	r2, [pc, #152]	@ (8001e14 <HAL_RCC_DeInit+0x180>)
 8001d7a:	66a3      	str	r3, [r4, #104]	@ 0x68
 8001d7c:	f8d4 30d0 	ldr.w	r3, [r4, #208]	@ 0xd0
 8001d80:	f443 3380 	orr.w	r3, r3, #65536	@ 0x10000
 8001d84:	f8c4 30d0 	str.w	r3, [r4, #208]	@ 0xd0
 8001d88:	6813      	ldr	r3, [r2, #0]
 8001d8a:	071b      	lsls	r3, r3, #28
 8001d8c:	d519      	bpl.n	8001dc2 <HAL_RCC_DeInit+0x12e>
 8001d8e:	6813      	ldr	r3, [r2, #0]
 8001d90:	f023 030f 	bic.w	r3, r3, #15
 8001d94:	f043 0307 	orr.w	r3, r3, #7
 8001d98:	6013      	str	r3, [r2, #0]
 8001d9a:	6815      	ldr	r5, [r2, #0]
 8001d9c:	f005 050f 	and.w	r5, r5, #15
 8001da0:	3d07      	subs	r5, #7
 8001da2:	bf18      	it	ne
 8001da4:	2501      	movne	r5, #1
 8001da6:	e00c      	b.n	8001dc2 <HAL_RCC_DeInit+0x12e>
 8001da8:	6813      	ldr	r3, [r2, #0]
 8001daa:	f023 030f 	bic.w	r3, r3, #15
 8001dae:	f043 0307 	orr.w	r3, r3, #7
 8001db2:	6013      	str	r3, [r2, #0]
 8001db4:	6813      	ldr	r3, [r2, #0]
 8001db6:	f003 030f 	and.w	r3, r3, #15
 8001dba:	2b07      	cmp	r3, #7
 8001dbc:	f43f af72 	beq.w	8001ca4 <HAL_RCC_DeInit+0x10>
 8001dc0:	2501      	movs	r5, #1
 8001dc2:	4628      	mov	r0, r5
 8001dc4:	bdf8      	pop	{r3, r4, r5, r6, r7, pc}
 8001dc6:	f7ff fcbf 	bl	8001748 <HAL_GetTick>
 8001dca:	1b40      	subs	r0, r0, r5
 8001dcc:	2802      	cmp	r0, #2
 8001dce:	f67f af71 	bls.w	8001cb4 <HAL_RCC_DeInit+0x20>
 8001dd2:	2503      	movs	r5, #3
 8001dd4:	e7f5      	b.n	8001dc2 <HAL_RCC_DeInit+0x12e>
 8001dd6:	f7ff fcb7 	bl	8001748 <HAL_GetTick>
 8001dda:	1b80      	subs	r0, r0, r6
 8001ddc:	42b8      	cmp	r0, r7
 8001dde:	d985      	bls.n	8001cec <HAL_RCC_DeInit+0x58>
 8001de0:	e7f7      	b.n	8001dd2 <HAL_RCC_DeInit+0x13e>
 8001de2:	f7ff fcb1 	bl	8001748 <HAL_GetTick>
 8001de6:	1b80      	subs	r0, r0, r6
 8001de8:	2864      	cmp	r0, #100	@ 0x64
 8001dea:	d98b      	bls.n	8001d04 <HAL_RCC_DeInit+0x70>
 8001dec:	e7f1      	b.n	8001dd2 <HAL_RCC_DeInit+0x13e>
 8001dee:	f7ff fcab 	bl	8001748 <HAL_GetTick>
 8001df2:	1b80      	subs	r0, r0, r6
 8001df4:	2802      	cmp	r0, #2
 8001df6:	d990      	bls.n	8001d1a <HAL_RCC_DeInit+0x86>
 8001df8:	e7eb      	b.n	8001dd2 <HAL_RCC_DeInit+0x13e>
 8001dfa:	f7ff fca5 	bl	8001748 <HAL_GetTick>
 8001dfe:	1b80      	subs	r0, r0, r6
 8001e00:	2802      	cmp	r0, #2
 8001e02:	d995      	bls.n	8001d30 <HAL_RCC_DeInit+0x9c>
 8001e04:	e7e5      	b.n	8001dd2 <HAL_RCC_DeInit+0x13e>
 8001e06:	f7ff fc9f 	bl	8001748 <HAL_GetTick>
 8001e0a:	1b80      	subs	r0, r0, r6
 8001e0c:	2802      	cmp	r0, #2
 8001e0e:	d99a      	bls.n	8001d46 <HAL_RCC_DeInit+0xb2>
 8001e10:	e7df      	b.n	8001dd2 <HAL_RCC_DeInit+0x13e>
 8001e12:	bf00      	nop
 8001e14:	52002000 	.word	0x52002000
 8001e18:	58024400 	.word	0x58024400
 8001e1c:	24000004 	.word	0x24000004
 8001e20:	03d09000 	.word	0x03d09000
 8001e24:	24000000 	.word	0x24000000
 8001e28:	2400000c 	.word	0x2400000c
 8001e2c:	fff6ed45 	.word	0xfff6ed45
 8001e30:	02020200 	.word	0x02020200
 8001e34:	01ff0000 	.word	0x01ff0000
 8001e38:	01010280 	.word	0x01010280

08001e3c <HAL_RCC_OscConfig>:
 8001e3c:	b5f8      	push	{r3, r4, r5, r6, r7, lr}
 8001e3e:	4604      	mov	r4, r0
 8001e40:	2800      	cmp	r0, #0
 8001e42:	d069      	beq.n	8001f18 <HAL_RCC_OscConfig+0xdc>
 8001e44:	6803      	ldr	r3, [r0, #0]
 8001e46:	07d8      	lsls	r0, r3, #31
 8001e48:	d453      	bmi.n	8001ef2 <HAL_RCC_OscConfig+0xb6>
 8001e4a:	6823      	ldr	r3, [r4, #0]
 8001e4c:	0799      	lsls	r1, r3, #30
 8001e4e:	f100 80a1 	bmi.w	8001f94 <HAL_RCC_OscConfig+0x158>
 8001e52:	6823      	ldr	r3, [r4, #0]
 8001e54:	06da      	lsls	r2, r3, #27
 8001e56:	d51c      	bpl.n	8001e92 <HAL_RCC_OscConfig+0x56>
 8001e58:	4a95      	ldr	r2, [pc, #596]	@ (80020b0 <HAL_RCC_OscConfig+0x274>)
 8001e5a:	6913      	ldr	r3, [r2, #16]
 8001e5c:	6a91      	ldr	r1, [r2, #40]	@ 0x28
 8001e5e:	f003 0338 	and.w	r3, r3, #56	@ 0x38
 8001e62:	2b08      	cmp	r3, #8
 8001e64:	d007      	beq.n	8001e76 <HAL_RCC_OscConfig+0x3a>
 8001e66:	2b18      	cmp	r3, #24
 8001e68:	f040 80e1 	bne.w	800202e <HAL_RCC_OscConfig+0x1f2>
 8001e6c:	f001 0303 	and.w	r3, r1, #3
 8001e70:	2b01      	cmp	r3, #1
 8001e72:	f040 80dc 	bne.w	800202e <HAL_RCC_OscConfig+0x1f2>
 8001e76:	6813      	ldr	r3, [r2, #0]
 8001e78:	05db      	lsls	r3, r3, #23
 8001e7a:	d502      	bpl.n	8001e82 <HAL_RCC_OscConfig+0x46>
 8001e7c:	69e3      	ldr	r3, [r4, #28]
 8001e7e:	2b80      	cmp	r3, #128	@ 0x80
 8001e80:	d14a      	bne.n	8001f18 <HAL_RCC_OscConfig+0xdc>
 8001e82:	4a8b      	ldr	r2, [pc, #556]	@ (80020b0 <HAL_RCC_OscConfig+0x274>)
 8001e84:	6a21      	ldr	r1, [r4, #32]
 8001e86:	68d3      	ldr	r3, [r2, #12]
 8001e88:	f023 537c 	bic.w	r3, r3, #1056964608	@ 0x3f000000
 8001e8c:	ea43 6301 	orr.w	r3, r3, r1, lsl #24
 8001e90:	60d3      	str	r3, [r2, #12]
 8001e92:	6823      	ldr	r3, [r4, #0]
 8001e94:	0719      	lsls	r1, r3, #28
 8001e96:	f100 80f6 	bmi.w	8002086 <HAL_RCC_OscConfig+0x24a>
 8001e9a:	6823      	ldr	r3, [r4, #0]
 8001e9c:	069a      	lsls	r2, r3, #26
 8001e9e:	f100 811c 	bmi.w	80020da <HAL_RCC_OscConfig+0x29e>
 8001ea2:	6823      	ldr	r3, [r4, #0]
 8001ea4:	075d      	lsls	r5, r3, #29
 8001ea6:	d51e      	bpl.n	8001ee6 <HAL_RCC_OscConfig+0xaa>
 8001ea8:	4d82      	ldr	r5, [pc, #520]	@ (80020b4 <HAL_RCC_OscConfig+0x278>)
 8001eaa:	682b      	ldr	r3, [r5, #0]
 8001eac:	f443 7380 	orr.w	r3, r3, #256	@ 0x100
 8001eb0:	602b      	str	r3, [r5, #0]
 8001eb2:	f7ff fc49 	bl	8001748 <HAL_GetTick>
 8001eb6:	4606      	mov	r6, r0
 8001eb8:	682b      	ldr	r3, [r5, #0]
 8001eba:	05da      	lsls	r2, r3, #23
 8001ebc:	f140 8132 	bpl.w	8002124 <HAL_RCC_OscConfig+0x2e8>
 8001ec0:	68a3      	ldr	r3, [r4, #8]
 8001ec2:	4d7b      	ldr	r5, [pc, #492]	@ (80020b0 <HAL_RCC_OscConfig+0x274>)
 8001ec4:	2b01      	cmp	r3, #1
 8001ec6:	f040 8134 	bne.w	8002132 <HAL_RCC_OscConfig+0x2f6>
 8001eca:	6f2b      	ldr	r3, [r5, #112]	@ 0x70
 8001ecc:	f043 0301 	orr.w	r3, r3, #1
 8001ed0:	672b      	str	r3, [r5, #112]	@ 0x70
 8001ed2:	f241 3788 	movw	r7, #5000	@ 0x1388
 8001ed6:	f7ff fc37 	bl	8001748 <HAL_GetTick>
 8001eda:	4e75      	ldr	r6, [pc, #468]	@ (80020b0 <HAL_RCC_OscConfig+0x274>)
 8001edc:	4605      	mov	r5, r0
 8001ede:	6f33      	ldr	r3, [r6, #112]	@ 0x70
 8001ee0:	079b      	lsls	r3, r3, #30
 8001ee2:	f140 814c 	bpl.w	800217e <HAL_RCC_OscConfig+0x342>
 8001ee6:	6a61      	ldr	r1, [r4, #36]	@ 0x24
 8001ee8:	2900      	cmp	r1, #0
 8001eea:	f040 814f 	bne.w	800218c <HAL_RCC_OscConfig+0x350>
 8001eee:	2000      	movs	r0, #0
 8001ef0:	e02a      	b.n	8001f48 <HAL_RCC_OscConfig+0x10c>
 8001ef2:	4a6f      	ldr	r2, [pc, #444]	@ (80020b0 <HAL_RCC_OscConfig+0x274>)
 8001ef4:	6913      	ldr	r3, [r2, #16]
 8001ef6:	6a91      	ldr	r1, [r2, #40]	@ 0x28
 8001ef8:	f003 0338 	and.w	r3, r3, #56	@ 0x38
 8001efc:	2b10      	cmp	r3, #16
 8001efe:	d005      	beq.n	8001f0c <HAL_RCC_OscConfig+0xd0>
 8001f00:	2b18      	cmp	r3, #24
 8001f02:	d10b      	bne.n	8001f1c <HAL_RCC_OscConfig+0xe0>
 8001f04:	f001 0303 	and.w	r3, r1, #3
 8001f08:	2b02      	cmp	r3, #2
 8001f0a:	d107      	bne.n	8001f1c <HAL_RCC_OscConfig+0xe0>
 8001f0c:	6813      	ldr	r3, [r2, #0]
 8001f0e:	039a      	lsls	r2, r3, #14
 8001f10:	d59b      	bpl.n	8001e4a <HAL_RCC_OscConfig+0xe>
 8001f12:	6863      	ldr	r3, [r4, #4]
 8001f14:	2b00      	cmp	r3, #0
 8001f16:	d198      	bne.n	8001e4a <HAL_RCC_OscConfig+0xe>
 8001f18:	2001      	movs	r0, #1
 8001f1a:	e015      	b.n	8001f48 <HAL_RCC_OscConfig+0x10c>
 8001f1c:	6863      	ldr	r3, [r4, #4]
 8001f1e:	4d64      	ldr	r5, [pc, #400]	@ (80020b0 <HAL_RCC_OscConfig+0x274>)
 8001f20:	f5b3 3f80 	cmp.w	r3, #65536	@ 0x10000
 8001f24:	d111      	bne.n	8001f4a <HAL_RCC_OscConfig+0x10e>
 8001f26:	682b      	ldr	r3, [r5, #0]
 8001f28:	f443 3380 	orr.w	r3, r3, #65536	@ 0x10000
 8001f2c:	602b      	str	r3, [r5, #0]
 8001f2e:	f7ff fc0b 	bl	8001748 <HAL_GetTick>
 8001f32:	4e5f      	ldr	r6, [pc, #380]	@ (80020b0 <HAL_RCC_OscConfig+0x274>)
 8001f34:	4605      	mov	r5, r0
 8001f36:	6833      	ldr	r3, [r6, #0]
 8001f38:	039b      	lsls	r3, r3, #14
 8001f3a:	d486      	bmi.n	8001e4a <HAL_RCC_OscConfig+0xe>
 8001f3c:	f7ff fc04 	bl	8001748 <HAL_GetTick>
 8001f40:	1b40      	subs	r0, r0, r5
 8001f42:	2864      	cmp	r0, #100	@ 0x64
 8001f44:	d9f7      	bls.n	8001f36 <HAL_RCC_OscConfig+0xfa>
 8001f46:	2003      	movs	r0, #3
 8001f48:	bdf8      	pop	{r3, r4, r5, r6, r7, pc}
 8001f4a:	b9a3      	cbnz	r3, 8001f76 <HAL_RCC_OscConfig+0x13a>
 8001f4c:	682b      	ldr	r3, [r5, #0]
 8001f4e:	f423 3380 	bic.w	r3, r3, #65536	@ 0x10000
 8001f52:	602b      	str	r3, [r5, #0]
 8001f54:	682b      	ldr	r3, [r5, #0]
 8001f56:	f423 2380 	bic.w	r3, r3, #262144	@ 0x40000
 8001f5a:	602b      	str	r3, [r5, #0]
 8001f5c:	f7ff fbf4 	bl	8001748 <HAL_GetTick>
 8001f60:	4606      	mov	r6, r0
 8001f62:	682b      	ldr	r3, [r5, #0]
 8001f64:	039f      	lsls	r7, r3, #14
 8001f66:	f57f af70 	bpl.w	8001e4a <HAL_RCC_OscConfig+0xe>
 8001f6a:	f7ff fbed 	bl	8001748 <HAL_GetTick>
 8001f6e:	1b80      	subs	r0, r0, r6
 8001f70:	2864      	cmp	r0, #100	@ 0x64
 8001f72:	d9f6      	bls.n	8001f62 <HAL_RCC_OscConfig+0x126>
 8001f74:	e7e7      	b.n	8001f46 <HAL_RCC_OscConfig+0x10a>
 8001f76:	f5b3 2fa0 	cmp.w	r3, #327680	@ 0x50000
 8001f7a:	682b      	ldr	r3, [r5, #0]
 8001f7c:	d103      	bne.n	8001f86 <HAL_RCC_OscConfig+0x14a>
 8001f7e:	f443 2380 	orr.w	r3, r3, #262144	@ 0x40000
 8001f82:	602b      	str	r3, [r5, #0]
 8001f84:	e7cf      	b.n	8001f26 <HAL_RCC_OscConfig+0xea>
 8001f86:	f423 3380 	bic.w	r3, r3, #65536	@ 0x10000
 8001f8a:	602b      	str	r3, [r5, #0]
 8001f8c:	682b      	ldr	r3, [r5, #0]
 8001f8e:	f423 2380 	bic.w	r3, r3, #262144	@ 0x40000
 8001f92:	e7cb      	b.n	8001f2c <HAL_RCC_OscConfig+0xf0>
 8001f94:	4946      	ldr	r1, [pc, #280]	@ (80020b0 <HAL_RCC_OscConfig+0x274>)
 8001f96:	68e2      	ldr	r2, [r4, #12]
 8001f98:	690b      	ldr	r3, [r1, #16]
 8001f9a:	6a88      	ldr	r0, [r1, #40]	@ 0x28
 8001f9c:	f013 0338 	ands.w	r3, r3, #56	@ 0x38
 8001fa0:	d003      	beq.n	8001faa <HAL_RCC_OscConfig+0x16e>
 8001fa2:	2b18      	cmp	r3, #24
 8001fa4:	d120      	bne.n	8001fe8 <HAL_RCC_OscConfig+0x1ac>
 8001fa6:	0780      	lsls	r0, r0, #30
 8001fa8:	d11e      	bne.n	8001fe8 <HAL_RCC_OscConfig+0x1ac>
 8001faa:	680b      	ldr	r3, [r1, #0]
 8001fac:	075b      	lsls	r3, r3, #29
 8001fae:	d501      	bpl.n	8001fb4 <HAL_RCC_OscConfig+0x178>
 8001fb0:	2a00      	cmp	r2, #0
 8001fb2:	d0b1      	beq.n	8001f18 <HAL_RCC_OscConfig+0xdc>
 8001fb4:	4d3e      	ldr	r5, [pc, #248]	@ (80020b0 <HAL_RCC_OscConfig+0x274>)
 8001fb6:	682b      	ldr	r3, [r5, #0]
 8001fb8:	f023 0319 	bic.w	r3, r3, #25
 8001fbc:	4313      	orrs	r3, r2
 8001fbe:	602b      	str	r3, [r5, #0]
 8001fc0:	f7ff fbc2 	bl	8001748 <HAL_GetTick>
 8001fc4:	4606      	mov	r6, r0
 8001fc6:	682b      	ldr	r3, [r5, #0]
 8001fc8:	075f      	lsls	r7, r3, #29
 8001fca:	d507      	bpl.n	8001fdc <HAL_RCC_OscConfig+0x1a0>
 8001fcc:	686b      	ldr	r3, [r5, #4]
 8001fce:	6922      	ldr	r2, [r4, #16]
 8001fd0:	f023 43fe 	bic.w	r3, r3, #2130706432	@ 0x7f000000
 8001fd4:	ea43 6302 	orr.w	r3, r3, r2, lsl #24
 8001fd8:	606b      	str	r3, [r5, #4]
 8001fda:	e73a      	b.n	8001e52 <HAL_RCC_OscConfig+0x16>
 8001fdc:	f7ff fbb4 	bl	8001748 <HAL_GetTick>
 8001fe0:	1b80      	subs	r0, r0, r6
 8001fe2:	2802      	cmp	r0, #2
 8001fe4:	d9ef      	bls.n	8001fc6 <HAL_RCC_OscConfig+0x18a>
 8001fe6:	e7ae      	b.n	8001f46 <HAL_RCC_OscConfig+0x10a>
 8001fe8:	4d31      	ldr	r5, [pc, #196]	@ (80020b0 <HAL_RCC_OscConfig+0x274>)
 8001fea:	682b      	ldr	r3, [r5, #0]
 8001fec:	b17a      	cbz	r2, 800200e <HAL_RCC_OscConfig+0x1d2>
 8001fee:	f023 0319 	bic.w	r3, r3, #25
 8001ff2:	4313      	orrs	r3, r2
 8001ff4:	602b      	str	r3, [r5, #0]
 8001ff6:	f7ff fba7 	bl	8001748 <HAL_GetTick>
 8001ffa:	4606      	mov	r6, r0
 8001ffc:	682b      	ldr	r3, [r5, #0]
 8001ffe:	0758      	lsls	r0, r3, #29
 8002000:	d4e4      	bmi.n	8001fcc <HAL_RCC_OscConfig+0x190>
 8002002:	f7ff fba1 	bl	8001748 <HAL_GetTick>
 8002006:	1b80      	subs	r0, r0, r6
 8002008:	2802      	cmp	r0, #2
 800200a:	d9f7      	bls.n	8001ffc <HAL_RCC_OscConfig+0x1c0>
 800200c:	e79b      	b.n	8001f46 <HAL_RCC_OscConfig+0x10a>
 800200e:	f023 0301 	bic.w	r3, r3, #1
 8002012:	602b      	str	r3, [r5, #0]
 8002014:	f7ff fb98 	bl	8001748 <HAL_GetTick>
 8002018:	4606      	mov	r6, r0
 800201a:	682b      	ldr	r3, [r5, #0]
 800201c:	0759      	lsls	r1, r3, #29
 800201e:	f57f af18 	bpl.w	8001e52 <HAL_RCC_OscConfig+0x16>
 8002022:	f7ff fb91 	bl	8001748 <HAL_GetTick>
 8002026:	1b80      	subs	r0, r0, r6
 8002028:	2802      	cmp	r0, #2
 800202a:	d9f6      	bls.n	800201a <HAL_RCC_OscConfig+0x1de>
 800202c:	e78b      	b.n	8001f46 <HAL_RCC_OscConfig+0x10a>
 800202e:	69e3      	ldr	r3, [r4, #28]
 8002030:	4d1f      	ldr	r5, [pc, #124]	@ (80020b0 <HAL_RCC_OscConfig+0x274>)
 8002032:	b1bb      	cbz	r3, 8002064 <HAL_RCC_OscConfig+0x228>
 8002034:	682b      	ldr	r3, [r5, #0]
 8002036:	f043 0380 	orr.w	r3, r3, #128	@ 0x80
 800203a:	602b      	str	r3, [r5, #0]
 800203c:	f7ff fb84 	bl	8001748 <HAL_GetTick>
 8002040:	4606      	mov	r6, r0
 8002042:	682b      	ldr	r3, [r5, #0]
 8002044:	05df      	lsls	r7, r3, #23
 8002046:	d507      	bpl.n	8002058 <HAL_RCC_OscConfig+0x21c>
 8002048:	68eb      	ldr	r3, [r5, #12]
 800204a:	6a22      	ldr	r2, [r4, #32]
 800204c:	f023 537c 	bic.w	r3, r3, #1056964608	@ 0x3f000000
 8002050:	ea43 6302 	orr.w	r3, r3, r2, lsl #24
 8002054:	60eb      	str	r3, [r5, #12]
 8002056:	e71c      	b.n	8001e92 <HAL_RCC_OscConfig+0x56>
 8002058:	f7ff fb76 	bl	8001748 <HAL_GetTick>
 800205c:	1b80      	subs	r0, r0, r6
 800205e:	2802      	cmp	r0, #2
 8002060:	d9ef      	bls.n	8002042 <HAL_RCC_OscConfig+0x206>
 8002062:	e770      	b.n	8001f46 <HAL_RCC_OscConfig+0x10a>
 8002064:	682b      	ldr	r3, [r5, #0]
 8002066:	f023 0380 	bic.w	r3, r3, #128	@ 0x80
 800206a:	602b      	str	r3, [r5, #0]
 800206c:	f7ff fb6c 	bl	8001748 <HAL_GetTick>
 8002070:	4606      	mov	r6, r0
 8002072:	682b      	ldr	r3, [r5, #0]
 8002074:	05d8      	lsls	r0, r3, #23
 8002076:	f57f af0c 	bpl.w	8001e92 <HAL_RCC_OscConfig+0x56>
 800207a:	f7ff fb65 	bl	8001748 <HAL_GetTick>
 800207e:	1b80      	subs	r0, r0, r6
 8002080:	2802      	cmp	r0, #2
 8002082:	d9f6      	bls.n	8002072 <HAL_RCC_OscConfig+0x236>
 8002084:	e75f      	b.n	8001f46 <HAL_RCC_OscConfig+0x10a>
 8002086:	6963      	ldr	r3, [r4, #20]
 8002088:	4d09      	ldr	r5, [pc, #36]	@ (80020b0 <HAL_RCC_OscConfig+0x274>)
 800208a:	b1ab      	cbz	r3, 80020b8 <HAL_RCC_OscConfig+0x27c>
 800208c:	6f6b      	ldr	r3, [r5, #116]	@ 0x74
 800208e:	f043 0301 	orr.w	r3, r3, #1
 8002092:	676b      	str	r3, [r5, #116]	@ 0x74
 8002094:	f7ff fb58 	bl	8001748 <HAL_GetTick>
 8002098:	4606      	mov	r6, r0
 800209a:	6f6b      	ldr	r3, [r5, #116]	@ 0x74
 800209c:	079b      	lsls	r3, r3, #30
 800209e:	f53f aefc 	bmi.w	8001e9a <HAL_RCC_OscConfig+0x5e>
 80020a2:	f7ff fb51 	bl	8001748 <HAL_GetTick>
 80020a6:	1b80      	subs	r0, r0, r6
 80020a8:	2802      	cmp	r0, #2
 80020aa:	d9f6      	bls.n	800209a <HAL_RCC_OscConfig+0x25e>
 80020ac:	e74b      	b.n	8001f46 <HAL_RCC_OscConfig+0x10a>
 80020ae:	bf00      	nop
 80020b0:	58024400 	.word	0x58024400
 80020b4:	58024800 	.word	0x58024800
 80020b8:	6f6b      	ldr	r3, [r5, #116]	@ 0x74
 80020ba:	f023 0301 	bic.w	r3, r3, #1
 80020be:	676b      	str	r3, [r5, #116]	@ 0x74
 80020c0:	f7ff fb42 	bl	8001748 <HAL_GetTick>
 80020c4:	4606      	mov	r6, r0
 80020c6:	6f6b      	ldr	r3, [r5, #116]	@ 0x74
 80020c8:	079f      	lsls	r7, r3, #30
 80020ca:	f57f aee6 	bpl.w	8001e9a <HAL_RCC_OscConfig+0x5e>
 80020ce:	f7ff fb3b 	bl	8001748 <HAL_GetTick>
 80020d2:	1b80      	subs	r0, r0, r6
 80020d4:	2802      	cmp	r0, #2
 80020d6:	d9f6      	bls.n	80020c6 <HAL_RCC_OscConfig+0x28a>
 80020d8:	e735      	b.n	8001f46 <HAL_RCC_OscConfig+0x10a>
 80020da:	69a3      	ldr	r3, [r4, #24]
 80020dc:	4d91      	ldr	r5, [pc, #580]	@ (8002324 <HAL_RCC_OscConfig+0x4e8>)
 80020de:	b183      	cbz	r3, 8002102 <HAL_RCC_OscConfig+0x2c6>
 80020e0:	682b      	ldr	r3, [r5, #0]
 80020e2:	f443 5380 	orr.w	r3, r3, #4096	@ 0x1000
 80020e6:	602b      	str	r3, [r5, #0]
 80020e8:	f7ff fb2e 	bl	8001748 <HAL_GetTick>
 80020ec:	4606      	mov	r6, r0
 80020ee:	682b      	ldr	r3, [r5, #0]
 80020f0:	0498      	lsls	r0, r3, #18
 80020f2:	f53f aed6 	bmi.w	8001ea2 <HAL_RCC_OscConfig+0x66>
 80020f6:	f7ff fb27 	bl	8001748 <HAL_GetTick>
 80020fa:	1b80      	subs	r0, r0, r6
 80020fc:	2802      	cmp	r0, #2
 80020fe:	d9f6      	bls.n	80020ee <HAL_RCC_OscConfig+0x2b2>
 8002100:	e721      	b.n	8001f46 <HAL_RCC_OscConfig+0x10a>
 8002102:	682b      	ldr	r3, [r5, #0]
 8002104:	f423 5380 	bic.w	r3, r3, #4096	@ 0x1000
 8002108:	602b      	str	r3, [r5, #0]
 800210a:	f7ff fb1d 	bl	8001748 <HAL_GetTick>
 800210e:	4606      	mov	r6, r0
 8002110:	682b      	ldr	r3, [r5, #0]
 8002112:	0499      	lsls	r1, r3, #18
 8002114:	f57f aec5 	bpl.w	8001ea2 <HAL_RCC_OscConfig+0x66>
 8002118:	f7ff fb16 	bl	8001748 <HAL_GetTick>
 800211c:	1b80      	subs	r0, r0, r6
 800211e:	2802      	cmp	r0, #2
 8002120:	d9f6      	bls.n	8002110 <HAL_RCC_OscConfig+0x2d4>
 8002122:	e710      	b.n	8001f46 <HAL_RCC_OscConfig+0x10a>
 8002124:	f7ff fb10 	bl	8001748 <HAL_GetTick>
 8002128:	1b80      	subs	r0, r0, r6
 800212a:	2864      	cmp	r0, #100	@ 0x64
 800212c:	f67f aec4 	bls.w	8001eb8 <HAL_RCC_OscConfig+0x7c>
 8002130:	e709      	b.n	8001f46 <HAL_RCC_OscConfig+0x10a>
 8002132:	b9b3      	cbnz	r3, 8002162 <HAL_RCC_OscConfig+0x326>
 8002134:	6f2b      	ldr	r3, [r5, #112]	@ 0x70
 8002136:	f241 3788 	movw	r7, #5000	@ 0x1388
 800213a:	f023 0301 	bic.w	r3, r3, #1
 800213e:	672b      	str	r3, [r5, #112]	@ 0x70
 8002140:	6f2b      	ldr	r3, [r5, #112]	@ 0x70
 8002142:	f023 0304 	bic.w	r3, r3, #4
 8002146:	672b      	str	r3, [r5, #112]	@ 0x70
 8002148:	f7ff fafe 	bl	8001748 <HAL_GetTick>
 800214c:	4606      	mov	r6, r0
 800214e:	6f2b      	ldr	r3, [r5, #112]	@ 0x70
 8002150:	0798      	lsls	r0, r3, #30
 8002152:	f57f aec8 	bpl.w	8001ee6 <HAL_RCC_OscConfig+0xaa>
 8002156:	f7ff faf7 	bl	8001748 <HAL_GetTick>
 800215a:	1b80      	subs	r0, r0, r6
 800215c:	42b8      	cmp	r0, r7
 800215e:	d9f6      	bls.n	800214e <HAL_RCC_OscConfig+0x312>
 8002160:	e6f1      	b.n	8001f46 <HAL_RCC_OscConfig+0x10a>
 8002162:	2b05      	cmp	r3, #5
 8002164:	6f2b      	ldr	r3, [r5, #112]	@ 0x70
 8002166:	d103      	bne.n	8002170 <HAL_RCC_OscConfig+0x334>
 8002168:	f043 0304 	orr.w	r3, r3, #4
 800216c:	672b      	str	r3, [r5, #112]	@ 0x70
 800216e:	e6ac      	b.n	8001eca <HAL_RCC_OscConfig+0x8e>
 8002170:	f023 0301 	bic.w	r3, r3, #1
 8002174:	672b      	str	r3, [r5, #112]	@ 0x70
 8002176:	6f2b      	ldr	r3, [r5, #112]	@ 0x70
 8002178:	f023 0304 	bic.w	r3, r3, #4
 800217c:	e6a8      	b.n	8001ed0 <HAL_RCC_OscConfig+0x94>
 800217e:	f7ff fae3 	bl	8001748 <HAL_GetTick>
 8002182:	1b40      	subs	r0, r0, r5
 8002184:	42b8      	cmp	r0, r7
 8002186:	f67f aeaa 	bls.w	8001ede <HAL_RCC_OscConfig+0xa2>
 800218a:	e6dc      	b.n	8001f46 <HAL_RCC_OscConfig+0x10a>
 800218c:	4d65      	ldr	r5, [pc, #404]	@ (8002324 <HAL_RCC_OscConfig+0x4e8>)
 800218e:	692b      	ldr	r3, [r5, #16]
 8002190:	f003 0338 	and.w	r3, r3, #56	@ 0x38
 8002194:	2b18      	cmp	r3, #24
 8002196:	d078      	beq.n	800228a <HAL_RCC_OscConfig+0x44e>
 8002198:	682b      	ldr	r3, [r5, #0]
 800219a:	2902      	cmp	r1, #2
 800219c:	f023 7380 	bic.w	r3, r3, #16777216	@ 0x1000000
 80021a0:	602b      	str	r3, [r5, #0]
 80021a2:	d165      	bne.n	8002270 <HAL_RCC_OscConfig+0x434>
 80021a4:	f7ff fad0 	bl	8001748 <HAL_GetTick>
 80021a8:	4606      	mov	r6, r0
 80021aa:	682b      	ldr	r3, [r5, #0]
 80021ac:	0199      	lsls	r1, r3, #6
 80021ae:	d459      	bmi.n	8002264 <HAL_RCC_OscConfig+0x428>
 80021b0:	6aab      	ldr	r3, [r5, #40]	@ 0x28
 80021b2:	6aa2      	ldr	r2, [r4, #40]	@ 0x28
 80021b4:	f423 737c 	bic.w	r3, r3, #1008	@ 0x3f0
 80021b8:	f023 0303 	bic.w	r3, r3, #3
 80021bc:	4313      	orrs	r3, r2
 80021be:	6ae2      	ldr	r2, [r4, #44]	@ 0x2c
 80021c0:	ea43 1302 	orr.w	r3, r3, r2, lsl #4
 80021c4:	62ab      	str	r3, [r5, #40]	@ 0x28
 80021c6:	6b63      	ldr	r3, [r4, #52]	@ 0x34
 80021c8:	6ba2      	ldr	r2, [r4, #56]	@ 0x38
 80021ca:	3b01      	subs	r3, #1
 80021cc:	3a01      	subs	r2, #1
 80021ce:	025b      	lsls	r3, r3, #9
 80021d0:	0412      	lsls	r2, r2, #16
 80021d2:	b29b      	uxth	r3, r3
 80021d4:	f402 02fe 	and.w	r2, r2, #8323072	@ 0x7f0000
 80021d8:	4313      	orrs	r3, r2
 80021da:	6b22      	ldr	r2, [r4, #48]	@ 0x30
 80021dc:	3a01      	subs	r2, #1
 80021de:	f3c2 0208 	ubfx	r2, r2, #0, #9
 80021e2:	4313      	orrs	r3, r2
 80021e4:	6be2      	ldr	r2, [r4, #60]	@ 0x3c
 80021e6:	3a01      	subs	r2, #1
 80021e8:	0612      	lsls	r2, r2, #24
 80021ea:	f002 42fe 	and.w	r2, r2, #2130706432	@ 0x7f000000
 80021ee:	4313      	orrs	r3, r2
 80021f0:	632b      	str	r3, [r5, #48]	@ 0x30
 80021f2:	6aeb      	ldr	r3, [r5, #44]	@ 0x2c
 80021f4:	f023 0301 	bic.w	r3, r3, #1
 80021f8:	62eb      	str	r3, [r5, #44]	@ 0x2c
 80021fa:	6b6b      	ldr	r3, [r5, #52]	@ 0x34
 80021fc:	6ca2      	ldr	r2, [r4, #72]	@ 0x48
 80021fe:	f36f 03cf 	bfc	r3, #3, #13
 8002202:	ea43 03c2 	orr.w	r3, r3, r2, lsl #3
 8002206:	636b      	str	r3, [r5, #52]	@ 0x34
 8002208:	6aeb      	ldr	r3, [r5, #44]	@ 0x2c
 800220a:	6c22      	ldr	r2, [r4, #64]	@ 0x40
 800220c:	f023 030c 	bic.w	r3, r3, #12
 8002210:	4313      	orrs	r3, r2
 8002212:	62eb      	str	r3, [r5, #44]	@ 0x2c
 8002214:	6aeb      	ldr	r3, [r5, #44]	@ 0x2c
 8002216:	6c62      	ldr	r2, [r4, #68]	@ 0x44
 8002218:	f023 0302 	bic.w	r3, r3, #2
 800221c:	4313      	orrs	r3, r2
 800221e:	62eb      	str	r3, [r5, #44]	@ 0x2c
 8002220:	6aeb      	ldr	r3, [r5, #44]	@ 0x2c
 8002222:	f443 3380 	orr.w	r3, r3, #65536	@ 0x10000
 8002226:	62eb      	str	r3, [r5, #44]	@ 0x2c
 8002228:	6aeb      	ldr	r3, [r5, #44]	@ 0x2c
 800222a:	f443 3300 	orr.w	r3, r3, #131072	@ 0x20000
 800222e:	62eb      	str	r3, [r5, #44]	@ 0x2c
 8002230:	6aeb      	ldr	r3, [r5, #44]	@ 0x2c
 8002232:	f443 2380 	orr.w	r3, r3, #262144	@ 0x40000
 8002236:	62eb      	str	r3, [r5, #44]	@ 0x2c
 8002238:	6aeb      	ldr	r3, [r5, #44]	@ 0x2c
 800223a:	f043 0301 	orr.w	r3, r3, #1
 800223e:	62eb      	str	r3, [r5, #44]	@ 0x2c
 8002240:	682b      	ldr	r3, [r5, #0]
 8002242:	f043 7380 	orr.w	r3, r3, #16777216	@ 0x1000000
 8002246:	602b      	str	r3, [r5, #0]
 8002248:	f7ff fa7e 	bl	8001748 <HAL_GetTick>
 800224c:	4d35      	ldr	r5, [pc, #212]	@ (8002324 <HAL_RCC_OscConfig+0x4e8>)
 800224e:	4604      	mov	r4, r0
 8002250:	682b      	ldr	r3, [r5, #0]
 8002252:	019a      	lsls	r2, r3, #6
 8002254:	f53f ae4b 	bmi.w	8001eee <HAL_RCC_OscConfig+0xb2>
 8002258:	f7ff fa76 	bl	8001748 <HAL_GetTick>
 800225c:	1b00      	subs	r0, r0, r4
 800225e:	2802      	cmp	r0, #2
 8002260:	d9f6      	bls.n	8002250 <HAL_RCC_OscConfig+0x414>
 8002262:	e670      	b.n	8001f46 <HAL_RCC_OscConfig+0x10a>
 8002264:	f7ff fa70 	bl	8001748 <HAL_GetTick>
 8002268:	1b80      	subs	r0, r0, r6
 800226a:	2802      	cmp	r0, #2
 800226c:	d99d      	bls.n	80021aa <HAL_RCC_OscConfig+0x36e>
 800226e:	e66a      	b.n	8001f46 <HAL_RCC_OscConfig+0x10a>
 8002270:	f7ff fa6a 	bl	8001748 <HAL_GetTick>
 8002274:	4604      	mov	r4, r0
 8002276:	682b      	ldr	r3, [r5, #0]
 8002278:	019b      	lsls	r3, r3, #6
 800227a:	f57f ae38 	bpl.w	8001eee <HAL_RCC_OscConfig+0xb2>
 800227e:	f7ff fa63 	bl	8001748 <HAL_GetTick>
 8002282:	1b00      	subs	r0, r0, r4
 8002284:	2802      	cmp	r0, #2
 8002286:	d9f6      	bls.n	8002276 <HAL_RCC_OscConfig+0x43a>
 8002288:	e65d      	b.n	8001f46 <HAL_RCC_OscConfig+0x10a>
 800228a:	2901      	cmp	r1, #1
 800228c:	6aaa      	ldr	r2, [r5, #40]	@ 0x28
 800228e:	6b2b      	ldr	r3, [r5, #48]	@ 0x30
 8002290:	f43f ae42 	beq.w	8001f18 <HAL_RCC_OscConfig+0xdc>
 8002294:	f002 0103 	and.w	r1, r2, #3
 8002298:	6aa0      	ldr	r0, [r4, #40]	@ 0x28
 800229a:	4281      	cmp	r1, r0
 800229c:	f47f ae3c 	bne.w	8001f18 <HAL_RCC_OscConfig+0xdc>
 80022a0:	f3c2 1205 	ubfx	r2, r2, #4, #6
 80022a4:	6ae1      	ldr	r1, [r4, #44]	@ 0x2c
 80022a6:	428a      	cmp	r2, r1
 80022a8:	f47f ae36 	bne.w	8001f18 <HAL_RCC_OscConfig+0xdc>
 80022ac:	6b22      	ldr	r2, [r4, #48]	@ 0x30
 80022ae:	f3c3 0108 	ubfx	r1, r3, #0, #9
 80022b2:	3a01      	subs	r2, #1
 80022b4:	4291      	cmp	r1, r2
 80022b6:	f47f ae2f 	bne.w	8001f18 <HAL_RCC_OscConfig+0xdc>
 80022ba:	6b62      	ldr	r2, [r4, #52]	@ 0x34
 80022bc:	f3c3 2146 	ubfx	r1, r3, #9, #7
 80022c0:	3a01      	subs	r2, #1
 80022c2:	4291      	cmp	r1, r2
 80022c4:	f47f ae28 	bne.w	8001f18 <HAL_RCC_OscConfig+0xdc>
 80022c8:	6ba2      	ldr	r2, [r4, #56]	@ 0x38
 80022ca:	f3c3 4106 	ubfx	r1, r3, #16, #7
 80022ce:	3a01      	subs	r2, #1
 80022d0:	4291      	cmp	r1, r2
 80022d2:	f47f ae21 	bne.w	8001f18 <HAL_RCC_OscConfig+0xdc>
 80022d6:	6be2      	ldr	r2, [r4, #60]	@ 0x3c
 80022d8:	f3c3 6306 	ubfx	r3, r3, #24, #7
 80022dc:	3a01      	subs	r2, #1
 80022de:	4293      	cmp	r3, r2
 80022e0:	f47f ae1a 	bne.w	8001f18 <HAL_RCC_OscConfig+0xdc>
 80022e4:	6b6b      	ldr	r3, [r5, #52]	@ 0x34
 80022e6:	6ca2      	ldr	r2, [r4, #72]	@ 0x48
 80022e8:	f3c3 03cc 	ubfx	r3, r3, #3, #13
 80022ec:	429a      	cmp	r2, r3
 80022ee:	f43f adfe 	beq.w	8001eee <HAL_RCC_OscConfig+0xb2>
 80022f2:	4d0c      	ldr	r5, [pc, #48]	@ (8002324 <HAL_RCC_OscConfig+0x4e8>)
 80022f4:	6aeb      	ldr	r3, [r5, #44]	@ 0x2c
 80022f6:	f023 0301 	bic.w	r3, r3, #1
 80022fa:	62eb      	str	r3, [r5, #44]	@ 0x2c
 80022fc:	f7ff fa24 	bl	8001748 <HAL_GetTick>
 8002300:	4606      	mov	r6, r0
 8002302:	f7ff fa21 	bl	8001748 <HAL_GetTick>
 8002306:	42b0      	cmp	r0, r6
 8002308:	d0fb      	beq.n	8002302 <HAL_RCC_OscConfig+0x4c6>
 800230a:	6b6b      	ldr	r3, [r5, #52]	@ 0x34
 800230c:	6ca2      	ldr	r2, [r4, #72]	@ 0x48
 800230e:	f36f 03cf 	bfc	r3, #3, #13
 8002312:	ea43 03c2 	orr.w	r3, r3, r2, lsl #3
 8002316:	636b      	str	r3, [r5, #52]	@ 0x34
 8002318:	6aeb      	ldr	r3, [r5, #44]	@ 0x2c
 800231a:	f043 0301 	orr.w	r3, r3, #1
 800231e:	62eb      	str	r3, [r5, #44]	@ 0x2c
 8002320:	e5e5      	b.n	8001eee <HAL_RCC_OscConfig+0xb2>
 8002322:	bf00      	nop
 8002324:	58024400 	.word	0x58024400

08002328 <HAL_RCC_GetSysClockFreq>:
 8002328:	4b49      	ldr	r3, [pc, #292]	@ (8002450 <HAL_RCC_GetSysClockFreq+0x128>)
 800232a:	691a      	ldr	r2, [r3, #16]
 800232c:	f002 0238 	and.w	r2, r2, #56	@ 0x38
 8002330:	2a10      	cmp	r2, #16
 8002332:	b530      	push	{r4, r5, lr}
 8002334:	f000 8088 	beq.w	8002448 <HAL_RCC_GetSysClockFreq+0x120>
 8002338:	2a18      	cmp	r2, #24
 800233a:	d00c      	beq.n	8002356 <HAL_RCC_GetSysClockFreq+0x2e>
 800233c:	2a00      	cmp	r2, #0
 800233e:	f040 8085 	bne.w	800244c <HAL_RCC_GetSysClockFreq+0x124>
 8002342:	681a      	ldr	r2, [r3, #0]
 8002344:	4843      	ldr	r0, [pc, #268]	@ (8002454 <HAL_RCC_GetSysClockFreq+0x12c>)
 8002346:	f012 0f20 	tst.w	r2, #32
 800234a:	d003      	beq.n	8002354 <HAL_RCC_GetSysClockFreq+0x2c>
 800234c:	681b      	ldr	r3, [r3, #0]
 800234e:	f3c3 03c1 	ubfx	r3, r3, #3, #2
 8002352:	40d8      	lsrs	r0, r3
 8002354:	bd30      	pop	{r4, r5, pc}
 8002356:	6a99      	ldr	r1, [r3, #40]	@ 0x28
 8002358:	6a9d      	ldr	r5, [r3, #40]	@ 0x28
 800235a:	6adc      	ldr	r4, [r3, #44]	@ 0x2c
 800235c:	f415 7f7c 	tst.w	r5, #1008	@ 0x3f0
 8002360:	f3c5 1005 	ubfx	r0, r5, #4, #6
 8002364:	6b5a      	ldr	r2, [r3, #52]	@ 0x34
 8002366:	d0f5      	beq.n	8002354 <HAL_RCC_GetSysClockFreq+0x2c>
 8002368:	f3c2 02cc 	ubfx	r2, r2, #3, #13
 800236c:	f004 0401 	and.w	r4, r4, #1
 8002370:	f001 0103 	and.w	r1, r1, #3
 8002374:	ee07 0a90 	vmov	s15, r0
 8002378:	4362      	muls	r2, r4
 800237a:	eeb7 6a00 	vmov.f32	s12, #112	@ 0x3f800000  1.0
 800237e:	2901      	cmp	r1, #1
 8002380:	eeb8 7ae7 	vcvt.f32.s32	s14, s15
 8002384:	ee06 2a90 	vmov	s13, r2
 8002388:	eefa 6ae9 	vcvt.f32.s32	s13, s13, #13
 800238c:	d04e      	beq.n	800242c <HAL_RCC_GetSysClockFreq+0x104>
 800238e:	2902      	cmp	r1, #2
 8002390:	d03e      	beq.n	8002410 <HAL_RCC_GetSysClockFreq+0xe8>
 8002392:	2900      	cmp	r1, #0
 8002394:	d14a      	bne.n	800242c <HAL_RCC_GetSysClockFreq+0x104>
 8002396:	681a      	ldr	r2, [r3, #0]
 8002398:	0692      	lsls	r2, r2, #26
 800239a:	d527      	bpl.n	80023ec <HAL_RCC_GetSysClockFreq+0xc4>
 800239c:	6819      	ldr	r1, [r3, #0]
 800239e:	4a2d      	ldr	r2, [pc, #180]	@ (8002454 <HAL_RCC_GetSysClockFreq+0x12c>)
 80023a0:	f3c1 01c1 	ubfx	r1, r1, #3, #2
 80023a4:	6b1b      	ldr	r3, [r3, #48]	@ 0x30
 80023a6:	40ca      	lsrs	r2, r1
 80023a8:	f3c3 0308 	ubfx	r3, r3, #0, #9
 80023ac:	ee07 2a90 	vmov	s15, r2
 80023b0:	eef8 5ae7 	vcvt.f32.s32	s11, s15
 80023b4:	eec5 7a87 	vdiv.f32	s15, s11, s14
 80023b8:	ee07 3a10 	vmov	s14, r3
 80023bc:	eeb8 7ac7 	vcvt.f32.s32	s14, s14
 80023c0:	ee37 7a26 	vadd.f32	s14, s14, s13
 80023c4:	ee37 7a06 	vadd.f32	s14, s14, s12
 80023c8:	ee67 7a87 	vmul.f32	s15, s15, s14
 80023cc:	4b20      	ldr	r3, [pc, #128]	@ (8002450 <HAL_RCC_GetSysClockFreq+0x128>)
 80023ce:	6b1b      	ldr	r3, [r3, #48]	@ 0x30
 80023d0:	f3c3 2346 	ubfx	r3, r3, #9, #7
 80023d4:	3301      	adds	r3, #1
 80023d6:	ee07 3a10 	vmov	s14, r3
 80023da:	eef8 6ac7 	vcvt.f32.s32	s13, s14
 80023de:	ee87 7aa6 	vdiv.f32	s14, s15, s13
 80023e2:	eefc 7ac7 	vcvt.u32.f32	s15, s14
 80023e6:	ee17 0a90 	vmov	r0, s15
 80023ea:	e7b3      	b.n	8002354 <HAL_RCC_GetSysClockFreq+0x2c>
 80023ec:	6b1b      	ldr	r3, [r3, #48]	@ 0x30
 80023ee:	f3c3 0308 	ubfx	r3, r3, #0, #9
 80023f2:	ee07 3a90 	vmov	s15, r3
 80023f6:	eef8 7ae7 	vcvt.f32.s32	s15, s15
 80023fa:	ee77 7aa6 	vadd.f32	s15, s15, s13
 80023fe:	ee77 7a86 	vadd.f32	s15, s15, s12
 8002402:	ed9f 6a15 	vldr	s12, [pc, #84]	@ 8002458 <HAL_RCC_GetSysClockFreq+0x130>
 8002406:	eec6 6a07 	vdiv.f32	s13, s12, s14
 800240a:	ee67 7aa6 	vmul.f32	s15, s15, s13
 800240e:	e7dd      	b.n	80023cc <HAL_RCC_GetSysClockFreq+0xa4>
 8002410:	6b1b      	ldr	r3, [r3, #48]	@ 0x30
 8002412:	f3c3 0308 	ubfx	r3, r3, #0, #9
 8002416:	ee07 3a90 	vmov	s15, r3
 800241a:	eef8 7ae7 	vcvt.f32.s32	s15, s15
 800241e:	ee77 7aa6 	vadd.f32	s15, s15, s13
 8002422:	ee77 7a86 	vadd.f32	s15, s15, s12
 8002426:	ed9f 6a0d 	vldr	s12, [pc, #52]	@ 800245c <HAL_RCC_GetSysClockFreq+0x134>
 800242a:	e7ec      	b.n	8002406 <HAL_RCC_GetSysClockFreq+0xde>
 800242c:	6b1b      	ldr	r3, [r3, #48]	@ 0x30
 800242e:	f3c3 0308 	ubfx	r3, r3, #0, #9
 8002432:	ee07 3a90 	vmov	s15, r3
 8002436:	eef8 7ae7 	vcvt.f32.s32	s15, s15
 800243a:	ee77 7aa6 	vadd.f32	s15, s15, s13
 800243e:	ee77 7a86 	vadd.f32	s15, s15, s12
 8002442:	ed9f 6a07 	vldr	s12, [pc, #28]	@ 8002460 <HAL_RCC_GetSysClockFreq+0x138>
 8002446:	e7de      	b.n	8002406 <HAL_RCC_GetSysClockFreq+0xde>
 8002448:	4806      	ldr	r0, [pc, #24]	@ (8002464 <HAL_RCC_GetSysClockFreq+0x13c>)
 800244a:	e783      	b.n	8002354 <HAL_RCC_GetSysClockFreq+0x2c>
 800244c:	4806      	ldr	r0, [pc, #24]	@ (8002468 <HAL_RCC_GetSysClockFreq+0x140>)
 800244e:	e781      	b.n	8002354 <HAL_RCC_GetSysClockFreq+0x2c>
 8002450:	58024400 	.word	0x58024400
 8002454:	03d09000 	.word	0x03d09000
 8002458:	4c742400 	.word	0x4c742400
 800245c:	4bbebc20 	.word	0x4bbebc20
 8002460:	4a742400 	.word	0x4a742400
 8002464:	017d7840 	.word	0x017d7840
 8002468:	003d0900 	.word	0x003d0900

0800246c <HAL_RCC_ClockConfig>:
 800246c:	e92d 41f0 	stmdb	sp!, {r4, r5, r6, r7, r8, lr}
 8002470:	460d      	mov	r5, r1
 8002472:	4604      	mov	r4, r0
 8002474:	b910      	cbnz	r0, 800247c <HAL_RCC_ClockConfig+0x10>
 8002476:	2001      	movs	r0, #1
 8002478:	e8bd 81f0 	ldmia.w	sp!, {r4, r5, r6, r7, r8, pc}
 800247c:	4a88      	ldr	r2, [pc, #544]	@ (80026a0 <HAL_RCC_ClockConfig+0x234>)
 800247e:	6813      	ldr	r3, [r2, #0]
 8002480:	f003 030f 	and.w	r3, r3, #15
 8002484:	428b      	cmp	r3, r1
 8002486:	f0c0 8093 	bcc.w	80025b0 <HAL_RCC_ClockConfig+0x144>
 800248a:	6823      	ldr	r3, [r4, #0]
 800248c:	075f      	lsls	r7, r3, #29
 800248e:	f100 809b 	bmi.w	80025c8 <HAL_RCC_ClockConfig+0x15c>
 8002492:	071e      	lsls	r6, r3, #28
 8002494:	d50b      	bpl.n	80024ae <HAL_RCC_ClockConfig+0x42>
 8002496:	4983      	ldr	r1, [pc, #524]	@ (80026a4 <HAL_RCC_ClockConfig+0x238>)
 8002498:	6960      	ldr	r0, [r4, #20]
 800249a:	69ca      	ldr	r2, [r1, #28]
 800249c:	f002 0270 	and.w	r2, r2, #112	@ 0x70
 80024a0:	4290      	cmp	r0, r2
 80024a2:	d904      	bls.n	80024ae <HAL_RCC_ClockConfig+0x42>
 80024a4:	69ca      	ldr	r2, [r1, #28]
 80024a6:	f022 0270 	bic.w	r2, r2, #112	@ 0x70
 80024aa:	4302      	orrs	r2, r0
 80024ac:	61ca      	str	r2, [r1, #28]
 80024ae:	06d8      	lsls	r0, r3, #27
 80024b0:	d50b      	bpl.n	80024ca <HAL_RCC_ClockConfig+0x5e>
 80024b2:	497c      	ldr	r1, [pc, #496]	@ (80026a4 <HAL_RCC_ClockConfig+0x238>)
 80024b4:	69a0      	ldr	r0, [r4, #24]
 80024b6:	69ca      	ldr	r2, [r1, #28]
 80024b8:	f402 62e0 	and.w	r2, r2, #1792	@ 0x700
 80024bc:	4290      	cmp	r0, r2
 80024be:	d904      	bls.n	80024ca <HAL_RCC_ClockConfig+0x5e>
 80024c0:	69ca      	ldr	r2, [r1, #28]
 80024c2:	f422 62e0 	bic.w	r2, r2, #1792	@ 0x700
 80024c6:	4302      	orrs	r2, r0
 80024c8:	61ca      	str	r2, [r1, #28]
 80024ca:	0699      	lsls	r1, r3, #26
 80024cc:	d50b      	bpl.n	80024e6 <HAL_RCC_ClockConfig+0x7a>
 80024ce:	4975      	ldr	r1, [pc, #468]	@ (80026a4 <HAL_RCC_ClockConfig+0x238>)
 80024d0:	69e0      	ldr	r0, [r4, #28]
 80024d2:	6a0a      	ldr	r2, [r1, #32]
 80024d4:	f002 0270 	and.w	r2, r2, #112	@ 0x70
 80024d8:	4290      	cmp	r0, r2
 80024da:	d904      	bls.n	80024e6 <HAL_RCC_ClockConfig+0x7a>
 80024dc:	6a0a      	ldr	r2, [r1, #32]
 80024de:	f022 0270 	bic.w	r2, r2, #112	@ 0x70
 80024e2:	4302      	orrs	r2, r0
 80024e4:	620a      	str	r2, [r1, #32]
 80024e6:	079a      	lsls	r2, r3, #30
 80024e8:	d50b      	bpl.n	8002502 <HAL_RCC_ClockConfig+0x96>
 80024ea:	496e      	ldr	r1, [pc, #440]	@ (80026a4 <HAL_RCC_ClockConfig+0x238>)
 80024ec:	68e0      	ldr	r0, [r4, #12]
 80024ee:	698a      	ldr	r2, [r1, #24]
 80024f0:	f002 020f 	and.w	r2, r2, #15
 80024f4:	4290      	cmp	r0, r2
 80024f6:	d904      	bls.n	8002502 <HAL_RCC_ClockConfig+0x96>
 80024f8:	698a      	ldr	r2, [r1, #24]
 80024fa:	f022 020f 	bic.w	r2, r2, #15
 80024fe:	4302      	orrs	r2, r0
 8002500:	618a      	str	r2, [r1, #24]
 8002502:	07df      	lsls	r7, r3, #31
 8002504:	d46e      	bmi.n	80025e4 <HAL_RCC_ClockConfig+0x178>
 8002506:	6823      	ldr	r3, [r4, #0]
 8002508:	079e      	lsls	r6, r3, #30
 800250a:	f100 80a1 	bmi.w	8002650 <HAL_RCC_ClockConfig+0x1e4>
 800250e:	4964      	ldr	r1, [pc, #400]	@ (80026a0 <HAL_RCC_ClockConfig+0x234>)
 8002510:	680a      	ldr	r2, [r1, #0]
 8002512:	f002 020f 	and.w	r2, r2, #15
 8002516:	42aa      	cmp	r2, r5
 8002518:	f200 80a8 	bhi.w	800266c <HAL_RCC_ClockConfig+0x200>
 800251c:	0758      	lsls	r0, r3, #29
 800251e:	f100 80b1 	bmi.w	8002684 <HAL_RCC_ClockConfig+0x218>
 8002522:	0719      	lsls	r1, r3, #28
 8002524:	d50b      	bpl.n	800253e <HAL_RCC_ClockConfig+0xd2>
 8002526:	495f      	ldr	r1, [pc, #380]	@ (80026a4 <HAL_RCC_ClockConfig+0x238>)
 8002528:	6960      	ldr	r0, [r4, #20]
 800252a:	69ca      	ldr	r2, [r1, #28]
 800252c:	f002 0270 	and.w	r2, r2, #112	@ 0x70
 8002530:	4290      	cmp	r0, r2
 8002532:	d204      	bcs.n	800253e <HAL_RCC_ClockConfig+0xd2>
 8002534:	69ca      	ldr	r2, [r1, #28]
 8002536:	f022 0270 	bic.w	r2, r2, #112	@ 0x70
 800253a:	4302      	orrs	r2, r0
 800253c:	61ca      	str	r2, [r1, #28]
 800253e:	06da      	lsls	r2, r3, #27
 8002540:	d50b      	bpl.n	800255a <HAL_RCC_ClockConfig+0xee>
 8002542:	4958      	ldr	r1, [pc, #352]	@ (80026a4 <HAL_RCC_ClockConfig+0x238>)
 8002544:	69a0      	ldr	r0, [r4, #24]
 8002546:	69ca      	ldr	r2, [r1, #28]
 8002548:	f402 62e0 	and.w	r2, r2, #1792	@ 0x700
 800254c:	4290      	cmp	r0, r2
 800254e:	d204      	bcs.n	800255a <HAL_RCC_ClockConfig+0xee>
 8002550:	69ca      	ldr	r2, [r1, #28]
 8002552:	f422 62e0 	bic.w	r2, r2, #1792	@ 0x700
 8002556:	4302      	orrs	r2, r0
 8002558:	61ca      	str	r2, [r1, #28]
 800255a:	069b      	lsls	r3, r3, #26
 800255c:	d50b      	bpl.n	8002576 <HAL_RCC_ClockConfig+0x10a>
 800255e:	4a51      	ldr	r2, [pc, #324]	@ (80026a4 <HAL_RCC_ClockConfig+0x238>)
 8002560:	69e1      	ldr	r1, [r4, #28]
 8002562:	6a13      	ldr	r3, [r2, #32]
 8002564:	f003 0370 	and.w	r3, r3, #112	@ 0x70
 8002568:	4299      	cmp	r1, r3
 800256a:	d204      	bcs.n	8002576 <HAL_RCC_ClockConfig+0x10a>
 800256c:	6a13      	ldr	r3, [r2, #32]
 800256e:	f023 0370 	bic.w	r3, r3, #112	@ 0x70
 8002572:	430b      	orrs	r3, r1
 8002574:	6213      	str	r3, [r2, #32]
 8002576:	f7ff fed7 	bl	8002328 <HAL_RCC_GetSysClockFreq>
 800257a:	494a      	ldr	r1, [pc, #296]	@ (80026a4 <HAL_RCC_ClockConfig+0x238>)
 800257c:	4a4a      	ldr	r2, [pc, #296]	@ (80026a8 <HAL_RCC_ClockConfig+0x23c>)
 800257e:	698b      	ldr	r3, [r1, #24]
 8002580:	f3c3 2303 	ubfx	r3, r3, #8, #4
 8002584:	5cd3      	ldrb	r3, [r2, r3]
 8002586:	f003 031f 	and.w	r3, r3, #31
 800258a:	40d8      	lsrs	r0, r3
 800258c:	698b      	ldr	r3, [r1, #24]
 800258e:	f003 030f 	and.w	r3, r3, #15
 8002592:	5cd3      	ldrb	r3, [r2, r3]
 8002594:	4a45      	ldr	r2, [pc, #276]	@ (80026ac <HAL_RCC_ClockConfig+0x240>)
 8002596:	f003 031f 	and.w	r3, r3, #31
 800259a:	fa20 f303 	lsr.w	r3, r0, r3
 800259e:	6013      	str	r3, [r2, #0]
 80025a0:	4b43      	ldr	r3, [pc, #268]	@ (80026b0 <HAL_RCC_ClockConfig+0x244>)
 80025a2:	6018      	str	r0, [r3, #0]
 80025a4:	4b43      	ldr	r3, [pc, #268]	@ (80026b4 <HAL_RCC_ClockConfig+0x248>)
 80025a6:	e8bd 41f0 	ldmia.w	sp!, {r4, r5, r6, r7, r8, lr}
 80025aa:	6818      	ldr	r0, [r3, #0]
 80025ac:	f7fe bf42 	b.w	8001434 <HAL_InitTick>
 80025b0:	6813      	ldr	r3, [r2, #0]
 80025b2:	f023 030f 	bic.w	r3, r3, #15
 80025b6:	430b      	orrs	r3, r1
 80025b8:	6013      	str	r3, [r2, #0]
 80025ba:	6813      	ldr	r3, [r2, #0]
 80025bc:	f003 030f 	and.w	r3, r3, #15
 80025c0:	428b      	cmp	r3, r1
 80025c2:	f47f af58 	bne.w	8002476 <HAL_RCC_ClockConfig+0xa>
 80025c6:	e760      	b.n	800248a <HAL_RCC_ClockConfig+0x1e>
 80025c8:	4936      	ldr	r1, [pc, #216]	@ (80026a4 <HAL_RCC_ClockConfig+0x238>)
 80025ca:	6920      	ldr	r0, [r4, #16]
 80025cc:	698a      	ldr	r2, [r1, #24]
 80025ce:	f002 0270 	and.w	r2, r2, #112	@ 0x70
 80025d2:	4290      	cmp	r0, r2
 80025d4:	f67f af5d 	bls.w	8002492 <HAL_RCC_ClockConfig+0x26>
 80025d8:	698a      	ldr	r2, [r1, #24]
 80025da:	f022 0270 	bic.w	r2, r2, #112	@ 0x70
 80025de:	4302      	orrs	r2, r0
 80025e0:	618a      	str	r2, [r1, #24]
 80025e2:	e756      	b.n	8002492 <HAL_RCC_ClockConfig+0x26>
 80025e4:	4b2f      	ldr	r3, [pc, #188]	@ (80026a4 <HAL_RCC_ClockConfig+0x238>)
 80025e6:	68a1      	ldr	r1, [r4, #8]
 80025e8:	699a      	ldr	r2, [r3, #24]
 80025ea:	f422 6270 	bic.w	r2, r2, #3840	@ 0xf00
 80025ee:	430a      	orrs	r2, r1
 80025f0:	619a      	str	r2, [r3, #24]
 80025f2:	6861      	ldr	r1, [r4, #4]
 80025f4:	681a      	ldr	r2, [r3, #0]
 80025f6:	2902      	cmp	r1, #2
 80025f8:	d11d      	bne.n	8002636 <HAL_RCC_ClockConfig+0x1ca>
 80025fa:	f412 3f00 	tst.w	r2, #131072	@ 0x20000
 80025fe:	f43f af3a 	beq.w	8002476 <HAL_RCC_ClockConfig+0xa>
 8002602:	691a      	ldr	r2, [r3, #16]
 8002604:	f241 3888 	movw	r8, #5000	@ 0x1388
 8002608:	4f26      	ldr	r7, [pc, #152]	@ (80026a4 <HAL_RCC_ClockConfig+0x238>)
 800260a:	f022 0207 	bic.w	r2, r2, #7
 800260e:	430a      	orrs	r2, r1
 8002610:	611a      	str	r2, [r3, #16]
 8002612:	f7ff f899 	bl	8001748 <HAL_GetTick>
 8002616:	4606      	mov	r6, r0
 8002618:	693b      	ldr	r3, [r7, #16]
 800261a:	6862      	ldr	r2, [r4, #4]
 800261c:	f003 0338 	and.w	r3, r3, #56	@ 0x38
 8002620:	ebb3 0fc2 	cmp.w	r3, r2, lsl #3
 8002624:	f43f af6f 	beq.w	8002506 <HAL_RCC_ClockConfig+0x9a>
 8002628:	f7ff f88e 	bl	8001748 <HAL_GetTick>
 800262c:	1b80      	subs	r0, r0, r6
 800262e:	4540      	cmp	r0, r8
 8002630:	d9f2      	bls.n	8002618 <HAL_RCC_ClockConfig+0x1ac>
 8002632:	2003      	movs	r0, #3
 8002634:	e720      	b.n	8002478 <HAL_RCC_ClockConfig+0xc>
 8002636:	2903      	cmp	r1, #3
 8002638:	d102      	bne.n	8002640 <HAL_RCC_ClockConfig+0x1d4>
 800263a:	f012 7f00 	tst.w	r2, #33554432	@ 0x2000000
 800263e:	e7de      	b.n	80025fe <HAL_RCC_ClockConfig+0x192>
 8002640:	2901      	cmp	r1, #1
 8002642:	d102      	bne.n	800264a <HAL_RCC_ClockConfig+0x1de>
 8002644:	f412 7f80 	tst.w	r2, #256	@ 0x100
 8002648:	e7d9      	b.n	80025fe <HAL_RCC_ClockConfig+0x192>
 800264a:	f012 0f04 	tst.w	r2, #4
 800264e:	e7d6      	b.n	80025fe <HAL_RCC_ClockConfig+0x192>
 8002650:	4914      	ldr	r1, [pc, #80]	@ (80026a4 <HAL_RCC_ClockConfig+0x238>)
 8002652:	68e0      	ldr	r0, [r4, #12]
 8002654:	698a      	ldr	r2, [r1, #24]
 8002656:	f002 020f 	and.w	r2, r2, #15
 800265a:	4290      	cmp	r0, r2
 800265c:	f4bf af57 	bcs.w	800250e <HAL_RCC_ClockConfig+0xa2>
 8002660:	698a      	ldr	r2, [r1, #24]
 8002662:	f022 020f 	bic.w	r2, r2, #15
 8002666:	4302      	orrs	r2, r0
 8002668:	618a      	str	r2, [r1, #24]
 800266a:	e750      	b.n	800250e <HAL_RCC_ClockConfig+0xa2>
 800266c:	680a      	ldr	r2, [r1, #0]
 800266e:	f022 020f 	bic.w	r2, r2, #15
 8002672:	432a      	orrs	r2, r5
 8002674:	600a      	str	r2, [r1, #0]
 8002676:	680a      	ldr	r2, [r1, #0]
 8002678:	f002 020f 	and.w	r2, r2, #15
 800267c:	42aa      	cmp	r2, r5
 800267e:	f47f aefa 	bne.w	8002476 <HAL_RCC_ClockConfig+0xa>
 8002682:	e74b      	b.n	800251c <HAL_RCC_ClockConfig+0xb0>
 8002684:	4907      	ldr	r1, [pc, #28]	@ (80026a4 <HAL_RCC_ClockConfig+0x238>)
 8002686:	6920      	ldr	r0, [r4, #16]
 8002688:	698a      	ldr	r2, [r1, #24]
 800268a:	f002 0270 	and.w	r2, r2, #112	@ 0x70
 800268e:	4290      	cmp	r0, r2
 8002690:	f4bf af47 	bcs.w	8002522 <HAL_RCC_ClockConfig+0xb6>
 8002694:	698a      	ldr	r2, [r1, #24]
 8002696:	f022 0270 	bic.w	r2, r2, #112	@ 0x70
 800269a:	4302      	orrs	r2, r0
 800269c:	618a      	str	r2, [r1, #24]
 800269e:	e740      	b.n	8002522 <HAL_RCC_ClockConfig+0xb6>
 80026a0:	52002000 	.word	0x52002000
 80026a4:	58024400 	.word	0x58024400
 80026a8:	0800902e 	.word	0x0800902e
 80026ac:	24000000 	.word	0x24000000
 80026b0:	24000004 	.word	0x24000004
 80026b4:	2400000c 	.word	0x2400000c

080026b8 <HAL_RCC_GetHCLKFreq>:
 80026b8:	b508      	push	{r3, lr}
 80026ba:	f7ff fe35 	bl	8002328 <HAL_RCC_GetSysClockFreq>
 80026be:	4a0b      	ldr	r2, [pc, #44]	@ (80026ec <HAL_RCC_GetHCLKFreq+0x34>)
 80026c0:	490b      	ldr	r1, [pc, #44]	@ (80026f0 <HAL_RCC_GetHCLKFreq+0x38>)
 80026c2:	6993      	ldr	r3, [r2, #24]
 80026c4:	6992      	ldr	r2, [r2, #24]
 80026c6:	f3c3 2303 	ubfx	r3, r3, #8, #4
 80026ca:	f002 020f 	and.w	r2, r2, #15
 80026ce:	5ccb      	ldrb	r3, [r1, r3]
 80026d0:	f003 031f 	and.w	r3, r3, #31
 80026d4:	fa20 f303 	lsr.w	r3, r0, r3
 80026d8:	5c88      	ldrb	r0, [r1, r2]
 80026da:	4a06      	ldr	r2, [pc, #24]	@ (80026f4 <HAL_RCC_GetHCLKFreq+0x3c>)
 80026dc:	f000 001f 	and.w	r0, r0, #31
 80026e0:	fa23 f000 	lsr.w	r0, r3, r0
 80026e4:	6010      	str	r0, [r2, #0]
 80026e6:	4a04      	ldr	r2, [pc, #16]	@ (80026f8 <HAL_RCC_GetHCLKFreq+0x40>)
 80026e8:	6013      	str	r3, [r2, #0]
 80026ea:	bd08      	pop	{r3, pc}
 80026ec:	58024400 	.word	0x58024400
 80026f0:	0800902e 	.word	0x0800902e
 80026f4:	24000000 	.word	0x24000000
 80026f8:	24000004 	.word	0x24000004

080026fc <HAL_RCC_GetPCLK1Freq>:
 80026fc:	b508      	push	{r3, lr}
 80026fe:	f7ff ffdb 	bl	80026b8 <HAL_RCC_GetHCLKFreq>
 8002702:	4b05      	ldr	r3, [pc, #20]	@ (8002718 <HAL_RCC_GetPCLK1Freq+0x1c>)
 8002704:	4a05      	ldr	r2, [pc, #20]	@ (800271c <HAL_RCC_GetPCLK1Freq+0x20>)
 8002706:	69db      	ldr	r3, [r3, #28]
 8002708:	f3c3 1302 	ubfx	r3, r3, #4, #3
 800270c:	5cd3      	ldrb	r3, [r2, r3]
 800270e:	f003 031f 	and.w	r3, r3, #31
 8002712:	40d8      	lsrs	r0, r3
 8002714:	bd08      	pop	{r3, pc}
 8002716:	bf00      	nop
 8002718:	58024400 	.word	0x58024400
 800271c:	0800902e 	.word	0x0800902e

08002720 <HAL_RCC_GetPCLK2Freq>:
 8002720:	b508      	push	{r3, lr}
 8002722:	f7ff ffc9 	bl	80026b8 <HAL_RCC_GetHCLKFreq>
 8002726:	4b05      	ldr	r3, [pc, #20]	@ (800273c <HAL_RCC_GetPCLK2Freq+0x1c>)
 8002728:	4a05      	ldr	r2, [pc, #20]	@ (8002740 <HAL_RCC_GetPCLK2Freq+0x20>)
 800272a:	69db      	ldr	r3, [r3, #28]
 800272c:	f3c3 2302 	ubfx	r3, r3, #8, #3
 8002730:	5cd3      	ldrb	r3, [r2, r3]
 8002732:	f003 031f 	and.w	r3, r3, #31
 8002736:	40d8      	lsrs	r0, r3
 8002738:	bd08      	pop	{r3, pc}
 800273a:	bf00      	nop
 800273c:	58024400 	.word	0x58024400
 8002740:	0800902e 	.word	0x0800902e

08002744 <HAL_RCC_GetClockConfig>:
 8002744:	233f      	movs	r3, #63	@ 0x3f
 8002746:	6003      	str	r3, [r0, #0]
 8002748:	4b11      	ldr	r3, [pc, #68]	@ (8002790 <HAL_RCC_GetClockConfig+0x4c>)
 800274a:	691a      	ldr	r2, [r3, #16]
 800274c:	f002 0207 	and.w	r2, r2, #7
 8002750:	6042      	str	r2, [r0, #4]
 8002752:	699a      	ldr	r2, [r3, #24]
 8002754:	f402 6270 	and.w	r2, r2, #3840	@ 0xf00
 8002758:	6082      	str	r2, [r0, #8]
 800275a:	699a      	ldr	r2, [r3, #24]
 800275c:	f002 020f 	and.w	r2, r2, #15
 8002760:	60c2      	str	r2, [r0, #12]
 8002762:	699a      	ldr	r2, [r3, #24]
 8002764:	f002 0270 	and.w	r2, r2, #112	@ 0x70
 8002768:	6102      	str	r2, [r0, #16]
 800276a:	69da      	ldr	r2, [r3, #28]
 800276c:	f002 0270 	and.w	r2, r2, #112	@ 0x70
 8002770:	6142      	str	r2, [r0, #20]
 8002772:	69da      	ldr	r2, [r3, #28]
 8002774:	f402 62e0 	and.w	r2, r2, #1792	@ 0x700
 8002778:	6182      	str	r2, [r0, #24]
 800277a:	6a1b      	ldr	r3, [r3, #32]
 800277c:	f003 0370 	and.w	r3, r3, #112	@ 0x70
 8002780:	61c3      	str	r3, [r0, #28]
 8002782:	4b04      	ldr	r3, [pc, #16]	@ (8002794 <HAL_RCC_GetClockConfig+0x50>)
 8002784:	681b      	ldr	r3, [r3, #0]
 8002786:	f003 030f 	and.w	r3, r3, #15
 800278a:	600b      	str	r3, [r1, #0]
 800278c:	4770      	bx	lr
 800278e:	bf00      	nop
 8002790:	58024400 	.word	0x58024400
 8002794:	52002000 	.word	0x52002000

08002798 <RCCEx_PLL2_Config>:
 8002798:	b5f8      	push	{r3, r4, r5, r6, r7, lr}
 800279a:	4c39      	ldr	r4, [pc, #228]	@ (8002880 <RCCEx_PLL2_Config+0xe8>)
 800279c:	4606      	mov	r6, r0
 800279e:	460d      	mov	r5, r1
 80027a0:	6aa3      	ldr	r3, [r4, #40]	@ 0x28
 80027a2:	f003 0303 	and.w	r3, r3, #3
 80027a6:	2b03      	cmp	r3, #3
 80027a8:	d067      	beq.n	800287a <RCCEx_PLL2_Config+0xe2>
 80027aa:	6823      	ldr	r3, [r4, #0]
 80027ac:	f023 6380 	bic.w	r3, r3, #67108864	@ 0x4000000
 80027b0:	6023      	str	r3, [r4, #0]
 80027b2:	f7fe ffc9 	bl	8001748 <HAL_GetTick>
 80027b6:	4607      	mov	r7, r0
 80027b8:	6823      	ldr	r3, [r4, #0]
 80027ba:	011a      	lsls	r2, r3, #4
 80027bc:	d449      	bmi.n	8002852 <RCCEx_PLL2_Config+0xba>
 80027be:	6aa3      	ldr	r3, [r4, #40]	@ 0x28
 80027c0:	6832      	ldr	r2, [r6, #0]
 80027c2:	f423 337c 	bic.w	r3, r3, #258048	@ 0x3f000
 80027c6:	ea43 3302 	orr.w	r3, r3, r2, lsl #12
 80027ca:	62a3      	str	r3, [r4, #40]	@ 0x28
 80027cc:	68b3      	ldr	r3, [r6, #8]
 80027ce:	68f2      	ldr	r2, [r6, #12]
 80027d0:	3b01      	subs	r3, #1
 80027d2:	3a01      	subs	r2, #1
 80027d4:	025b      	lsls	r3, r3, #9
 80027d6:	0412      	lsls	r2, r2, #16
 80027d8:	b29b      	uxth	r3, r3
 80027da:	f402 02fe 	and.w	r2, r2, #8323072	@ 0x7f0000
 80027de:	4313      	orrs	r3, r2
 80027e0:	6872      	ldr	r2, [r6, #4]
 80027e2:	3a01      	subs	r2, #1
 80027e4:	f3c2 0208 	ubfx	r2, r2, #0, #9
 80027e8:	4313      	orrs	r3, r2
 80027ea:	6932      	ldr	r2, [r6, #16]
 80027ec:	3a01      	subs	r2, #1
 80027ee:	0612      	lsls	r2, r2, #24
 80027f0:	f002 42fe 	and.w	r2, r2, #2130706432	@ 0x7f000000
 80027f4:	4313      	orrs	r3, r2
 80027f6:	63a3      	str	r3, [r4, #56]	@ 0x38
 80027f8:	6ae3      	ldr	r3, [r4, #44]	@ 0x2c
 80027fa:	6972      	ldr	r2, [r6, #20]
 80027fc:	f023 03c0 	bic.w	r3, r3, #192	@ 0xc0
 8002800:	4313      	orrs	r3, r2
 8002802:	62e3      	str	r3, [r4, #44]	@ 0x2c
 8002804:	6ae3      	ldr	r3, [r4, #44]	@ 0x2c
 8002806:	69b2      	ldr	r2, [r6, #24]
 8002808:	f023 0320 	bic.w	r3, r3, #32
 800280c:	4313      	orrs	r3, r2
 800280e:	62e3      	str	r3, [r4, #44]	@ 0x2c
 8002810:	6ae3      	ldr	r3, [r4, #44]	@ 0x2c
 8002812:	f023 0310 	bic.w	r3, r3, #16
 8002816:	62e3      	str	r3, [r4, #44]	@ 0x2c
 8002818:	6be3      	ldr	r3, [r4, #60]	@ 0x3c
 800281a:	69f2      	ldr	r2, [r6, #28]
 800281c:	f36f 03cf 	bfc	r3, #3, #13
 8002820:	ea43 03c2 	orr.w	r3, r3, r2, lsl #3
 8002824:	63e3      	str	r3, [r4, #60]	@ 0x3c
 8002826:	6ae3      	ldr	r3, [r4, #44]	@ 0x2c
 8002828:	f043 0310 	orr.w	r3, r3, #16
 800282c:	62e3      	str	r3, [r4, #44]	@ 0x2c
 800282e:	6ae3      	ldr	r3, [r4, #44]	@ 0x2c
 8002830:	b9b5      	cbnz	r5, 8002860 <RCCEx_PLL2_Config+0xc8>
 8002832:	f443 2300 	orr.w	r3, r3, #524288	@ 0x80000
 8002836:	62e3      	str	r3, [r4, #44]	@ 0x2c
 8002838:	4c11      	ldr	r4, [pc, #68]	@ (8002880 <RCCEx_PLL2_Config+0xe8>)
 800283a:	6823      	ldr	r3, [r4, #0]
 800283c:	f043 6380 	orr.w	r3, r3, #67108864	@ 0x4000000
 8002840:	6023      	str	r3, [r4, #0]
 8002842:	f7fe ff81 	bl	8001748 <HAL_GetTick>
 8002846:	4605      	mov	r5, r0
 8002848:	6823      	ldr	r3, [r4, #0]
 800284a:	011b      	lsls	r3, r3, #4
 800284c:	d50f      	bpl.n	800286e <RCCEx_PLL2_Config+0xd6>
 800284e:	2000      	movs	r0, #0
 8002850:	e005      	b.n	800285e <RCCEx_PLL2_Config+0xc6>
 8002852:	f7fe ff79 	bl	8001748 <HAL_GetTick>
 8002856:	1bc0      	subs	r0, r0, r7
 8002858:	2802      	cmp	r0, #2
 800285a:	d9ad      	bls.n	80027b8 <RCCEx_PLL2_Config+0x20>
 800285c:	2003      	movs	r0, #3
 800285e:	bdf8      	pop	{r3, r4, r5, r6, r7, pc}
 8002860:	2d01      	cmp	r5, #1
 8002862:	bf0c      	ite	eq
 8002864:	f443 1380 	orreq.w	r3, r3, #1048576	@ 0x100000
 8002868:	f443 1300 	orrne.w	r3, r3, #2097152	@ 0x200000
 800286c:	e7e3      	b.n	8002836 <RCCEx_PLL2_Config+0x9e>
 800286e:	f7fe ff6b 	bl	8001748 <HAL_GetTick>
 8002872:	1b40      	subs	r0, r0, r5
 8002874:	2802      	cmp	r0, #2
 8002876:	d9e7      	bls.n	8002848 <RCCEx_PLL2_Config+0xb0>
 8002878:	e7f0      	b.n	800285c <RCCEx_PLL2_Config+0xc4>
 800287a:	2001      	movs	r0, #1
 800287c:	e7ef      	b.n	800285e <RCCEx_PLL2_Config+0xc6>
 800287e:	bf00      	nop
 8002880:	58024400 	.word	0x58024400

08002884 <RCCEx_PLL3_Config>:
 8002884:	b5f8      	push	{r3, r4, r5, r6, r7, lr}
 8002886:	4c39      	ldr	r4, [pc, #228]	@ (800296c <RCCEx_PLL3_Config+0xe8>)
 8002888:	4606      	mov	r6, r0
 800288a:	460d      	mov	r5, r1
 800288c:	6aa3      	ldr	r3, [r4, #40]	@ 0x28
 800288e:	f003 0303 	and.w	r3, r3, #3
 8002892:	2b03      	cmp	r3, #3
 8002894:	d067      	beq.n	8002966 <RCCEx_PLL3_Config+0xe2>
 8002896:	6823      	ldr	r3, [r4, #0]
 8002898:	f023 5380 	bic.w	r3, r3, #268435456	@ 0x10000000
 800289c:	6023      	str	r3, [r4, #0]
 800289e:	f7fe ff53 	bl	8001748 <HAL_GetTick>
 80028a2:	4607      	mov	r7, r0
 80028a4:	6823      	ldr	r3, [r4, #0]
 80028a6:	009a      	lsls	r2, r3, #2
 80028a8:	d449      	bmi.n	800293e <RCCEx_PLL3_Config+0xba>
 80028aa:	6aa3      	ldr	r3, [r4, #40]	@ 0x28
 80028ac:	6832      	ldr	r2, [r6, #0]
 80028ae:	f023 737c 	bic.w	r3, r3, #66060288	@ 0x3f00000
 80028b2:	ea43 5302 	orr.w	r3, r3, r2, lsl #20
 80028b6:	62a3      	str	r3, [r4, #40]	@ 0x28
 80028b8:	68b3      	ldr	r3, [r6, #8]
 80028ba:	68f2      	ldr	r2, [r6, #12]
 80028bc:	3b01      	subs	r3, #1
 80028be:	3a01      	subs	r2, #1
 80028c0:	025b      	lsls	r3, r3, #9
 80028c2:	0412      	lsls	r2, r2, #16
 80028c4:	b29b      	uxth	r3, r3
 80028c6:	f402 02fe 	and.w	r2, r2, #8323072	@ 0x7f0000
 80028ca:	4313      	orrs	r3, r2
 80028cc:	6872      	ldr	r2, [r6, #4]
 80028ce:	3a01      	subs	r2, #1
 80028d0:	f3c2 0208 	ubfx	r2, r2, #0, #9
 80028d4:	4313      	orrs	r3, r2
 80028d6:	6932      	ldr	r2, [r6, #16]
 80028d8:	3a01      	subs	r2, #1
 80028da:	0612      	lsls	r2, r2, #24
 80028dc:	f002 42fe 	and.w	r2, r2, #2130706432	@ 0x7f000000
 80028e0:	4313      	orrs	r3, r2
 80028e2:	6423      	str	r3, [r4, #64]	@ 0x40
 80028e4:	6ae3      	ldr	r3, [r4, #44]	@ 0x2c
 80028e6:	6972      	ldr	r2, [r6, #20]
 80028e8:	f423 6340 	bic.w	r3, r3, #3072	@ 0xc00
 80028ec:	4313      	orrs	r3, r2
 80028ee:	62e3      	str	r3, [r4, #44]	@ 0x2c
 80028f0:	6ae3      	ldr	r3, [r4, #44]	@ 0x2c
 80028f2:	69b2      	ldr	r2, [r6, #24]
 80028f4:	f423 7300 	bic.w	r3, r3, #512	@ 0x200
 80028f8:	4313      	orrs	r3, r2
 80028fa:	62e3      	str	r3, [r4, #44]	@ 0x2c
 80028fc:	6ae3      	ldr	r3, [r4, #44]	@ 0x2c
 80028fe:	f423 7380 	bic.w	r3, r3, #256	@ 0x100
 8002902:	62e3      	str	r3, [r4, #44]	@ 0x2c
 8002904:	6c63      	ldr	r3, [r4, #68]	@ 0x44
 8002906:	69f2      	ldr	r2, [r6, #28]
 8002908:	f36f 03cf 	bfc	r3, #3, #13
 800290c:	ea43 03c2 	orr.w	r3, r3, r2, lsl #3
 8002910:	6463      	str	r3, [r4, #68]	@ 0x44
 8002912:	6ae3      	ldr	r3, [r4, #44]	@ 0x2c
 8002914:	f443 7380 	orr.w	r3, r3, #256	@ 0x100
 8002918:	62e3      	str	r3, [r4, #44]	@ 0x2c
 800291a:	6ae3      	ldr	r3, [r4, #44]	@ 0x2c
 800291c:	b9b5      	cbnz	r5, 800294c <RCCEx_PLL3_Config+0xc8>
 800291e:	f443 0380 	orr.w	r3, r3, #4194304	@ 0x400000
 8002922:	62e3      	str	r3, [r4, #44]	@ 0x2c
 8002924:	4c11      	ldr	r4, [pc, #68]	@ (800296c <RCCEx_PLL3_Config+0xe8>)
 8002926:	6823      	ldr	r3, [r4, #0]
 8002928:	f043 5380 	orr.w	r3, r3, #268435456	@ 0x10000000
 800292c:	6023      	str	r3, [r4, #0]
 800292e:	f7fe ff0b 	bl	8001748 <HAL_GetTick>
 8002932:	4605      	mov	r5, r0
 8002934:	6823      	ldr	r3, [r4, #0]
 8002936:	009b      	lsls	r3, r3, #2
 8002938:	d50f      	bpl.n	800295a <RCCEx_PLL3_Config+0xd6>
 800293a:	2000      	movs	r0, #0
 800293c:	e005      	b.n	800294a <RCCEx_PLL3_Config+0xc6>
 800293e:	f7fe ff03 	bl	8001748 <HAL_GetTick>
 8002942:	1bc0      	subs	r0, r0, r7
 8002944:	2802      	cmp	r0, #2
 8002946:	d9ad      	bls.n	80028a4 <RCCEx_PLL3_Config+0x20>
 8002948:	2003      	movs	r0, #3
 800294a:	bdf8      	pop	{r3, r4, r5, r6, r7, pc}
 800294c:	2d01      	cmp	r5, #1
 800294e:	bf0c      	ite	eq
 8002950:	f443 0300 	orreq.w	r3, r3, #8388608	@ 0x800000
 8002954:	f043 7380 	orrne.w	r3, r3, #16777216	@ 0x1000000
 8002958:	e7e3      	b.n	8002922 <RCCEx_PLL3_Config+0x9e>
 800295a:	f7fe fef5 	bl	8001748 <HAL_GetTick>
 800295e:	1b40      	subs	r0, r0, r5
 8002960:	2802      	cmp	r0, #2
 8002962:	d9e7      	bls.n	8002934 <RCCEx_PLL3_Config+0xb0>
 8002964:	e7f0      	b.n	8002948 <RCCEx_PLL3_Config+0xc4>
 8002966:	2001      	movs	r0, #1
 8002968:	e7ef      	b.n	800294a <RCCEx_PLL3_Config+0xc6>
 800296a:	bf00      	nop
 800296c:	58024400 	.word	0x58024400

08002970 <HAL_RCCEx_PeriphCLKConfig>:
 8002970:	e92d 43f8 	stmdb	sp!, {r3, r4, r5, r6, r7, r8, r9, lr}
 8002974:	6803      	ldr	r3, [r0, #0]
 8002976:	4605      	mov	r5, r0
 8002978:	011c      	lsls	r4, r3, #4
 800297a:	d51e      	bpl.n	80029ba <HAL_RCCEx_PeriphCLKConfig+0x4a>
 800297c:	6e43      	ldr	r3, [r0, #100]	@ 0x64
 800297e:	f5b3 1f00 	cmp.w	r3, #2097152	@ 0x200000
 8002982:	d02a      	beq.n	80029da <HAL_RCCEx_PeriphCLKConfig+0x6a>
 8002984:	d80f      	bhi.n	80029a6 <HAL_RCCEx_PeriphCLKConfig+0x36>
 8002986:	b1d3      	cbz	r3, 80029be <HAL_RCCEx_PeriphCLKConfig+0x4e>
 8002988:	f5b3 1f80 	cmp.w	r3, #1048576	@ 0x100000
 800298c:	d01d      	beq.n	80029ca <HAL_RCCEx_PeriphCLKConfig+0x5a>
 800298e:	2601      	movs	r6, #1
 8002990:	682b      	ldr	r3, [r5, #0]
 8002992:	05d8      	lsls	r0, r3, #23
 8002994:	d553      	bpl.n	8002a3e <HAL_RCCEx_PeriphCLKConfig+0xce>
 8002996:	6dab      	ldr	r3, [r5, #88]	@ 0x58
 8002998:	2b04      	cmp	r3, #4
 800299a:	d84f      	bhi.n	8002a3c <HAL_RCCEx_PeriphCLKConfig+0xcc>
 800299c:	e8df f003 	tbb	[pc, r3]
 80029a0:	27484122 	.word	0x27484122
 80029a4:	27          	.byte	0x27
 80029a5:	00          	.byte	0x00
 80029a6:	f5b3 1f40 	cmp.w	r3, #3145728	@ 0x300000
 80029aa:	d1f0      	bne.n	800298e <HAL_RCCEx_PeriphCLKConfig+0x1e>
 80029ac:	4a96      	ldr	r2, [pc, #600]	@ (8002c08 <HAL_RCCEx_PeriphCLKConfig+0x298>)
 80029ae:	6e69      	ldr	r1, [r5, #100]	@ 0x64
 80029b0:	6d13      	ldr	r3, [r2, #80]	@ 0x50
 80029b2:	f423 1340 	bic.w	r3, r3, #3145728	@ 0x300000
 80029b6:	430b      	orrs	r3, r1
 80029b8:	6513      	str	r3, [r2, #80]	@ 0x50
 80029ba:	2600      	movs	r6, #0
 80029bc:	e7e8      	b.n	8002990 <HAL_RCCEx_PeriphCLKConfig+0x20>
 80029be:	4a92      	ldr	r2, [pc, #584]	@ (8002c08 <HAL_RCCEx_PeriphCLKConfig+0x298>)
 80029c0:	6ad3      	ldr	r3, [r2, #44]	@ 0x2c
 80029c2:	f443 3300 	orr.w	r3, r3, #131072	@ 0x20000
 80029c6:	62d3      	str	r3, [r2, #44]	@ 0x2c
 80029c8:	e7f0      	b.n	80029ac <HAL_RCCEx_PeriphCLKConfig+0x3c>
 80029ca:	2102      	movs	r1, #2
 80029cc:	3008      	adds	r0, #8
 80029ce:	f7ff fee3 	bl	8002798 <RCCEx_PLL2_Config>
 80029d2:	4606      	mov	r6, r0
 80029d4:	2800      	cmp	r0, #0
 80029d6:	d1db      	bne.n	8002990 <HAL_RCCEx_PeriphCLKConfig+0x20>
 80029d8:	e7e8      	b.n	80029ac <HAL_RCCEx_PeriphCLKConfig+0x3c>
 80029da:	2102      	movs	r1, #2
 80029dc:	3028      	adds	r0, #40	@ 0x28
 80029de:	f7ff ff51 	bl	8002884 <RCCEx_PLL3_Config>
 80029e2:	e7f6      	b.n	80029d2 <HAL_RCCEx_PeriphCLKConfig+0x62>
 80029e4:	4a88      	ldr	r2, [pc, #544]	@ (8002c08 <HAL_RCCEx_PeriphCLKConfig+0x298>)
 80029e6:	6ad3      	ldr	r3, [r2, #44]	@ 0x2c
 80029e8:	f443 3300 	orr.w	r3, r3, #131072	@ 0x20000
 80029ec:	62d3      	str	r3, [r2, #44]	@ 0x2c
 80029ee:	4634      	mov	r4, r6
 80029f0:	bb3c      	cbnz	r4, 8002a42 <HAL_RCCEx_PeriphCLKConfig+0xd2>
 80029f2:	4a85      	ldr	r2, [pc, #532]	@ (8002c08 <HAL_RCCEx_PeriphCLKConfig+0x298>)
 80029f4:	6da9      	ldr	r1, [r5, #88]	@ 0x58
 80029f6:	6d13      	ldr	r3, [r2, #80]	@ 0x50
 80029f8:	f023 0307 	bic.w	r3, r3, #7
 80029fc:	430b      	orrs	r3, r1
 80029fe:	6513      	str	r3, [r2, #80]	@ 0x50
 8002a00:	682b      	ldr	r3, [r5, #0]
 8002a02:	0559      	lsls	r1, r3, #21
 8002a04:	d530      	bpl.n	8002a68 <HAL_RCCEx_PeriphCLKConfig+0xf8>
 8002a06:	f8d5 30a4 	ldr.w	r3, [r5, #164]	@ 0xa4
 8002a0a:	f5b3 0f80 	cmp.w	r3, #4194304	@ 0x400000
 8002a0e:	d049      	beq.n	8002aa4 <HAL_RCCEx_PeriphCLKConfig+0x134>
 8002a10:	d819      	bhi.n	8002a46 <HAL_RCCEx_PeriphCLKConfig+0xd6>
 8002a12:	2b00      	cmp	r3, #0
 8002a14:	d039      	beq.n	8002a8a <HAL_RCCEx_PeriphCLKConfig+0x11a>
 8002a16:	f5b3 1f00 	cmp.w	r3, #2097152	@ 0x200000
 8002a1a:	d03c      	beq.n	8002a96 <HAL_RCCEx_PeriphCLKConfig+0x126>
 8002a1c:	2601      	movs	r6, #1
 8002a1e:	4634      	mov	r4, r6
 8002a20:	e022      	b.n	8002a68 <HAL_RCCEx_PeriphCLKConfig+0xf8>
 8002a22:	2100      	movs	r1, #0
 8002a24:	f105 0008 	add.w	r0, r5, #8
 8002a28:	f7ff feb6 	bl	8002798 <RCCEx_PLL2_Config>
 8002a2c:	4604      	mov	r4, r0
 8002a2e:	e7df      	b.n	80029f0 <HAL_RCCEx_PeriphCLKConfig+0x80>
 8002a30:	2100      	movs	r1, #0
 8002a32:	f105 0028 	add.w	r0, r5, #40	@ 0x28
 8002a36:	f7ff ff25 	bl	8002884 <RCCEx_PLL3_Config>
 8002a3a:	e7f7      	b.n	8002a2c <HAL_RCCEx_PeriphCLKConfig+0xbc>
 8002a3c:	2601      	movs	r6, #1
 8002a3e:	4634      	mov	r4, r6
 8002a40:	e7de      	b.n	8002a00 <HAL_RCCEx_PeriphCLKConfig+0x90>
 8002a42:	4626      	mov	r6, r4
 8002a44:	e7dc      	b.n	8002a00 <HAL_RCCEx_PeriphCLKConfig+0x90>
 8002a46:	f423 1200 	bic.w	r2, r3, #2097152	@ 0x200000
 8002a4a:	f5b2 0f00 	cmp.w	r2, #8388608	@ 0x800000
 8002a4e:	d002      	beq.n	8002a56 <HAL_RCCEx_PeriphCLKConfig+0xe6>
 8002a50:	f5b3 0fc0 	cmp.w	r3, #6291456	@ 0x600000
 8002a54:	d1e2      	bne.n	8002a1c <HAL_RCCEx_PeriphCLKConfig+0xac>
 8002a56:	bb5c      	cbnz	r4, 8002ab0 <HAL_RCCEx_PeriphCLKConfig+0x140>
 8002a58:	4a6b      	ldr	r2, [pc, #428]	@ (8002c08 <HAL_RCCEx_PeriphCLKConfig+0x298>)
 8002a5a:	f8d5 10a4 	ldr.w	r1, [r5, #164]	@ 0xa4
 8002a5e:	6d93      	ldr	r3, [r2, #88]	@ 0x58
 8002a60:	f423 0360 	bic.w	r3, r3, #14680064	@ 0xe00000
 8002a64:	430b      	orrs	r3, r1
 8002a66:	6593      	str	r3, [r2, #88]	@ 0x58
 8002a68:	682b      	ldr	r3, [r5, #0]
 8002a6a:	051a      	lsls	r2, r3, #20
 8002a6c:	d533      	bpl.n	8002ad6 <HAL_RCCEx_PeriphCLKConfig+0x166>
 8002a6e:	f8d5 30a8 	ldr.w	r3, [r5, #168]	@ 0xa8
 8002a72:	f1b3 7f00 	cmp.w	r3, #33554432	@ 0x2000000
 8002a76:	d048      	beq.n	8002b0a <HAL_RCCEx_PeriphCLKConfig+0x19a>
 8002a78:	d81c      	bhi.n	8002ab4 <HAL_RCCEx_PeriphCLKConfig+0x144>
 8002a7a:	2b00      	cmp	r3, #0
 8002a7c:	d038      	beq.n	8002af0 <HAL_RCCEx_PeriphCLKConfig+0x180>
 8002a7e:	f1b3 7f80 	cmp.w	r3, #16777216	@ 0x1000000
 8002a82:	d03b      	beq.n	8002afc <HAL_RCCEx_PeriphCLKConfig+0x18c>
 8002a84:	2601      	movs	r6, #1
 8002a86:	4634      	mov	r4, r6
 8002a88:	e025      	b.n	8002ad6 <HAL_RCCEx_PeriphCLKConfig+0x166>
 8002a8a:	4a5f      	ldr	r2, [pc, #380]	@ (8002c08 <HAL_RCCEx_PeriphCLKConfig+0x298>)
 8002a8c:	6ad3      	ldr	r3, [r2, #44]	@ 0x2c
 8002a8e:	f443 3300 	orr.w	r3, r3, #131072	@ 0x20000
 8002a92:	62d3      	str	r3, [r2, #44]	@ 0x2c
 8002a94:	e7df      	b.n	8002a56 <HAL_RCCEx_PeriphCLKConfig+0xe6>
 8002a96:	2100      	movs	r1, #0
 8002a98:	f105 0008 	add.w	r0, r5, #8
 8002a9c:	f7ff fe7c 	bl	8002798 <RCCEx_PLL2_Config>
 8002aa0:	4604      	mov	r4, r0
 8002aa2:	e7d8      	b.n	8002a56 <HAL_RCCEx_PeriphCLKConfig+0xe6>
 8002aa4:	2100      	movs	r1, #0
 8002aa6:	f105 0028 	add.w	r0, r5, #40	@ 0x28
 8002aaa:	f7ff feeb 	bl	8002884 <RCCEx_PLL3_Config>
 8002aae:	e7f7      	b.n	8002aa0 <HAL_RCCEx_PeriphCLKConfig+0x130>
 8002ab0:	4626      	mov	r6, r4
 8002ab2:	e7d9      	b.n	8002a68 <HAL_RCCEx_PeriphCLKConfig+0xf8>
 8002ab4:	f023 7280 	bic.w	r2, r3, #16777216	@ 0x1000000
 8002ab8:	f1b2 6f80 	cmp.w	r2, #67108864	@ 0x4000000
 8002abc:	d002      	beq.n	8002ac4 <HAL_RCCEx_PeriphCLKConfig+0x154>
 8002abe:	f1b3 7f40 	cmp.w	r3, #50331648	@ 0x3000000
 8002ac2:	d1df      	bne.n	8002a84 <HAL_RCCEx_PeriphCLKConfig+0x114>
 8002ac4:	bb3c      	cbnz	r4, 8002b16 <HAL_RCCEx_PeriphCLKConfig+0x1a6>
 8002ac6:	4a50      	ldr	r2, [pc, #320]	@ (8002c08 <HAL_RCCEx_PeriphCLKConfig+0x298>)
 8002ac8:	f8d5 10a8 	ldr.w	r1, [r5, #168]	@ 0xa8
 8002acc:	6d93      	ldr	r3, [r2, #88]	@ 0x58
 8002ace:	f023 63e0 	bic.w	r3, r3, #117440512	@ 0x7000000
 8002ad2:	430b      	orrs	r3, r1
 8002ad4:	6593      	str	r3, [r2, #88]	@ 0x58
 8002ad6:	682b      	ldr	r3, [r5, #0]
 8002ad8:	019b      	lsls	r3, r3, #6
 8002ada:	d528      	bpl.n	8002b2e <HAL_RCCEx_PeriphCLKConfig+0x1be>
 8002adc:	6ceb      	ldr	r3, [r5, #76]	@ 0x4c
 8002ade:	2b20      	cmp	r3, #32
 8002ae0:	d03b      	beq.n	8002b5a <HAL_RCCEx_PeriphCLKConfig+0x1ea>
 8002ae2:	d81a      	bhi.n	8002b1a <HAL_RCCEx_PeriphCLKConfig+0x1aa>
 8002ae4:	b1db      	cbz	r3, 8002b1e <HAL_RCCEx_PeriphCLKConfig+0x1ae>
 8002ae6:	2b10      	cmp	r3, #16
 8002ae8:	d031      	beq.n	8002b4e <HAL_RCCEx_PeriphCLKConfig+0x1de>
 8002aea:	2601      	movs	r6, #1
 8002aec:	4634      	mov	r4, r6
 8002aee:	e01e      	b.n	8002b2e <HAL_RCCEx_PeriphCLKConfig+0x1be>
 8002af0:	4a45      	ldr	r2, [pc, #276]	@ (8002c08 <HAL_RCCEx_PeriphCLKConfig+0x298>)
 8002af2:	6ad3      	ldr	r3, [r2, #44]	@ 0x2c
 8002af4:	f443 3300 	orr.w	r3, r3, #131072	@ 0x20000
 8002af8:	62d3      	str	r3, [r2, #44]	@ 0x2c
 8002afa:	e7e3      	b.n	8002ac4 <HAL_RCCEx_PeriphCLKConfig+0x154>
 8002afc:	2100      	movs	r1, #0
 8002afe:	f105 0008 	add.w	r0, r5, #8
 8002b02:	f7ff fe49 	bl	8002798 <RCCEx_PLL2_Config>
 8002b06:	4604      	mov	r4, r0
 8002b08:	e7dc      	b.n	8002ac4 <HAL_RCCEx_PeriphCLKConfig+0x154>
 8002b0a:	2100      	movs	r1, #0
 8002b0c:	f105 0028 	add.w	r0, r5, #40	@ 0x28
 8002b10:	f7ff feb8 	bl	8002884 <RCCEx_PLL3_Config>
 8002b14:	e7f7      	b.n	8002b06 <HAL_RCCEx_PeriphCLKConfig+0x196>
 8002b16:	4626      	mov	r6, r4
 8002b18:	e7dd      	b.n	8002ad6 <HAL_RCCEx_PeriphCLKConfig+0x166>
 8002b1a:	2b30      	cmp	r3, #48	@ 0x30
 8002b1c:	d1e5      	bne.n	8002aea <HAL_RCCEx_PeriphCLKConfig+0x17a>
 8002b1e:	bb1c      	cbnz	r4, 8002b68 <HAL_RCCEx_PeriphCLKConfig+0x1f8>
 8002b20:	4a39      	ldr	r2, [pc, #228]	@ (8002c08 <HAL_RCCEx_PeriphCLKConfig+0x298>)
 8002b22:	6ce9      	ldr	r1, [r5, #76]	@ 0x4c
 8002b24:	6cd3      	ldr	r3, [r2, #76]	@ 0x4c
 8002b26:	f023 0330 	bic.w	r3, r3, #48	@ 0x30
 8002b2a:	430b      	orrs	r3, r1
 8002b2c:	64d3      	str	r3, [r2, #76]	@ 0x4c
 8002b2e:	682b      	ldr	r3, [r5, #0]
 8002b30:	04df      	lsls	r7, r3, #19
 8002b32:	d52a      	bpl.n	8002b8a <HAL_RCCEx_PeriphCLKConfig+0x21a>
 8002b34:	6deb      	ldr	r3, [r5, #92]	@ 0x5c
 8002b36:	f5b3 5f00 	cmp.w	r3, #8192	@ 0x2000
 8002b3a:	d074      	beq.n	8002c26 <HAL_RCCEx_PeriphCLKConfig+0x2b6>
 8002b3c:	d816      	bhi.n	8002b6c <HAL_RCCEx_PeriphCLKConfig+0x1fc>
 8002b3e:	2b00      	cmp	r3, #0
 8002b40:	d064      	beq.n	8002c0c <HAL_RCCEx_PeriphCLKConfig+0x29c>
 8002b42:	f5b3 5f80 	cmp.w	r3, #4096	@ 0x1000
 8002b46:	d067      	beq.n	8002c18 <HAL_RCCEx_PeriphCLKConfig+0x2a8>
 8002b48:	2601      	movs	r6, #1
 8002b4a:	4634      	mov	r4, r6
 8002b4c:	e01d      	b.n	8002b8a <HAL_RCCEx_PeriphCLKConfig+0x21a>
 8002b4e:	4a2e      	ldr	r2, [pc, #184]	@ (8002c08 <HAL_RCCEx_PeriphCLKConfig+0x298>)
 8002b50:	6ad3      	ldr	r3, [r2, #44]	@ 0x2c
 8002b52:	f443 3300 	orr.w	r3, r3, #131072	@ 0x20000
 8002b56:	62d3      	str	r3, [r2, #44]	@ 0x2c
 8002b58:	e7e1      	b.n	8002b1e <HAL_RCCEx_PeriphCLKConfig+0x1ae>
 8002b5a:	2102      	movs	r1, #2
 8002b5c:	f105 0008 	add.w	r0, r5, #8
 8002b60:	f7ff fe1a 	bl	8002798 <RCCEx_PLL2_Config>
 8002b64:	4604      	mov	r4, r0
 8002b66:	e7da      	b.n	8002b1e <HAL_RCCEx_PeriphCLKConfig+0x1ae>
 8002b68:	4626      	mov	r6, r4
 8002b6a:	e7e0      	b.n	8002b2e <HAL_RCCEx_PeriphCLKConfig+0x1be>
 8002b6c:	f5b3 5f40 	cmp.w	r3, #12288	@ 0x3000
 8002b70:	d002      	beq.n	8002b78 <HAL_RCCEx_PeriphCLKConfig+0x208>
 8002b72:	f5b3 4f80 	cmp.w	r3, #16384	@ 0x4000
 8002b76:	d1e7      	bne.n	8002b48 <HAL_RCCEx_PeriphCLKConfig+0x1d8>
 8002b78:	2c00      	cmp	r4, #0
 8002b7a:	d15a      	bne.n	8002c32 <HAL_RCCEx_PeriphCLKConfig+0x2c2>
 8002b7c:	4a22      	ldr	r2, [pc, #136]	@ (8002c08 <HAL_RCCEx_PeriphCLKConfig+0x298>)
 8002b7e:	6de9      	ldr	r1, [r5, #92]	@ 0x5c
 8002b80:	6d13      	ldr	r3, [r2, #80]	@ 0x50
 8002b82:	f423 43e0 	bic.w	r3, r3, #28672	@ 0x7000
 8002b86:	430b      	orrs	r3, r1
 8002b88:	6513      	str	r3, [r2, #80]	@ 0x50
 8002b8a:	682b      	ldr	r3, [r5, #0]
 8002b8c:	0498      	lsls	r0, r3, #18
 8002b8e:	d50b      	bpl.n	8002ba8 <HAL_RCCEx_PeriphCLKConfig+0x238>
 8002b90:	6e2b      	ldr	r3, [r5, #96]	@ 0x60
 8002b92:	f5b3 3f00 	cmp.w	r3, #131072	@ 0x20000
 8002b96:	d066      	beq.n	8002c66 <HAL_RCCEx_PeriphCLKConfig+0x2f6>
 8002b98:	d84d      	bhi.n	8002c36 <HAL_RCCEx_PeriphCLKConfig+0x2c6>
 8002b9a:	2b00      	cmp	r3, #0
 8002b9c:	d053      	beq.n	8002c46 <HAL_RCCEx_PeriphCLKConfig+0x2d6>
 8002b9e:	f5b3 3f80 	cmp.w	r3, #65536	@ 0x10000
 8002ba2:	d059      	beq.n	8002c58 <HAL_RCCEx_PeriphCLKConfig+0x2e8>
 8002ba4:	2601      	movs	r6, #1
 8002ba6:	4634      	mov	r4, r6
 8002ba8:	682b      	ldr	r3, [r5, #0]
 8002baa:	0459      	lsls	r1, r3, #17
 8002bac:	d50c      	bpl.n	8002bc8 <HAL_RCCEx_PeriphCLKConfig+0x258>
 8002bae:	f8d5 30ac 	ldr.w	r3, [r5, #172]	@ 0xac
 8002bb2:	f1b3 5f00 	cmp.w	r3, #536870912	@ 0x20000000
 8002bb6:	d077      	beq.n	8002ca8 <HAL_RCCEx_PeriphCLKConfig+0x338>
 8002bb8:	d85d      	bhi.n	8002c76 <HAL_RCCEx_PeriphCLKConfig+0x306>
 8002bba:	2b00      	cmp	r3, #0
 8002bbc:	d063      	beq.n	8002c86 <HAL_RCCEx_PeriphCLKConfig+0x316>
 8002bbe:	f1b3 5f80 	cmp.w	r3, #268435456	@ 0x10000000
 8002bc2:	d06a      	beq.n	8002c9a <HAL_RCCEx_PeriphCLKConfig+0x32a>
 8002bc4:	2601      	movs	r6, #1
 8002bc6:	4634      	mov	r4, r6
 8002bc8:	682b      	ldr	r3, [r5, #0]
 8002bca:	041a      	lsls	r2, r3, #16
 8002bcc:	d511      	bpl.n	8002bf2 <HAL_RCCEx_PeriphCLKConfig+0x282>
 8002bce:	6eeb      	ldr	r3, [r5, #108]	@ 0x6c
 8002bd0:	f1b3 5f80 	cmp.w	r3, #268435456	@ 0x10000000
 8002bd4:	d070      	beq.n	8002cb8 <HAL_RCCEx_PeriphCLKConfig+0x348>
 8002bd6:	f1b3 5f00 	cmp.w	r3, #536870912	@ 0x20000000
 8002bda:	d073      	beq.n	8002cc4 <HAL_RCCEx_PeriphCLKConfig+0x354>
 8002bdc:	2b00      	cmp	r3, #0
 8002bde:	d178      	bne.n	8002cd2 <HAL_RCCEx_PeriphCLKConfig+0x362>
 8002be0:	2c00      	cmp	r4, #0
 8002be2:	d179      	bne.n	8002cd8 <HAL_RCCEx_PeriphCLKConfig+0x368>
 8002be4:	4a08      	ldr	r2, [pc, #32]	@ (8002c08 <HAL_RCCEx_PeriphCLKConfig+0x298>)
 8002be6:	6ee9      	ldr	r1, [r5, #108]	@ 0x6c
 8002be8:	6d13      	ldr	r3, [r2, #80]	@ 0x50
 8002bea:	f023 5340 	bic.w	r3, r3, #805306368	@ 0x30000000
 8002bee:	430b      	orrs	r3, r1
 8002bf0:	6513      	str	r3, [r2, #80]	@ 0x50
 8002bf2:	682b      	ldr	r3, [r5, #0]
 8002bf4:	01db      	lsls	r3, r3, #7
 8002bf6:	d57f      	bpl.n	8002cf8 <HAL_RCCEx_PeriphCLKConfig+0x388>
 8002bf8:	6cab      	ldr	r3, [r5, #72]	@ 0x48
 8002bfa:	2b03      	cmp	r3, #3
 8002bfc:	f200 80c1 	bhi.w	8002d82 <HAL_RCCEx_PeriphCLKConfig+0x412>
 8002c00:	e8df f003 	tbb	[pc, r3]
 8002c04:	71b86c71 	.word	0x71b86c71
 8002c08:	58024400 	.word	0x58024400
 8002c0c:	4a9e      	ldr	r2, [pc, #632]	@ (8002e88 <HAL_RCCEx_PeriphCLKConfig+0x518>)
 8002c0e:	6ad3      	ldr	r3, [r2, #44]	@ 0x2c
 8002c10:	f443 3300 	orr.w	r3, r3, #131072	@ 0x20000
 8002c14:	62d3      	str	r3, [r2, #44]	@ 0x2c
 8002c16:	e7af      	b.n	8002b78 <HAL_RCCEx_PeriphCLKConfig+0x208>
 8002c18:	2100      	movs	r1, #0
 8002c1a:	f105 0008 	add.w	r0, r5, #8
 8002c1e:	f7ff fdbb 	bl	8002798 <RCCEx_PLL2_Config>
 8002c22:	4604      	mov	r4, r0
 8002c24:	e7a8      	b.n	8002b78 <HAL_RCCEx_PeriphCLKConfig+0x208>
 8002c26:	2100      	movs	r1, #0
 8002c28:	f105 0028 	add.w	r0, r5, #40	@ 0x28
 8002c2c:	f7ff fe2a 	bl	8002884 <RCCEx_PLL3_Config>
 8002c30:	e7f7      	b.n	8002c22 <HAL_RCCEx_PeriphCLKConfig+0x2b2>
 8002c32:	4626      	mov	r6, r4
 8002c34:	e7a9      	b.n	8002b8a <HAL_RCCEx_PeriphCLKConfig+0x21a>
 8002c36:	f423 3280 	bic.w	r2, r3, #65536	@ 0x10000
 8002c3a:	f5b2 2f80 	cmp.w	r2, #262144	@ 0x40000
 8002c3e:	d002      	beq.n	8002c46 <HAL_RCCEx_PeriphCLKConfig+0x2d6>
 8002c40:	f5b3 3f40 	cmp.w	r3, #196608	@ 0x30000
 8002c44:	d1ae      	bne.n	8002ba4 <HAL_RCCEx_PeriphCLKConfig+0x234>
 8002c46:	b9a4      	cbnz	r4, 8002c72 <HAL_RCCEx_PeriphCLKConfig+0x302>
 8002c48:	4a8f      	ldr	r2, [pc, #572]	@ (8002e88 <HAL_RCCEx_PeriphCLKConfig+0x518>)
 8002c4a:	6e29      	ldr	r1, [r5, #96]	@ 0x60
 8002c4c:	6d13      	ldr	r3, [r2, #80]	@ 0x50
 8002c4e:	f423 23e0 	bic.w	r3, r3, #458752	@ 0x70000
 8002c52:	430b      	orrs	r3, r1
 8002c54:	6513      	str	r3, [r2, #80]	@ 0x50
 8002c56:	e7a7      	b.n	8002ba8 <HAL_RCCEx_PeriphCLKConfig+0x238>
 8002c58:	2101      	movs	r1, #1
 8002c5a:	f105 0008 	add.w	r0, r5, #8
 8002c5e:	f7ff fd9b 	bl	8002798 <RCCEx_PLL2_Config>
 8002c62:	4604      	mov	r4, r0
 8002c64:	e7ef      	b.n	8002c46 <HAL_RCCEx_PeriphCLKConfig+0x2d6>
 8002c66:	2101      	movs	r1, #1
 8002c68:	f105 0028 	add.w	r0, r5, #40	@ 0x28
 8002c6c:	f7ff fe0a 	bl	8002884 <RCCEx_PLL3_Config>
 8002c70:	e7f7      	b.n	8002c62 <HAL_RCCEx_PeriphCLKConfig+0x2f2>
 8002c72:	4626      	mov	r6, r4
 8002c74:	e798      	b.n	8002ba8 <HAL_RCCEx_PeriphCLKConfig+0x238>
 8002c76:	f023 5280 	bic.w	r2, r3, #268435456	@ 0x10000000
 8002c7a:	f1b2 4f80 	cmp.w	r2, #1073741824	@ 0x40000000
 8002c7e:	d002      	beq.n	8002c86 <HAL_RCCEx_PeriphCLKConfig+0x316>
 8002c80:	f1b3 5f40 	cmp.w	r3, #805306368	@ 0x30000000
 8002c84:	d19e      	bne.n	8002bc4 <HAL_RCCEx_PeriphCLKConfig+0x254>
 8002c86:	b9ac      	cbnz	r4, 8002cb4 <HAL_RCCEx_PeriphCLKConfig+0x344>
 8002c88:	4a7f      	ldr	r2, [pc, #508]	@ (8002e88 <HAL_RCCEx_PeriphCLKConfig+0x518>)
 8002c8a:	f8d5 10ac 	ldr.w	r1, [r5, #172]	@ 0xac
 8002c8e:	6d93      	ldr	r3, [r2, #88]	@ 0x58
 8002c90:	f023 43e0 	bic.w	r3, r3, #1879048192	@ 0x70000000
 8002c94:	430b      	orrs	r3, r1
 8002c96:	6593      	str	r3, [r2, #88]	@ 0x58
 8002c98:	e796      	b.n	8002bc8 <HAL_RCCEx_PeriphCLKConfig+0x258>
 8002c9a:	2101      	movs	r1, #1
 8002c9c:	f105 0008 	add.w	r0, r5, #8
 8002ca0:	f7ff fd7a 	bl	8002798 <RCCEx_PLL2_Config>
 8002ca4:	4604      	mov	r4, r0
 8002ca6:	e7ee      	b.n	8002c86 <HAL_RCCEx_PeriphCLKConfig+0x316>
 8002ca8:	2101      	movs	r1, #1
 8002caa:	f105 0028 	add.w	r0, r5, #40	@ 0x28
 8002cae:	f7ff fde9 	bl	8002884 <RCCEx_PLL3_Config>
 8002cb2:	e7f7      	b.n	8002ca4 <HAL_RCCEx_PeriphCLKConfig+0x334>
 8002cb4:	4626      	mov	r6, r4
 8002cb6:	e787      	b.n	8002bc8 <HAL_RCCEx_PeriphCLKConfig+0x258>
 8002cb8:	4a73      	ldr	r2, [pc, #460]	@ (8002e88 <HAL_RCCEx_PeriphCLKConfig+0x518>)
 8002cba:	6ad3      	ldr	r3, [r2, #44]	@ 0x2c
 8002cbc:	f443 3300 	orr.w	r3, r3, #131072	@ 0x20000
 8002cc0:	62d3      	str	r3, [r2, #44]	@ 0x2c
 8002cc2:	e78d      	b.n	8002be0 <HAL_RCCEx_PeriphCLKConfig+0x270>
 8002cc4:	2101      	movs	r1, #1
 8002cc6:	f105 0008 	add.w	r0, r5, #8
 8002cca:	f7ff fd65 	bl	8002798 <RCCEx_PLL2_Config>
 8002cce:	4604      	mov	r4, r0
 8002cd0:	e786      	b.n	8002be0 <HAL_RCCEx_PeriphCLKConfig+0x270>
 8002cd2:	2601      	movs	r6, #1
 8002cd4:	4634      	mov	r4, r6
 8002cd6:	e78c      	b.n	8002bf2 <HAL_RCCEx_PeriphCLKConfig+0x282>
 8002cd8:	4626      	mov	r6, r4
 8002cda:	e78a      	b.n	8002bf2 <HAL_RCCEx_PeriphCLKConfig+0x282>
 8002cdc:	4a6a      	ldr	r2, [pc, #424]	@ (8002e88 <HAL_RCCEx_PeriphCLKConfig+0x518>)
 8002cde:	6ad3      	ldr	r3, [r2, #44]	@ 0x2c
 8002ce0:	f443 3300 	orr.w	r3, r3, #131072	@ 0x20000
 8002ce4:	62d3      	str	r3, [r2, #44]	@ 0x2c
 8002ce6:	2c00      	cmp	r4, #0
 8002ce8:	d14e      	bne.n	8002d88 <HAL_RCCEx_PeriphCLKConfig+0x418>
 8002cea:	4a67      	ldr	r2, [pc, #412]	@ (8002e88 <HAL_RCCEx_PeriphCLKConfig+0x518>)
 8002cec:	6ca9      	ldr	r1, [r5, #72]	@ 0x48
 8002cee:	6cd3      	ldr	r3, [r2, #76]	@ 0x4c
 8002cf0:	f023 0303 	bic.w	r3, r3, #3
 8002cf4:	430b      	orrs	r3, r1
 8002cf6:	64d3      	str	r3, [r2, #76]	@ 0x4c
 8002cf8:	682b      	ldr	r3, [r5, #0]
 8002cfa:	025f      	lsls	r7, r3, #9
 8002cfc:	d54e      	bpl.n	8002d9c <HAL_RCCEx_PeriphCLKConfig+0x42c>
 8002cfe:	4f63      	ldr	r7, [pc, #396]	@ (8002e8c <HAL_RCCEx_PeriphCLKConfig+0x51c>)
 8002d00:	683b      	ldr	r3, [r7, #0]
 8002d02:	f443 7380 	orr.w	r3, r3, #256	@ 0x100
 8002d06:	603b      	str	r3, [r7, #0]
 8002d08:	f7fe fd1e 	bl	8001748 <HAL_GetTick>
 8002d0c:	4680      	mov	r8, r0
 8002d0e:	683b      	ldr	r3, [r7, #0]
 8002d10:	05d8      	lsls	r0, r3, #23
 8002d12:	d53b      	bpl.n	8002d8c <HAL_RCCEx_PeriphCLKConfig+0x41c>
 8002d14:	2c00      	cmp	r4, #0
 8002d16:	d16d      	bne.n	8002df4 <HAL_RCCEx_PeriphCLKConfig+0x484>
 8002d18:	4b5b      	ldr	r3, [pc, #364]	@ (8002e88 <HAL_RCCEx_PeriphCLKConfig+0x518>)
 8002d1a:	f8d5 00b0 	ldr.w	r0, [r5, #176]	@ 0xb0
 8002d1e:	6f1a      	ldr	r2, [r3, #112]	@ 0x70
 8002d20:	4042      	eors	r2, r0
 8002d22:	f412 7f40 	tst.w	r2, #768	@ 0x300
 8002d26:	d00b      	beq.n	8002d40 <HAL_RCCEx_PeriphCLKConfig+0x3d0>
 8002d28:	6f1a      	ldr	r2, [r3, #112]	@ 0x70
 8002d2a:	6f19      	ldr	r1, [r3, #112]	@ 0x70
 8002d2c:	f422 7240 	bic.w	r2, r2, #768	@ 0x300
 8002d30:	f441 3180 	orr.w	r1, r1, #65536	@ 0x10000
 8002d34:	6719      	str	r1, [r3, #112]	@ 0x70
 8002d36:	6f19      	ldr	r1, [r3, #112]	@ 0x70
 8002d38:	f421 3180 	bic.w	r1, r1, #65536	@ 0x10000
 8002d3c:	6719      	str	r1, [r3, #112]	@ 0x70
 8002d3e:	671a      	str	r2, [r3, #112]	@ 0x70
 8002d40:	f5b0 7f80 	cmp.w	r0, #256	@ 0x100
 8002d44:	d041      	beq.n	8002dca <HAL_RCCEx_PeriphCLKConfig+0x45a>
 8002d46:	f8d5 30b0 	ldr.w	r3, [r5, #176]	@ 0xb0
 8002d4a:	494f      	ldr	r1, [pc, #316]	@ (8002e88 <HAL_RCCEx_PeriphCLKConfig+0x518>)
 8002d4c:	f403 7240 	and.w	r2, r3, #768	@ 0x300
 8002d50:	f5b2 7f40 	cmp.w	r2, #768	@ 0x300
 8002d54:	d14a      	bne.n	8002dec <HAL_RCCEx_PeriphCLKConfig+0x47c>
 8002d56:	6908      	ldr	r0, [r1, #16]
 8002d58:	4a4d      	ldr	r2, [pc, #308]	@ (8002e90 <HAL_RCCEx_PeriphCLKConfig+0x520>)
 8002d5a:	f420 507c 	bic.w	r0, r0, #16128	@ 0x3f00
 8002d5e:	ea02 1213 	and.w	r2, r2, r3, lsr #4
 8002d62:	4302      	orrs	r2, r0
 8002d64:	610a      	str	r2, [r1, #16]
 8002d66:	f3c3 030b 	ubfx	r3, r3, #0, #12
 8002d6a:	4a47      	ldr	r2, [pc, #284]	@ (8002e88 <HAL_RCCEx_PeriphCLKConfig+0x518>)
 8002d6c:	6f11      	ldr	r1, [r2, #112]	@ 0x70
 8002d6e:	430b      	orrs	r3, r1
 8002d70:	6713      	str	r3, [r2, #112]	@ 0x70
 8002d72:	e013      	b.n	8002d9c <HAL_RCCEx_PeriphCLKConfig+0x42c>
 8002d74:	2102      	movs	r1, #2
 8002d76:	f105 0008 	add.w	r0, r5, #8
 8002d7a:	f7ff fd0d 	bl	8002798 <RCCEx_PLL2_Config>
 8002d7e:	4604      	mov	r4, r0
 8002d80:	e7b1      	b.n	8002ce6 <HAL_RCCEx_PeriphCLKConfig+0x376>
 8002d82:	2601      	movs	r6, #1
 8002d84:	4634      	mov	r4, r6
 8002d86:	e7b7      	b.n	8002cf8 <HAL_RCCEx_PeriphCLKConfig+0x388>
 8002d88:	4626      	mov	r6, r4
 8002d8a:	e7b5      	b.n	8002cf8 <HAL_RCCEx_PeriphCLKConfig+0x388>
 8002d8c:	f7fe fcdc 	bl	8001748 <HAL_GetTick>
 8002d90:	eba0 0008 	sub.w	r0, r0, r8
 8002d94:	2864      	cmp	r0, #100	@ 0x64
 8002d96:	d9ba      	bls.n	8002d0e <HAL_RCCEx_PeriphCLKConfig+0x39e>
 8002d98:	2603      	movs	r6, #3
 8002d9a:	4634      	mov	r4, r6
 8002d9c:	682b      	ldr	r3, [r5, #0]
 8002d9e:	07da      	lsls	r2, r3, #31
 8002da0:	d508      	bpl.n	8002db4 <HAL_RCCEx_PeriphCLKConfig+0x444>
 8002da2:	6fab      	ldr	r3, [r5, #120]	@ 0x78
 8002da4:	2b10      	cmp	r3, #16
 8002da6:	d03d      	beq.n	8002e24 <HAL_RCCEx_PeriphCLKConfig+0x4b4>
 8002da8:	d826      	bhi.n	8002df8 <HAL_RCCEx_PeriphCLKConfig+0x488>
 8002daa:	b35b      	cbz	r3, 8002e04 <HAL_RCCEx_PeriphCLKConfig+0x494>
 8002dac:	2b08      	cmp	r3, #8
 8002dae:	d032      	beq.n	8002e16 <HAL_RCCEx_PeriphCLKConfig+0x4a6>
 8002db0:	2601      	movs	r6, #1
 8002db2:	4634      	mov	r4, r6
 8002db4:	682b      	ldr	r3, [r5, #0]
 8002db6:	079b      	lsls	r3, r3, #30
 8002db8:	d54a      	bpl.n	8002e50 <HAL_RCCEx_PeriphCLKConfig+0x4e0>
 8002dba:	6f6b      	ldr	r3, [r5, #116]	@ 0x74
 8002dbc:	2b05      	cmp	r3, #5
 8002dbe:	d85d      	bhi.n	8002e7c <HAL_RCCEx_PeriphCLKConfig+0x50c>
 8002dc0:	e8df f003 	tbb	[pc, r3]
 8002dc4:	3e56383e 	.word	0x3e56383e
 8002dc8:	3e3e      	.short	0x3e3e
 8002dca:	f7fe fcbd 	bl	8001748 <HAL_GetTick>
 8002dce:	f8df 80b8 	ldr.w	r8, [pc, #184]	@ 8002e88 <HAL_RCCEx_PeriphCLKConfig+0x518>
 8002dd2:	4607      	mov	r7, r0
 8002dd4:	f241 3988 	movw	r9, #5000	@ 0x1388
 8002dd8:	f8d8 3070 	ldr.w	r3, [r8, #112]	@ 0x70
 8002ddc:	0799      	lsls	r1, r3, #30
 8002dde:	d4b2      	bmi.n	8002d46 <HAL_RCCEx_PeriphCLKConfig+0x3d6>
 8002de0:	f7fe fcb2 	bl	8001748 <HAL_GetTick>
 8002de4:	1bc0      	subs	r0, r0, r7
 8002de6:	4548      	cmp	r0, r9
 8002de8:	d9f6      	bls.n	8002dd8 <HAL_RCCEx_PeriphCLKConfig+0x468>
 8002dea:	e7d5      	b.n	8002d98 <HAL_RCCEx_PeriphCLKConfig+0x428>
 8002dec:	690a      	ldr	r2, [r1, #16]
 8002dee:	f422 527c 	bic.w	r2, r2, #16128	@ 0x3f00
 8002df2:	e7b7      	b.n	8002d64 <HAL_RCCEx_PeriphCLKConfig+0x3f4>
 8002df4:	4626      	mov	r6, r4
 8002df6:	e7d1      	b.n	8002d9c <HAL_RCCEx_PeriphCLKConfig+0x42c>
 8002df8:	f023 0208 	bic.w	r2, r3, #8
 8002dfc:	2a20      	cmp	r2, #32
 8002dfe:	d001      	beq.n	8002e04 <HAL_RCCEx_PeriphCLKConfig+0x494>
 8002e00:	2b18      	cmp	r3, #24
 8002e02:	d1d5      	bne.n	8002db0 <HAL_RCCEx_PeriphCLKConfig+0x440>
 8002e04:	b9a4      	cbnz	r4, 8002e30 <HAL_RCCEx_PeriphCLKConfig+0x4c0>
 8002e06:	4a20      	ldr	r2, [pc, #128]	@ (8002e88 <HAL_RCCEx_PeriphCLKConfig+0x518>)
 8002e08:	6fa9      	ldr	r1, [r5, #120]	@ 0x78
 8002e0a:	6d53      	ldr	r3, [r2, #84]	@ 0x54
 8002e0c:	f023 0338 	bic.w	r3, r3, #56	@ 0x38
 8002e10:	430b      	orrs	r3, r1
 8002e12:	6553      	str	r3, [r2, #84]	@ 0x54
 8002e14:	e7ce      	b.n	8002db4 <HAL_RCCEx_PeriphCLKConfig+0x444>
 8002e16:	2101      	movs	r1, #1
 8002e18:	f105 0008 	add.w	r0, r5, #8
 8002e1c:	f7ff fcbc 	bl	8002798 <RCCEx_PLL2_Config>
 8002e20:	4604      	mov	r4, r0
 8002e22:	e7ef      	b.n	8002e04 <HAL_RCCEx_PeriphCLKConfig+0x494>
 8002e24:	2101      	movs	r1, #1
 8002e26:	f105 0028 	add.w	r0, r5, #40	@ 0x28
 8002e2a:	f7ff fd2b 	bl	8002884 <RCCEx_PLL3_Config>
 8002e2e:	e7f7      	b.n	8002e20 <HAL_RCCEx_PeriphCLKConfig+0x4b0>
 8002e30:	4626      	mov	r6, r4
 8002e32:	e7bf      	b.n	8002db4 <HAL_RCCEx_PeriphCLKConfig+0x444>
 8002e34:	2101      	movs	r1, #1
 8002e36:	f105 0008 	add.w	r0, r5, #8
 8002e3a:	f7ff fcad 	bl	8002798 <RCCEx_PLL2_Config>
 8002e3e:	4604      	mov	r4, r0
 8002e40:	b9fc      	cbnz	r4, 8002e82 <HAL_RCCEx_PeriphCLKConfig+0x512>
 8002e42:	4a11      	ldr	r2, [pc, #68]	@ (8002e88 <HAL_RCCEx_PeriphCLKConfig+0x518>)
 8002e44:	6f69      	ldr	r1, [r5, #116]	@ 0x74
 8002e46:	6d53      	ldr	r3, [r2, #84]	@ 0x54
 8002e48:	f023 0307 	bic.w	r3, r3, #7
 8002e4c:	430b      	orrs	r3, r1
 8002e4e:	6553      	str	r3, [r2, #84]	@ 0x54
 8002e50:	682b      	ldr	r3, [r5, #0]
 8002e52:	075f      	lsls	r7, r3, #29
 8002e54:	d52f      	bpl.n	8002eb6 <HAL_RCCEx_PeriphCLKConfig+0x546>
 8002e56:	f8d5 3090 	ldr.w	r3, [r5, #144]	@ 0x90
 8002e5a:	2b05      	cmp	r3, #5
 8002e5c:	f200 8167 	bhi.w	800312e <HAL_RCCEx_PeriphCLKConfig+0x7be>
 8002e60:	e8df f013 	tbh	[pc, r3, lsl #1]
 8002e64:	0018001e 	.word	0x0018001e
 8002e68:	001e015f 	.word	0x001e015f
 8002e6c:	001e001e 	.word	0x001e001e
 8002e70:	2101      	movs	r1, #1
 8002e72:	f105 0028 	add.w	r0, r5, #40	@ 0x28
 8002e76:	f7ff fd05 	bl	8002884 <RCCEx_PLL3_Config>
 8002e7a:	e7e0      	b.n	8002e3e <HAL_RCCEx_PeriphCLKConfig+0x4ce>
 8002e7c:	2601      	movs	r6, #1
 8002e7e:	4634      	mov	r4, r6
 8002e80:	e7e6      	b.n	8002e50 <HAL_RCCEx_PeriphCLKConfig+0x4e0>
 8002e82:	4626      	mov	r6, r4
 8002e84:	e7e4      	b.n	8002e50 <HAL_RCCEx_PeriphCLKConfig+0x4e0>
 8002e86:	bf00      	nop
 8002e88:	58024400 	.word	0x58024400
 8002e8c:	58024800 	.word	0x58024800
 8002e90:	00ffffcf 	.word	0x00ffffcf
 8002e94:	2101      	movs	r1, #1
 8002e96:	f105 0008 	add.w	r0, r5, #8
 8002e9a:	f7ff fc7d 	bl	8002798 <RCCEx_PLL2_Config>
 8002e9e:	4604      	mov	r4, r0
 8002ea0:	2c00      	cmp	r4, #0
 8002ea2:	f040 8147 	bne.w	8003134 <HAL_RCCEx_PeriphCLKConfig+0x7c4>
 8002ea6:	4aa4      	ldr	r2, [pc, #656]	@ (8003138 <HAL_RCCEx_PeriphCLKConfig+0x7c8>)
 8002ea8:	f8d5 1090 	ldr.w	r1, [r5, #144]	@ 0x90
 8002eac:	6d93      	ldr	r3, [r2, #88]	@ 0x58
 8002eae:	f023 0307 	bic.w	r3, r3, #7
 8002eb2:	430b      	orrs	r3, r1
 8002eb4:	6593      	str	r3, [r2, #88]	@ 0x58
 8002eb6:	682b      	ldr	r3, [r5, #0]
 8002eb8:	0698      	lsls	r0, r3, #26
 8002eba:	d510      	bpl.n	8002ede <HAL_RCCEx_PeriphCLKConfig+0x56e>
 8002ebc:	f8d5 308c 	ldr.w	r3, [r5, #140]	@ 0x8c
 8002ec0:	f1b3 5f00 	cmp.w	r3, #536870912	@ 0x20000000
 8002ec4:	f000 8154 	beq.w	8003170 <HAL_RCCEx_PeriphCLKConfig+0x800>
 8002ec8:	f200 8138 	bhi.w	800313c <HAL_RCCEx_PeriphCLKConfig+0x7cc>
 8002ecc:	2b00      	cmp	r3, #0
 8002ece:	f000 813e 	beq.w	800314e <HAL_RCCEx_PeriphCLKConfig+0x7de>
 8002ed2:	f1b3 5f80 	cmp.w	r3, #268435456	@ 0x10000000
 8002ed6:	f000 8144 	beq.w	8003162 <HAL_RCCEx_PeriphCLKConfig+0x7f2>
 8002eda:	2601      	movs	r6, #1
 8002edc:	4634      	mov	r4, r6
 8002ede:	682b      	ldr	r3, [r5, #0]
 8002ee0:	0659      	lsls	r1, r3, #25
 8002ee2:	d510      	bpl.n	8002f06 <HAL_RCCEx_PeriphCLKConfig+0x596>
 8002ee4:	f8d5 3098 	ldr.w	r3, [r5, #152]	@ 0x98
 8002ee8:	f5b3 6f00 	cmp.w	r3, #2048	@ 0x800
 8002eec:	f000 8162 	beq.w	80031b4 <HAL_RCCEx_PeriphCLKConfig+0x844>
 8002ef0:	f200 8146 	bhi.w	8003180 <HAL_RCCEx_PeriphCLKConfig+0x810>
 8002ef4:	2b00      	cmp	r3, #0
 8002ef6:	f000 814c 	beq.w	8003192 <HAL_RCCEx_PeriphCLKConfig+0x822>
 8002efa:	f5b3 6f80 	cmp.w	r3, #1024	@ 0x400
 8002efe:	f000 8152 	beq.w	80031a6 <HAL_RCCEx_PeriphCLKConfig+0x836>
 8002f02:	2601      	movs	r6, #1
 8002f04:	4634      	mov	r4, r6
 8002f06:	682b      	ldr	r3, [r5, #0]
 8002f08:	061a      	lsls	r2, r3, #24
 8002f0a:	d510      	bpl.n	8002f2e <HAL_RCCEx_PeriphCLKConfig+0x5be>
 8002f0c:	f8d5 309c 	ldr.w	r3, [r5, #156]	@ 0x9c
 8002f10:	f5b3 4f80 	cmp.w	r3, #16384	@ 0x4000
 8002f14:	f000 8170 	beq.w	80031f8 <HAL_RCCEx_PeriphCLKConfig+0x888>
 8002f18:	f200 8154 	bhi.w	80031c4 <HAL_RCCEx_PeriphCLKConfig+0x854>
 8002f1c:	2b00      	cmp	r3, #0
 8002f1e:	f000 815a 	beq.w	80031d6 <HAL_RCCEx_PeriphCLKConfig+0x866>
 8002f22:	f5b3 5f00 	cmp.w	r3, #8192	@ 0x2000
 8002f26:	f000 8160 	beq.w	80031ea <HAL_RCCEx_PeriphCLKConfig+0x87a>
 8002f2a:	2601      	movs	r6, #1
 8002f2c:	4634      	mov	r4, r6
 8002f2e:	682b      	ldr	r3, [r5, #0]
 8002f30:	071b      	lsls	r3, r3, #28
 8002f32:	d514      	bpl.n	8002f5e <HAL_RCCEx_PeriphCLKConfig+0x5ee>
 8002f34:	f8d5 3080 	ldr.w	r3, [r5, #128]	@ 0x80
 8002f38:	f5b3 5f80 	cmp.w	r3, #4096	@ 0x1000
 8002f3c:	d107      	bne.n	8002f4e <HAL_RCCEx_PeriphCLKConfig+0x5de>
 8002f3e:	2102      	movs	r1, #2
 8002f40:	f105 0028 	add.w	r0, r5, #40	@ 0x28
 8002f44:	f7ff fc9e 	bl	8002884 <RCCEx_PLL3_Config>
 8002f48:	2800      	cmp	r0, #0
 8002f4a:	bf18      	it	ne
 8002f4c:	2601      	movne	r6, #1
 8002f4e:	4a7a      	ldr	r2, [pc, #488]	@ (8003138 <HAL_RCCEx_PeriphCLKConfig+0x7c8>)
 8002f50:	f8d5 1080 	ldr.w	r1, [r5, #128]	@ 0x80
 8002f54:	6d53      	ldr	r3, [r2, #84]	@ 0x54
 8002f56:	f423 5340 	bic.w	r3, r3, #12288	@ 0x3000
 8002f5a:	430b      	orrs	r3, r1
 8002f5c:	6553      	str	r3, [r2, #84]	@ 0x54
 8002f5e:	682b      	ldr	r3, [r5, #0]
 8002f60:	06df      	lsls	r7, r3, #27
 8002f62:	d514      	bpl.n	8002f8e <HAL_RCCEx_PeriphCLKConfig+0x61e>
 8002f64:	f8d5 3094 	ldr.w	r3, [r5, #148]	@ 0x94
 8002f68:	f5b3 7f80 	cmp.w	r3, #256	@ 0x100
 8002f6c:	d107      	bne.n	8002f7e <HAL_RCCEx_PeriphCLKConfig+0x60e>
 8002f6e:	2102      	movs	r1, #2
 8002f70:	f105 0028 	add.w	r0, r5, #40	@ 0x28
 8002f74:	f7ff fc86 	bl	8002884 <RCCEx_PLL3_Config>
 8002f78:	2800      	cmp	r0, #0
 8002f7a:	bf18      	it	ne
 8002f7c:	2601      	movne	r6, #1
 8002f7e:	4a6e      	ldr	r2, [pc, #440]	@ (8003138 <HAL_RCCEx_PeriphCLKConfig+0x7c8>)
 8002f80:	f8d5 1094 	ldr.w	r1, [r5, #148]	@ 0x94
 8002f84:	6d93      	ldr	r3, [r2, #88]	@ 0x58
 8002f86:	f423 7340 	bic.w	r3, r3, #768	@ 0x300
 8002f8a:	430b      	orrs	r3, r1
 8002f8c:	6593      	str	r3, [r2, #88]	@ 0x58
 8002f8e:	682b      	ldr	r3, [r5, #0]
 8002f90:	0318      	lsls	r0, r3, #12
 8002f92:	d51b      	bpl.n	8002fcc <HAL_RCCEx_PeriphCLKConfig+0x65c>
 8002f94:	f8d5 10a0 	ldr.w	r1, [r5, #160]	@ 0xa0
 8002f98:	f5b1 3f80 	cmp.w	r1, #65536	@ 0x10000
 8002f9c:	f000 8134 	beq.w	8003208 <HAL_RCCEx_PeriphCLKConfig+0x898>
 8002fa0:	f5b1 3f00 	cmp.w	r1, #131072	@ 0x20000
 8002fa4:	d007      	beq.n	8002fb6 <HAL_RCCEx_PeriphCLKConfig+0x646>
 8002fa6:	2900      	cmp	r1, #0
 8002fa8:	f040 8134 	bne.w	8003214 <HAL_RCCEx_PeriphCLKConfig+0x8a4>
 8002fac:	f105 0008 	add.w	r0, r5, #8
 8002fb0:	f7ff fbf2 	bl	8002798 <RCCEx_PLL2_Config>
 8002fb4:	4604      	mov	r4, r0
 8002fb6:	2c00      	cmp	r4, #0
 8002fb8:	f040 812f 	bne.w	800321a <HAL_RCCEx_PeriphCLKConfig+0x8aa>
 8002fbc:	4a5e      	ldr	r2, [pc, #376]	@ (8003138 <HAL_RCCEx_PeriphCLKConfig+0x7c8>)
 8002fbe:	f8d5 10a0 	ldr.w	r1, [r5, #160]	@ 0xa0
 8002fc2:	6d93      	ldr	r3, [r2, #88]	@ 0x58
 8002fc4:	f423 3340 	bic.w	r3, r3, #196608	@ 0x30000
 8002fc8:	430b      	orrs	r3, r1
 8002fca:	6593      	str	r3, [r2, #88]	@ 0x58
 8002fcc:	682b      	ldr	r3, [r5, #0]
 8002fce:	0359      	lsls	r1, r3, #13
 8002fd0:	d50f      	bpl.n	8002ff2 <HAL_RCCEx_PeriphCLKConfig+0x682>
 8002fd2:	f8d5 3084 	ldr.w	r3, [r5, #132]	@ 0x84
 8002fd6:	f5b3 1f00 	cmp.w	r3, #2097152	@ 0x200000
 8002fda:	f000 812f 	beq.w	800323c <HAL_RCCEx_PeriphCLKConfig+0x8cc>
 8002fde:	f5b3 1f40 	cmp.w	r3, #3145728	@ 0x300000
 8002fe2:	f000 8121 	beq.w	8003228 <HAL_RCCEx_PeriphCLKConfig+0x8b8>
 8002fe6:	f5b3 1f80 	cmp.w	r3, #1048576	@ 0x100000
 8002fea:	f000 8118 	beq.w	800321e <HAL_RCCEx_PeriphCLKConfig+0x8ae>
 8002fee:	2601      	movs	r6, #1
 8002ff0:	4634      	mov	r4, r6
 8002ff2:	682b      	ldr	r3, [r5, #0]
 8002ff4:	03da      	lsls	r2, r3, #15
 8002ff6:	d509      	bpl.n	800300c <HAL_RCCEx_PeriphCLKConfig+0x69c>
 8002ff8:	6d2b      	ldr	r3, [r5, #80]	@ 0x50
 8002ffa:	2b00      	cmp	r3, #0
 8002ffc:	f000 8127 	beq.w	800324e <HAL_RCCEx_PeriphCLKConfig+0x8de>
 8003000:	f5b3 3f80 	cmp.w	r3, #65536	@ 0x10000
 8003004:	f000 8131 	beq.w	800326a <HAL_RCCEx_PeriphCLKConfig+0x8fa>
 8003008:	2601      	movs	r6, #1
 800300a:	4634      	mov	r4, r6
 800300c:	682b      	ldr	r3, [r5, #0]
 800300e:	009b      	lsls	r3, r3, #2
 8003010:	d507      	bpl.n	8003022 <HAL_RCCEx_PeriphCLKConfig+0x6b2>
 8003012:	2102      	movs	r1, #2
 8003014:	f105 0028 	add.w	r0, r5, #40	@ 0x28
 8003018:	f7ff fc34 	bl	8002884 <RCCEx_PLL3_Config>
 800301c:	2800      	cmp	r0, #0
 800301e:	bf18      	it	ne
 8003020:	2601      	movne	r6, #1
 8003022:	e9d5 3100 	ldrd	r3, r1, [r5]
 8003026:	039f      	lsls	r7, r3, #14
 8003028:	f140 8137 	bpl.w	800329a <HAL_RCCEx_PeriphCLKConfig+0x92a>
 800302c:	6fe8      	ldr	r0, [r5, #124]	@ 0x7c
 800302e:	f5b0 7f80 	cmp.w	r0, #256	@ 0x100
 8003032:	f000 8134 	beq.w	800329e <HAL_RCCEx_PeriphCLKConfig+0x92e>
 8003036:	f200 8121 	bhi.w	800327c <HAL_RCCEx_PeriphCLKConfig+0x90c>
 800303a:	2800      	cmp	r0, #0
 800303c:	f000 8124 	beq.w	8003288 <HAL_RCCEx_PeriphCLKConfig+0x918>
 8003040:	2401      	movs	r4, #1
 8003042:	02de      	lsls	r6, r3, #11
 8003044:	d506      	bpl.n	8003054 <HAL_RCCEx_PeriphCLKConfig+0x6e4>
 8003046:	483c      	ldr	r0, [pc, #240]	@ (8003138 <HAL_RCCEx_PeriphCLKConfig+0x7c8>)
 8003048:	6f2e      	ldr	r6, [r5, #112]	@ 0x70
 800304a:	6d02      	ldr	r2, [r0, #80]	@ 0x50
 800304c:	f022 4200 	bic.w	r2, r2, #2147483648	@ 0x80000000
 8003050:	4332      	orrs	r2, r6
 8003052:	6502      	str	r2, [r0, #80]	@ 0x50
 8003054:	0298      	lsls	r0, r3, #10
 8003056:	d506      	bpl.n	8003066 <HAL_RCCEx_PeriphCLKConfig+0x6f6>
 8003058:	4837      	ldr	r0, [pc, #220]	@ (8003138 <HAL_RCCEx_PeriphCLKConfig+0x7c8>)
 800305a:	6eae      	ldr	r6, [r5, #104]	@ 0x68
 800305c:	6d02      	ldr	r2, [r0, #80]	@ 0x50
 800305e:	f022 7280 	bic.w	r2, r2, #16777216	@ 0x1000000
 8003062:	4332      	orrs	r2, r6
 8003064:	6502      	str	r2, [r0, #80]	@ 0x50
 8003066:	005a      	lsls	r2, r3, #1
 8003068:	d509      	bpl.n	800307e <HAL_RCCEx_PeriphCLKConfig+0x70e>
 800306a:	4a33      	ldr	r2, [pc, #204]	@ (8003138 <HAL_RCCEx_PeriphCLKConfig+0x7c8>)
 800306c:	6910      	ldr	r0, [r2, #16]
 800306e:	f420 4000 	bic.w	r0, r0, #32768	@ 0x8000
 8003072:	6110      	str	r0, [r2, #16]
 8003074:	6910      	ldr	r0, [r2, #16]
 8003076:	f8d5 60b4 	ldr.w	r6, [r5, #180]	@ 0xb4
 800307a:	4330      	orrs	r0, r6
 800307c:	6110      	str	r0, [r2, #16]
 800307e:	2b00      	cmp	r3, #0
 8003080:	da06      	bge.n	8003090 <HAL_RCCEx_PeriphCLKConfig+0x720>
 8003082:	482d      	ldr	r0, [pc, #180]	@ (8003138 <HAL_RCCEx_PeriphCLKConfig+0x7c8>)
 8003084:	6d6e      	ldr	r6, [r5, #84]	@ 0x54
 8003086:	6cc2      	ldr	r2, [r0, #76]	@ 0x4c
 8003088:	f022 5240 	bic.w	r2, r2, #805306368	@ 0x30000000
 800308c:	4332      	orrs	r2, r6
 800308e:	64c2      	str	r2, [r0, #76]	@ 0x4c
 8003090:	021f      	lsls	r7, r3, #8
 8003092:	d507      	bpl.n	80030a4 <HAL_RCCEx_PeriphCLKConfig+0x734>
 8003094:	4a28      	ldr	r2, [pc, #160]	@ (8003138 <HAL_RCCEx_PeriphCLKConfig+0x7c8>)
 8003096:	f8d5 0088 	ldr.w	r0, [r5, #136]	@ 0x88
 800309a:	6d53      	ldr	r3, [r2, #84]	@ 0x54
 800309c:	f423 0340 	bic.w	r3, r3, #12582912	@ 0xc00000
 80030a0:	4303      	orrs	r3, r0
 80030a2:	6553      	str	r3, [r2, #84]	@ 0x54
 80030a4:	07ce      	lsls	r6, r1, #31
 80030a6:	d506      	bpl.n	80030b6 <HAL_RCCEx_PeriphCLKConfig+0x746>
 80030a8:	2100      	movs	r1, #0
 80030aa:	f105 0008 	add.w	r0, r5, #8
 80030ae:	f7ff fb73 	bl	8002798 <RCCEx_PLL2_Config>
 80030b2:	4607      	mov	r7, r0
 80030b4:	b900      	cbnz	r0, 80030b8 <HAL_RCCEx_PeriphCLKConfig+0x748>
 80030b6:	4627      	mov	r7, r4
 80030b8:	686b      	ldr	r3, [r5, #4]
 80030ba:	079c      	lsls	r4, r3, #30
 80030bc:	d506      	bpl.n	80030cc <HAL_RCCEx_PeriphCLKConfig+0x75c>
 80030be:	2101      	movs	r1, #1
 80030c0:	f105 0008 	add.w	r0, r5, #8
 80030c4:	f7ff fb68 	bl	8002798 <RCCEx_PLL2_Config>
 80030c8:	4606      	mov	r6, r0
 80030ca:	b900      	cbnz	r0, 80030ce <HAL_RCCEx_PeriphCLKConfig+0x75e>
 80030cc:	463e      	mov	r6, r7
 80030ce:	686b      	ldr	r3, [r5, #4]
 80030d0:	0758      	lsls	r0, r3, #29
 80030d2:	d506      	bpl.n	80030e2 <HAL_RCCEx_PeriphCLKConfig+0x772>
 80030d4:	2102      	movs	r1, #2
 80030d6:	f105 0008 	add.w	r0, r5, #8
 80030da:	f7ff fb5d 	bl	8002798 <RCCEx_PLL2_Config>
 80030de:	4604      	mov	r4, r0
 80030e0:	b900      	cbnz	r0, 80030e4 <HAL_RCCEx_PeriphCLKConfig+0x774>
 80030e2:	4634      	mov	r4, r6
 80030e4:	686b      	ldr	r3, [r5, #4]
 80030e6:	0719      	lsls	r1, r3, #28
 80030e8:	d506      	bpl.n	80030f8 <HAL_RCCEx_PeriphCLKConfig+0x788>
 80030ea:	2100      	movs	r1, #0
 80030ec:	f105 0028 	add.w	r0, r5, #40	@ 0x28
 80030f0:	f7ff fbc8 	bl	8002884 <RCCEx_PLL3_Config>
 80030f4:	4606      	mov	r6, r0
 80030f6:	b900      	cbnz	r0, 80030fa <HAL_RCCEx_PeriphCLKConfig+0x78a>
 80030f8:	4626      	mov	r6, r4
 80030fa:	686b      	ldr	r3, [r5, #4]
 80030fc:	06da      	lsls	r2, r3, #27
 80030fe:	d506      	bpl.n	800310e <HAL_RCCEx_PeriphCLKConfig+0x79e>
 8003100:	2101      	movs	r1, #1
 8003102:	f105 0028 	add.w	r0, r5, #40	@ 0x28
 8003106:	f7ff fbbd 	bl	8002884 <RCCEx_PLL3_Config>
 800310a:	4604      	mov	r4, r0
 800310c:	b900      	cbnz	r0, 8003110 <HAL_RCCEx_PeriphCLKConfig+0x7a0>
 800310e:	4634      	mov	r4, r6
 8003110:	686b      	ldr	r3, [r5, #4]
 8003112:	069b      	lsls	r3, r3, #26
 8003114:	f100 80c9 	bmi.w	80032aa <HAL_RCCEx_PeriphCLKConfig+0x93a>
 8003118:	1e20      	subs	r0, r4, #0
 800311a:	bf18      	it	ne
 800311c:	2001      	movne	r0, #1
 800311e:	e8bd 83f8 	ldmia.w	sp!, {r3, r4, r5, r6, r7, r8, r9, pc}
 8003122:	2101      	movs	r1, #1
 8003124:	f105 0028 	add.w	r0, r5, #40	@ 0x28
 8003128:	f7ff fbac 	bl	8002884 <RCCEx_PLL3_Config>
 800312c:	e6b7      	b.n	8002e9e <HAL_RCCEx_PeriphCLKConfig+0x52e>
 800312e:	2601      	movs	r6, #1
 8003130:	4634      	mov	r4, r6
 8003132:	e6c0      	b.n	8002eb6 <HAL_RCCEx_PeriphCLKConfig+0x546>
 8003134:	4626      	mov	r6, r4
 8003136:	e6be      	b.n	8002eb6 <HAL_RCCEx_PeriphCLKConfig+0x546>
 8003138:	58024400 	.word	0x58024400
 800313c:	f023 5280 	bic.w	r2, r3, #268435456	@ 0x10000000
 8003140:	f1b2 4f80 	cmp.w	r2, #1073741824	@ 0x40000000
 8003144:	d003      	beq.n	800314e <HAL_RCCEx_PeriphCLKConfig+0x7de>
 8003146:	f1b3 5f40 	cmp.w	r3, #805306368	@ 0x30000000
 800314a:	f47f aec6 	bne.w	8002eda <HAL_RCCEx_PeriphCLKConfig+0x56a>
 800314e:	b9ac      	cbnz	r4, 800317c <HAL_RCCEx_PeriphCLKConfig+0x80c>
 8003150:	4a5b      	ldr	r2, [pc, #364]	@ (80032c0 <HAL_RCCEx_PeriphCLKConfig+0x950>)
 8003152:	f8d5 108c 	ldr.w	r1, [r5, #140]	@ 0x8c
 8003156:	6d53      	ldr	r3, [r2, #84]	@ 0x54
 8003158:	f023 43e0 	bic.w	r3, r3, #1879048192	@ 0x70000000
 800315c:	430b      	orrs	r3, r1
 800315e:	6553      	str	r3, [r2, #84]	@ 0x54
 8003160:	e6bd      	b.n	8002ede <HAL_RCCEx_PeriphCLKConfig+0x56e>
 8003162:	2100      	movs	r1, #0
 8003164:	f105 0008 	add.w	r0, r5, #8
 8003168:	f7ff fb16 	bl	8002798 <RCCEx_PLL2_Config>
 800316c:	4604      	mov	r4, r0
 800316e:	e7ee      	b.n	800314e <HAL_RCCEx_PeriphCLKConfig+0x7de>
 8003170:	2102      	movs	r1, #2
 8003172:	f105 0028 	add.w	r0, r5, #40	@ 0x28
 8003176:	f7ff fb85 	bl	8002884 <RCCEx_PLL3_Config>
 800317a:	e7f7      	b.n	800316c <HAL_RCCEx_PeriphCLKConfig+0x7fc>
 800317c:	4626      	mov	r6, r4
 800317e:	e6ae      	b.n	8002ede <HAL_RCCEx_PeriphCLKConfig+0x56e>
 8003180:	f423 6280 	bic.w	r2, r3, #1024	@ 0x400
 8003184:	f5b2 5f80 	cmp.w	r2, #4096	@ 0x1000
 8003188:	d003      	beq.n	8003192 <HAL_RCCEx_PeriphCLKConfig+0x822>
 800318a:	f5b3 6f40 	cmp.w	r3, #3072	@ 0xc00
 800318e:	f47f aeb8 	bne.w	8002f02 <HAL_RCCEx_PeriphCLKConfig+0x592>
 8003192:	b9ac      	cbnz	r4, 80031c0 <HAL_RCCEx_PeriphCLKConfig+0x850>
 8003194:	4a4a      	ldr	r2, [pc, #296]	@ (80032c0 <HAL_RCCEx_PeriphCLKConfig+0x950>)
 8003196:	f8d5 1098 	ldr.w	r1, [r5, #152]	@ 0x98
 800319a:	6d93      	ldr	r3, [r2, #88]	@ 0x58
 800319c:	f423 53e0 	bic.w	r3, r3, #7168	@ 0x1c00
 80031a0:	430b      	orrs	r3, r1
 80031a2:	6593      	str	r3, [r2, #88]	@ 0x58
 80031a4:	e6af      	b.n	8002f06 <HAL_RCCEx_PeriphCLKConfig+0x596>
 80031a6:	2100      	movs	r1, #0
 80031a8:	f105 0008 	add.w	r0, r5, #8
 80031ac:	f7ff faf4 	bl	8002798 <RCCEx_PLL2_Config>
 80031b0:	4604      	mov	r4, r0
 80031b2:	e7ee      	b.n	8003192 <HAL_RCCEx_PeriphCLKConfig+0x822>
 80031b4:	2102      	movs	r1, #2
 80031b6:	f105 0028 	add.w	r0, r5, #40	@ 0x28
 80031ba:	f7ff fb63 	bl	8002884 <RCCEx_PLL3_Config>
 80031be:	e7f7      	b.n	80031b0 <HAL_RCCEx_PeriphCLKConfig+0x840>
 80031c0:	4626      	mov	r6, r4
 80031c2:	e6a0      	b.n	8002f06 <HAL_RCCEx_PeriphCLKConfig+0x596>
 80031c4:	f423 5200 	bic.w	r2, r3, #8192	@ 0x2000
 80031c8:	f5b2 4f00 	cmp.w	r2, #32768	@ 0x8000
 80031cc:	d003      	beq.n	80031d6 <HAL_RCCEx_PeriphCLKConfig+0x866>
 80031ce:	f5b3 4fc0 	cmp.w	r3, #24576	@ 0x6000
 80031d2:	f47f aeaa 	bne.w	8002f2a <HAL_RCCEx_PeriphCLKConfig+0x5ba>
 80031d6:	b9ac      	cbnz	r4, 8003204 <HAL_RCCEx_PeriphCLKConfig+0x894>
 80031d8:	4a39      	ldr	r2, [pc, #228]	@ (80032c0 <HAL_RCCEx_PeriphCLKConfig+0x950>)
 80031da:	f8d5 109c 	ldr.w	r1, [r5, #156]	@ 0x9c
 80031de:	6d93      	ldr	r3, [r2, #88]	@ 0x58
 80031e0:	f423 4360 	bic.w	r3, r3, #57344	@ 0xe000
 80031e4:	430b      	orrs	r3, r1
 80031e6:	6593      	str	r3, [r2, #88]	@ 0x58
 80031e8:	e6a1      	b.n	8002f2e <HAL_RCCEx_PeriphCLKConfig+0x5be>
 80031ea:	2100      	movs	r1, #0
 80031ec:	f105 0008 	add.w	r0, r5, #8
 80031f0:	f7ff fad2 	bl	8002798 <RCCEx_PLL2_Config>
 80031f4:	4604      	mov	r4, r0
 80031f6:	e7ee      	b.n	80031d6 <HAL_RCCEx_PeriphCLKConfig+0x866>
 80031f8:	2102      	movs	r1, #2
 80031fa:	f105 0028 	add.w	r0, r5, #40	@ 0x28
 80031fe:	f7ff fb41 	bl	8002884 <RCCEx_PLL3_Config>
 8003202:	e7f7      	b.n	80031f4 <HAL_RCCEx_PeriphCLKConfig+0x884>
 8003204:	4626      	mov	r6, r4
 8003206:	e692      	b.n	8002f2e <HAL_RCCEx_PeriphCLKConfig+0x5be>
 8003208:	2102      	movs	r1, #2
 800320a:	f105 0028 	add.w	r0, r5, #40	@ 0x28
 800320e:	f7ff fb39 	bl	8002884 <RCCEx_PLL3_Config>
 8003212:	e6cf      	b.n	8002fb4 <HAL_RCCEx_PeriphCLKConfig+0x644>
 8003214:	2601      	movs	r6, #1
 8003216:	4634      	mov	r4, r6
 8003218:	e6d8      	b.n	8002fcc <HAL_RCCEx_PeriphCLKConfig+0x65c>
 800321a:	4626      	mov	r6, r4
 800321c:	e6d6      	b.n	8002fcc <HAL_RCCEx_PeriphCLKConfig+0x65c>
 800321e:	4a28      	ldr	r2, [pc, #160]	@ (80032c0 <HAL_RCCEx_PeriphCLKConfig+0x950>)
 8003220:	6ad3      	ldr	r3, [r2, #44]	@ 0x2c
 8003222:	f443 3300 	orr.w	r3, r3, #131072	@ 0x20000
 8003226:	62d3      	str	r3, [r2, #44]	@ 0x2c
 8003228:	b97c      	cbnz	r4, 800324a <HAL_RCCEx_PeriphCLKConfig+0x8da>
 800322a:	4a25      	ldr	r2, [pc, #148]	@ (80032c0 <HAL_RCCEx_PeriphCLKConfig+0x950>)
 800322c:	f8d5 1084 	ldr.w	r1, [r5, #132]	@ 0x84
 8003230:	6d53      	ldr	r3, [r2, #84]	@ 0x54
 8003232:	f423 1340 	bic.w	r3, r3, #3145728	@ 0x300000
 8003236:	430b      	orrs	r3, r1
 8003238:	6553      	str	r3, [r2, #84]	@ 0x54
 800323a:	e6da      	b.n	8002ff2 <HAL_RCCEx_PeriphCLKConfig+0x682>
 800323c:	2101      	movs	r1, #1
 800323e:	f105 0028 	add.w	r0, r5, #40	@ 0x28
 8003242:	f7ff fb1f 	bl	8002884 <RCCEx_PLL3_Config>
 8003246:	4604      	mov	r4, r0
 8003248:	e7ee      	b.n	8003228 <HAL_RCCEx_PeriphCLKConfig+0x8b8>
 800324a:	4626      	mov	r6, r4
 800324c:	e6d1      	b.n	8002ff2 <HAL_RCCEx_PeriphCLKConfig+0x682>
 800324e:	4a1c      	ldr	r2, [pc, #112]	@ (80032c0 <HAL_RCCEx_PeriphCLKConfig+0x950>)
 8003250:	6ad3      	ldr	r3, [r2, #44]	@ 0x2c
 8003252:	f443 3300 	orr.w	r3, r3, #131072	@ 0x20000
 8003256:	62d3      	str	r3, [r2, #44]	@ 0x2c
 8003258:	b974      	cbnz	r4, 8003278 <HAL_RCCEx_PeriphCLKConfig+0x908>
 800325a:	4a19      	ldr	r2, [pc, #100]	@ (80032c0 <HAL_RCCEx_PeriphCLKConfig+0x950>)
 800325c:	6d29      	ldr	r1, [r5, #80]	@ 0x50
 800325e:	6cd3      	ldr	r3, [r2, #76]	@ 0x4c
 8003260:	f423 3380 	bic.w	r3, r3, #65536	@ 0x10000
 8003264:	430b      	orrs	r3, r1
 8003266:	64d3      	str	r3, [r2, #76]	@ 0x4c
 8003268:	e6d0      	b.n	800300c <HAL_RCCEx_PeriphCLKConfig+0x69c>
 800326a:	2102      	movs	r1, #2
 800326c:	f105 0008 	add.w	r0, r5, #8
 8003270:	f7ff fa92 	bl	8002798 <RCCEx_PLL2_Config>
 8003274:	4604      	mov	r4, r0
 8003276:	e7ef      	b.n	8003258 <HAL_RCCEx_PeriphCLKConfig+0x8e8>
 8003278:	4626      	mov	r6, r4
 800327a:	e6c7      	b.n	800300c <HAL_RCCEx_PeriphCLKConfig+0x69c>
 800327c:	f420 7280 	bic.w	r2, r0, #256	@ 0x100
 8003280:	f5b2 7f00 	cmp.w	r2, #512	@ 0x200
 8003284:	f47f aedc 	bne.w	8003040 <HAL_RCCEx_PeriphCLKConfig+0x6d0>
 8003288:	2c00      	cmp	r4, #0
 800328a:	f47f aeda 	bne.w	8003042 <HAL_RCCEx_PeriphCLKConfig+0x6d2>
 800328e:	4c0c      	ldr	r4, [pc, #48]	@ (80032c0 <HAL_RCCEx_PeriphCLKConfig+0x950>)
 8003290:	6d62      	ldr	r2, [r4, #84]	@ 0x54
 8003292:	f422 7240 	bic.w	r2, r2, #768	@ 0x300
 8003296:	4302      	orrs	r2, r0
 8003298:	6562      	str	r2, [r4, #84]	@ 0x54
 800329a:	4634      	mov	r4, r6
 800329c:	e6d1      	b.n	8003042 <HAL_RCCEx_PeriphCLKConfig+0x6d2>
 800329e:	4f08      	ldr	r7, [pc, #32]	@ (80032c0 <HAL_RCCEx_PeriphCLKConfig+0x950>)
 80032a0:	6afa      	ldr	r2, [r7, #44]	@ 0x2c
 80032a2:	f442 3200 	orr.w	r2, r2, #131072	@ 0x20000
 80032a6:	62fa      	str	r2, [r7, #44]	@ 0x2c
 80032a8:	e7ee      	b.n	8003288 <HAL_RCCEx_PeriphCLKConfig+0x918>
 80032aa:	2102      	movs	r1, #2
 80032ac:	f105 0028 	add.w	r0, r5, #40	@ 0x28
 80032b0:	f7ff fae8 	bl	8002884 <RCCEx_PLL3_Config>
 80032b4:	2800      	cmp	r0, #0
 80032b6:	f43f af2f 	beq.w	8003118 <HAL_RCCEx_PeriphCLKConfig+0x7a8>
 80032ba:	2001      	movs	r0, #1
 80032bc:	e72f      	b.n	800311e <HAL_RCCEx_PeriphCLKConfig+0x7ae>
 80032be:	bf00      	nop
 80032c0:	58024400 	.word	0x58024400

080032c4 <HAL_RCCEx_GetD3PCLK1Freq>:
 80032c4:	b508      	push	{r3, lr}
 80032c6:	f7ff f9f7 	bl	80026b8 <HAL_RCC_GetHCLKFreq>
 80032ca:	4b05      	ldr	r3, [pc, #20]	@ (80032e0 <HAL_RCCEx_GetD3PCLK1Freq+0x1c>)
 80032cc:	4a05      	ldr	r2, [pc, #20]	@ (80032e4 <HAL_RCCEx_GetD3PCLK1Freq+0x20>)
 80032ce:	6a1b      	ldr	r3, [r3, #32]
 80032d0:	f3c3 1302 	ubfx	r3, r3, #4, #3
 80032d4:	5cd3      	ldrb	r3, [r2, r3]
 80032d6:	f003 031f 	and.w	r3, r3, #31
 80032da:	40d8      	lsrs	r0, r3
 80032dc:	bd08      	pop	{r3, pc}
 80032de:	bf00      	nop
 80032e0:	58024400 	.word	0x58024400
 80032e4:	0800902e 	.word	0x0800902e

080032e8 <HAL_RCCEx_GetPLL2ClockFreq>:
 80032e8:	494f      	ldr	r1, [pc, #316]	@ (8003428 <HAL_RCCEx_GetPLL2ClockFreq+0x140>)
 80032ea:	b570      	push	{r4, r5, r6, lr}
 80032ec:	6a8c      	ldr	r4, [r1, #40]	@ 0x28
 80032ee:	6a8e      	ldr	r6, [r1, #40]	@ 0x28
 80032f0:	6acd      	ldr	r5, [r1, #44]	@ 0x2c
 80032f2:	f416 3f7c 	tst.w	r6, #258048	@ 0x3f000
 80032f6:	f3c6 3305 	ubfx	r3, r6, #12, #6
 80032fa:	6bca      	ldr	r2, [r1, #60]	@ 0x3c
 80032fc:	f000 8090 	beq.w	8003420 <HAL_RCCEx_GetPLL2ClockFreq+0x138>
 8003300:	ee07 3a90 	vmov	s15, r3
 8003304:	f3c2 03cc 	ubfx	r3, r2, #3, #13
 8003308:	f3c5 1200 	ubfx	r2, r5, #4, #1
 800330c:	f004 0403 	and.w	r4, r4, #3
 8003310:	eeb8 7ae7 	vcvt.f32.s32	s14, s15
 8003314:	4353      	muls	r3, r2
 8003316:	2c01      	cmp	r4, #1
 8003318:	eeb7 6a00 	vmov.f32	s12, #112	@ 0x3f800000  1.0
 800331c:	ee06 3a90 	vmov	s13, r3
 8003320:	eefa 6ae9 	vcvt.f32.s32	s13, s13, #13
 8003324:	d06e      	beq.n	8003404 <HAL_RCCEx_GetPLL2ClockFreq+0x11c>
 8003326:	2c02      	cmp	r4, #2
 8003328:	d05e      	beq.n	80033e8 <HAL_RCCEx_GetPLL2ClockFreq+0x100>
 800332a:	2c00      	cmp	r4, #0
 800332c:	d16a      	bne.n	8003404 <HAL_RCCEx_GetPLL2ClockFreq+0x11c>
 800332e:	680b      	ldr	r3, [r1, #0]
 8003330:	069b      	lsls	r3, r3, #26
 8003332:	d547      	bpl.n	80033c4 <HAL_RCCEx_GetPLL2ClockFreq+0xdc>
 8003334:	680a      	ldr	r2, [r1, #0]
 8003336:	6b8b      	ldr	r3, [r1, #56]	@ 0x38
 8003338:	f3c2 01c1 	ubfx	r1, r2, #3, #2
 800333c:	4a3b      	ldr	r2, [pc, #236]	@ (800342c <HAL_RCCEx_GetPLL2ClockFreq+0x144>)
 800333e:	f3c3 0308 	ubfx	r3, r3, #0, #9
 8003342:	40ca      	lsrs	r2, r1
 8003344:	ee07 2a90 	vmov	s15, r2
 8003348:	eef8 5ae7 	vcvt.f32.s32	s11, s15
 800334c:	eec5 7a87 	vdiv.f32	s15, s11, s14
 8003350:	ee07 3a10 	vmov	s14, r3
 8003354:	eeb8 7ac7 	vcvt.f32.s32	s14, s14
 8003358:	ee37 7a26 	vadd.f32	s14, s14, s13
 800335c:	ee37 7a06 	vadd.f32	s14, s14, s12
 8003360:	ee67 7a87 	vmul.f32	s15, s15, s14
 8003364:	4a30      	ldr	r2, [pc, #192]	@ (8003428 <HAL_RCCEx_GetPLL2ClockFreq+0x140>)
 8003366:	6b93      	ldr	r3, [r2, #56]	@ 0x38
 8003368:	f3c3 2346 	ubfx	r3, r3, #9, #7
 800336c:	ee07 3a10 	vmov	s14, r3
 8003370:	eeb8 7ac7 	vcvt.f32.s32	s14, s14
 8003374:	ee37 7a06 	vadd.f32	s14, s14, s12
 8003378:	eec7 6a87 	vdiv.f32	s13, s15, s14
 800337c:	eefc 6ae6 	vcvt.u32.f32	s13, s13
 8003380:	edc0 6a00 	vstr	s13, [r0]
 8003384:	6b93      	ldr	r3, [r2, #56]	@ 0x38
 8003386:	f3c3 4306 	ubfx	r3, r3, #16, #7
 800338a:	ee07 3a10 	vmov	s14, r3
 800338e:	eeb8 7ac7 	vcvt.f32.s32	s14, s14
 8003392:	ee37 7a06 	vadd.f32	s14, s14, s12
 8003396:	eec7 6a87 	vdiv.f32	s13, s15, s14
 800339a:	eefc 6ae6 	vcvt.u32.f32	s13, s13
 800339e:	edc0 6a01 	vstr	s13, [r0, #4]
 80033a2:	6b93      	ldr	r3, [r2, #56]	@ 0x38
 80033a4:	f3c3 6306 	ubfx	r3, r3, #24, #7
 80033a8:	ee06 3a90 	vmov	s13, r3
 80033ac:	eef8 6ae6 	vcvt.f32.s32	s13, s13
 80033b0:	ee76 6a86 	vadd.f32	s13, s13, s12
 80033b4:	ee87 7aa6 	vdiv.f32	s14, s15, s13
 80033b8:	eefc 7ac7 	vcvt.u32.f32	s15, s14
 80033bc:	ee17 3a90 	vmov	r3, s15
 80033c0:	6083      	str	r3, [r0, #8]
 80033c2:	bd70      	pop	{r4, r5, r6, pc}
 80033c4:	6b8b      	ldr	r3, [r1, #56]	@ 0x38
 80033c6:	eddf 5a1a 	vldr	s11, [pc, #104]	@ 8003430 <HAL_RCCEx_GetPLL2ClockFreq+0x148>
 80033ca:	f3c3 0308 	ubfx	r3, r3, #0, #9
 80033ce:	ee07 3a90 	vmov	s15, r3
 80033d2:	eef8 7ae7 	vcvt.f32.s32	s15, s15
 80033d6:	ee77 7aa6 	vadd.f32	s15, s15, s13
 80033da:	ee77 7a86 	vadd.f32	s15, s15, s12
 80033de:	eec5 6a87 	vdiv.f32	s13, s11, s14
 80033e2:	ee67 7aa6 	vmul.f32	s15, s15, s13
 80033e6:	e7bd      	b.n	8003364 <HAL_RCCEx_GetPLL2ClockFreq+0x7c>
 80033e8:	6b8b      	ldr	r3, [r1, #56]	@ 0x38
 80033ea:	eddf 5a12 	vldr	s11, [pc, #72]	@ 8003434 <HAL_RCCEx_GetPLL2ClockFreq+0x14c>
 80033ee:	f3c3 0308 	ubfx	r3, r3, #0, #9
 80033f2:	ee07 3a90 	vmov	s15, r3
 80033f6:	eef8 7ae7 	vcvt.f32.s32	s15, s15
 80033fa:	ee77 7aa6 	vadd.f32	s15, s15, s13
 80033fe:	ee77 7a86 	vadd.f32	s15, s15, s12
 8003402:	e7ec      	b.n	80033de <HAL_RCCEx_GetPLL2ClockFreq+0xf6>
 8003404:	6b8b      	ldr	r3, [r1, #56]	@ 0x38
 8003406:	eddf 5a0c 	vldr	s11, [pc, #48]	@ 8003438 <HAL_RCCEx_GetPLL2ClockFreq+0x150>
 800340a:	f3c3 0308 	ubfx	r3, r3, #0, #9
 800340e:	ee07 3a90 	vmov	s15, r3
 8003412:	eef8 7ae7 	vcvt.f32.s32	s15, s15
 8003416:	ee77 7aa6 	vadd.f32	s15, s15, s13
 800341a:	ee77 7a86 	vadd.f32	s15, s15, s12
 800341e:	e7de      	b.n	80033de <HAL_RCCEx_GetPLL2ClockFreq+0xf6>
 8003420:	e9c0 3300 	strd	r3, r3, [r0]
 8003424:	e7cc      	b.n	80033c0 <HAL_RCCEx_GetPLL2ClockFreq+0xd8>
 8003426:	bf00      	nop
 8003428:	58024400 	.word	0x58024400
 800342c:	03d09000 	.word	0x03d09000
 8003430:	4c742400 	.word	0x4c742400
 8003434:	4bbebc20 	.word	0x4bbebc20
 8003438:	4a742400 	.word	0x4a742400

0800343c <HAL_RCCEx_GetPLL3ClockFreq>:
 800343c:	494f      	ldr	r1, [pc, #316]	@ (800357c <HAL_RCCEx_GetPLL3ClockFreq+0x140>)
 800343e:	b570      	push	{r4, r5, r6, lr}
 8003440:	6a8c      	ldr	r4, [r1, #40]	@ 0x28
 8003442:	6a8e      	ldr	r6, [r1, #40]	@ 0x28
 8003444:	6acd      	ldr	r5, [r1, #44]	@ 0x2c
 8003446:	f016 7f7c 	tst.w	r6, #66060288	@ 0x3f00000
 800344a:	f3c6 5305 	ubfx	r3, r6, #20, #6
 800344e:	6c4a      	ldr	r2, [r1, #68]	@ 0x44
 8003450:	f000 8090 	beq.w	8003574 <HAL_RCCEx_GetPLL3ClockFreq+0x138>
 8003454:	ee07 3a90 	vmov	s15, r3
 8003458:	f3c2 03cc 	ubfx	r3, r2, #3, #13
 800345c:	f3c5 2200 	ubfx	r2, r5, #8, #1
 8003460:	f004 0403 	and.w	r4, r4, #3
 8003464:	eeb8 7ae7 	vcvt.f32.s32	s14, s15
 8003468:	4353      	muls	r3, r2
 800346a:	2c01      	cmp	r4, #1
 800346c:	eeb7 6a00 	vmov.f32	s12, #112	@ 0x3f800000  1.0
 8003470:	ee06 3a90 	vmov	s13, r3
 8003474:	eefa 6ae9 	vcvt.f32.s32	s13, s13, #13
 8003478:	d06e      	beq.n	8003558 <HAL_RCCEx_GetPLL3ClockFreq+0x11c>
 800347a:	2c02      	cmp	r4, #2
 800347c:	d05e      	beq.n	800353c <HAL_RCCEx_GetPLL3ClockFreq+0x100>
 800347e:	2c00      	cmp	r4, #0
 8003480:	d16a      	bne.n	8003558 <HAL_RCCEx_GetPLL3ClockFreq+0x11c>
 8003482:	680b      	ldr	r3, [r1, #0]
 8003484:	069b      	lsls	r3, r3, #26
 8003486:	d547      	bpl.n	8003518 <HAL_RCCEx_GetPLL3ClockFreq+0xdc>
 8003488:	680a      	ldr	r2, [r1, #0]
 800348a:	6c0b      	ldr	r3, [r1, #64]	@ 0x40
 800348c:	f3c2 01c1 	ubfx	r1, r2, #3, #2
 8003490:	4a3b      	ldr	r2, [pc, #236]	@ (8003580 <HAL_RCCEx_GetPLL3ClockFreq+0x144>)
 8003492:	f3c3 0308 	ubfx	r3, r3, #0, #9
 8003496:	40ca      	lsrs	r2, r1
 8003498:	ee07 2a90 	vmov	s15, r2
 800349c:	eef8 5ae7 	vcvt.f32.s32	s11, s15
 80034a0:	eec5 7a87 	vdiv.f32	s15, s11, s14
 80034a4:	ee07 3a10 	vmov	s14, r3
 80034a8:	eeb8 7ac7 	vcvt.f32.s32	s14, s14
 80034ac:	ee37 7a26 	vadd.f32	s14, s14, s13
 80034b0:	ee37 7a06 	vadd.f32	s14, s14, s12
 80034b4:	ee67 7a87 	vmul.f32	s15, s15, s14
 80034b8:	4a30      	ldr	r2, [pc, #192]	@ (800357c <HAL_RCCEx_GetPLL3ClockFreq+0x140>)
 80034ba:	6c13      	ldr	r3, [r2, #64]	@ 0x40
 80034bc:	f3c3 2346 	ubfx	r3, r3, #9, #7
 80034c0:	ee07 3a10 	vmov	s14, r3
 80034c4:	eeb8 7ac7 	vcvt.f32.s32	s14, s14
 80034c8:	ee37 7a06 	vadd.f32	s14, s14, s12
 80034cc:	eec7 6a87 	vdiv.f32	s13, s15, s14
 80034d0:	eefc 6ae6 	vcvt.u32.f32	s13, s13
 80034d4:	edc0 6a00 	vstr	s13, [r0]
 80034d8:	6c13      	ldr	r3, [r2, #64]	@ 0x40
 80034da:	f3c3 4306 	ubfx	r3, r3, #16, #7
 80034de:	ee07 3a10 	vmov	s14, r3
 80034e2:	eeb8 7ac7 	vcvt.f32.s32	s14, s14
 80034e6:	ee37 7a06 	vadd.f32	s14, s14, s12
 80034ea:	eec7 6a87 	vdiv.f32	s13, s15, s14
 80034ee:	eefc 6ae6 	vcvt.u32.f32	s13, s13
 80034f2:	edc0 6a01 	vstr	s13, [r0, #4]
 80034f6:	6c13      	ldr	r3, [r2, #64]	@ 0x40
 80034f8:	f3c3 6306 	ubfx	r3, r3, #24, #7
 80034fc:	ee06 3a90 	vmov	s13, r3
 8003500:	eef8 6ae6 	vcvt.f32.s32	s13, s13
 8003504:	ee76 6a86 	vadd.f32	s13, s13, s12
 8003508:	ee87 7aa6 	vdiv.f32	s14, s15, s13
 800350c:	eefc 7ac7 	vcvt.u32.f32	s15, s14
 8003510:	ee17 3a90 	vmov	r3, s15
 8003514:	6083      	str	r3, [r0, #8]
 8003516:	bd70      	pop	{r4, r5, r6, pc}
 8003518:	6c0b      	ldr	r3, [r1, #64]	@ 0x40
 800351a:	eddf 5a1a 	vldr	s11, [pc, #104]	@ 8003584 <HAL_RCCEx_GetPLL3ClockFreq+0x148>
 800351e:	f3c3 0308 	ubfx	r3, r3, #0, #9
 8003522:	ee07 3a90 	vmov	s15, r3
 8003526:	eef8 7ae7 	vcvt.f32.s32	s15, s15
 800352a:	ee77 7aa6 	vadd.f32	s15, s15, s13
 800352e:	ee77 7a86 	vadd.f32	s15, s15, s12
 8003532:	eec5 6a87 	vdiv.f32	s13, s11, s14
 8003536:	ee67 7aa6 	vmul.f32	s15, s15, s13
 800353a:	e7bd      	b.n	80034b8 <HAL_RCCEx_GetPLL3ClockFreq+0x7c>
 800353c:	6c0b      	ldr	r3, [r1, #64]	@ 0x40
 800353e:	eddf 5a12 	vldr	s11, [pc, #72]	@ 8003588 <HAL_RCCEx_GetPLL3ClockFreq+0x14c>
 8003542:	f3c3 0308 	ubfx	r3, r3, #0, #9
 8003546:	ee07 3a90 	vmov	s15, r3
 800354a:	eef8 7ae7 	vcvt.f32.s32	s15, s15
 800354e:	ee77 7aa6 	vadd.f32	s15, s15, s13
 8003552:	ee77 7a86 	vadd.f32	s15, s15, s12
 8003556:	e7ec      	b.n	8003532 <HAL_RCCEx_GetPLL3ClockFreq+0xf6>
 8003558:	6c0b      	ldr	r3, [r1, #64]	@ 0x40
 800355a:	eddf 5a0c 	vldr	s11, [pc, #48]	@ 800358c <HAL_RCCEx_GetPLL3ClockFreq+0x150>
 800355e:	f3c3 0308 	ubfx	r3, r3, #0, #9
 8003562:	ee07 3a90 	vmov	s15, r3
 8003566:	eef8 7ae7 	vcvt.f32.s32	s15, s15
 800356a:	ee77 7aa6 	vadd.f32	s15, s15, s13
 800356e:	ee77 7a86 	vadd.f32	s15, s15, s12
 8003572:	e7de      	b.n	8003532 <HAL_RCCEx_GetPLL3ClockFreq+0xf6>
 8003574:	e9c0 3300 	strd	r3, r3, [r0]
 8003578:	e7cc      	b.n	8003514 <HAL_RCCEx_GetPLL3ClockFreq+0xd8>
 800357a:	bf00      	nop
 800357c:	58024400 	.word	0x58024400
 8003580:	03d09000 	.word	0x03d09000
 8003584:	4c742400 	.word	0x4c742400
 8003588:	4bbebc20 	.word	0x4bbebc20
 800358c:	4a742400 	.word	0x4a742400

08003590 <HAL_SPI_Init>:
 8003590:	b5f8      	push	{r3, r4, r5, r6, r7, lr}
 8003592:	4604      	mov	r4, r0
 8003594:	b908      	cbnz	r0, 800359a <HAL_SPI_Init+0xa>
 8003596:	2001      	movs	r0, #1
 8003598:	bdf8      	pop	{r3, r4, r5, r6, r7, pc}
 800359a:	6802      	ldr	r2, [r0, #0]
 800359c:	2300      	movs	r3, #0
 800359e:	494d      	ldr	r1, [pc, #308]	@ (80036d4 <HAL_SPI_Init+0x144>)
 80035a0:	6283      	str	r3, [r0, #40]	@ 0x28
 80035a2:	428a      	cmp	r2, r1
 80035a4:	68c3      	ldr	r3, [r0, #12]
 80035a6:	d009      	beq.n	80035bc <HAL_SPI_Init+0x2c>
 80035a8:	f5a1 4178 	sub.w	r1, r1, #63488	@ 0xf800
 80035ac:	428a      	cmp	r2, r1
 80035ae:	d005      	beq.n	80035bc <HAL_SPI_Init+0x2c>
 80035b0:	f501 6180 	add.w	r1, r1, #1024	@ 0x400
 80035b4:	428a      	cmp	r2, r1
 80035b6:	d001      	beq.n	80035bc <HAL_SPI_Init+0x2c>
 80035b8:	2b0f      	cmp	r3, #15
 80035ba:	d8ec      	bhi.n	8003596 <HAL_SPI_Init+0x6>
 80035bc:	6be1      	ldr	r1, [r4, #60]	@ 0x3c
 80035be:	3308      	adds	r3, #8
 80035c0:	0949      	lsrs	r1, r1, #5
 80035c2:	08db      	lsrs	r3, r3, #3
 80035c4:	fb01 3303 	mla	r3, r1, r3, r3
 80035c8:	4942      	ldr	r1, [pc, #264]	@ (80036d4 <HAL_SPI_Init+0x144>)
 80035ca:	428a      	cmp	r2, r1
 80035cc:	d073      	beq.n	80036b6 <HAL_SPI_Init+0x126>
 80035ce:	f5a1 4178 	sub.w	r1, r1, #63488	@ 0xf800
 80035d2:	428a      	cmp	r2, r1
 80035d4:	d06f      	beq.n	80036b6 <HAL_SPI_Init+0x126>
 80035d6:	f501 6180 	add.w	r1, r1, #1024	@ 0x400
 80035da:	428a      	cmp	r2, r1
 80035dc:	d06b      	beq.n	80036b6 <HAL_SPI_Init+0x126>
 80035de:	2b08      	cmp	r3, #8
 80035e0:	d8d9      	bhi.n	8003596 <HAL_SPI_Init+0x6>
 80035e2:	f894 3081 	ldrb.w	r3, [r4, #129]	@ 0x81
 80035e6:	f003 02ff 	and.w	r2, r3, #255	@ 0xff
 80035ea:	b923      	cbnz	r3, 80035f6 <HAL_SPI_Init+0x66>
 80035ec:	4620      	mov	r0, r4
 80035ee:	f884 2080 	strb.w	r2, [r4, #128]	@ 0x80
 80035f2:	f7fd fe87 	bl	8001304 <HAL_SPI_MspInit>
 80035f6:	6822      	ldr	r2, [r4, #0]
 80035f8:	2302      	movs	r3, #2
 80035fa:	6861      	ldr	r1, [r4, #4]
 80035fc:	f884 3081 	strb.w	r3, [r4, #129]	@ 0x81
 8003600:	6813      	ldr	r3, [r2, #0]
 8003602:	6ba6      	ldr	r6, [r4, #56]	@ 0x38
 8003604:	f023 0301 	bic.w	r3, r3, #1
 8003608:	6013      	str	r3, [r2, #0]
 800360a:	6893      	ldr	r3, [r2, #8]
 800360c:	f403 1cf8 	and.w	ip, r3, #2031616	@ 0x1f0000
 8003610:	69a3      	ldr	r3, [r4, #24]
 8003612:	f1b3 6f80 	cmp.w	r3, #67108864	@ 0x4000000
 8003616:	d104      	bne.n	8003622 <HAL_SPI_Init+0x92>
 8003618:	f5b1 0f80 	cmp.w	r1, #4194304	@ 0x400000
 800361c:	d14d      	bne.n	80036ba <HAL_SPI_Init+0x12a>
 800361e:	2e00      	cmp	r6, #0
 8003620:	d050      	beq.n	80036c4 <HAL_SPI_Init+0x134>
 8003622:	f411 0080 	ands.w	r0, r1, #4194304	@ 0x400000
 8003626:	68e5      	ldr	r5, [r4, #12]
 8003628:	6817      	ldr	r7, [r2, #0]
 800362a:	d050      	beq.n	80036ce <HAL_SPI_Init+0x13e>
 800362c:	2d06      	cmp	r5, #6
 800362e:	d94e      	bls.n	80036ce <HAL_SPI_Init+0x13e>
 8003630:	f427 7e80 	bic.w	lr, r7, #256	@ 0x100
 8003634:	6d27      	ldr	r7, [r4, #80]	@ 0x50
 8003636:	ea4e 0707 	orr.w	r7, lr, r7
 800363a:	6017      	str	r7, [r2, #0]
 800363c:	430b      	orrs	r3, r1
 800363e:	69e7      	ldr	r7, [r4, #28]
 8003640:	4333      	orrs	r3, r6
 8003642:	433d      	orrs	r5, r7
 8003644:	6aa7      	ldr	r7, [r4, #40]	@ 0x28
 8003646:	433d      	orrs	r5, r7
 8003648:	6be7      	ldr	r7, [r4, #60]	@ 0x3c
 800364a:	433d      	orrs	r5, r7
 800364c:	ea45 050c 	orr.w	r5, r5, ip
 8003650:	6095      	str	r5, [r2, #8]
 8003652:	6b65      	ldr	r5, [r4, #52]	@ 0x34
 8003654:	432b      	orrs	r3, r5
 8003656:	6a65      	ldr	r5, [r4, #36]	@ 0x24
 8003658:	432b      	orrs	r3, r5
 800365a:	6925      	ldr	r5, [r4, #16]
 800365c:	432b      	orrs	r3, r5
 800365e:	6965      	ldr	r5, [r4, #20]
 8003660:	432b      	orrs	r3, r5
 8003662:	6a25      	ldr	r5, [r4, #32]
 8003664:	432b      	orrs	r3, r5
 8003666:	6ce5      	ldr	r5, [r4, #76]	@ 0x4c
 8003668:	432b      	orrs	r3, r5
 800366a:	68a5      	ldr	r5, [r4, #8]
 800366c:	432b      	orrs	r3, r5
 800366e:	6ca5      	ldr	r5, [r4, #72]	@ 0x48
 8003670:	432b      	orrs	r3, r5
 8003672:	6da5      	ldr	r5, [r4, #88]	@ 0x58
 8003674:	432b      	orrs	r3, r5
 8003676:	60d3      	str	r3, [r2, #12]
 8003678:	b959      	cbnz	r1, 8003692 <HAL_SPI_Init+0x102>
 800367a:	6893      	ldr	r3, [r2, #8]
 800367c:	f423 53c0 	bic.w	r3, r3, #6144	@ 0x1800
 8003680:	f443 6300 	orr.w	r3, r3, #2048	@ 0x800
 8003684:	6093      	str	r3, [r2, #8]
 8003686:	6893      	ldr	r3, [r2, #8]
 8003688:	f423 63c0 	bic.w	r3, r3, #1536	@ 0x600
 800368c:	f443 6380 	orr.w	r3, r3, #1024	@ 0x400
 8003690:	6093      	str	r3, [r2, #8]
 8003692:	6d13      	ldr	r3, [r2, #80]	@ 0x50
 8003694:	f023 0301 	bic.w	r3, r3, #1
 8003698:	6513      	str	r3, [r2, #80]	@ 0x50
 800369a:	b128      	cbz	r0, 80036a8 <HAL_SPI_Init+0x118>
 800369c:	68d3      	ldr	r3, [r2, #12]
 800369e:	6d61      	ldr	r1, [r4, #84]	@ 0x54
 80036a0:	f023 4300 	bic.w	r3, r3, #2147483648	@ 0x80000000
 80036a4:	430b      	orrs	r3, r1
 80036a6:	60d3      	str	r3, [r2, #12]
 80036a8:	2000      	movs	r0, #0
 80036aa:	2301      	movs	r3, #1
 80036ac:	f8c4 0084 	str.w	r0, [r4, #132]	@ 0x84
 80036b0:	f884 3081 	strb.w	r3, [r4, #129]	@ 0x81
 80036b4:	e770      	b.n	8003598 <HAL_SPI_Init+0x8>
 80036b6:	2b10      	cmp	r3, #16
 80036b8:	e792      	b.n	80035e0 <HAL_SPI_Init+0x50>
 80036ba:	2900      	cmp	r1, #0
 80036bc:	d1b1      	bne.n	8003622 <HAL_SPI_Init+0x92>
 80036be:	f1b6 5f80 	cmp.w	r6, #268435456	@ 0x10000000
 80036c2:	d1ae      	bne.n	8003622 <HAL_SPI_Init+0x92>
 80036c4:	6810      	ldr	r0, [r2, #0]
 80036c6:	f440 5080 	orr.w	r0, r0, #4096	@ 0x1000
 80036ca:	6010      	str	r0, [r2, #0]
 80036cc:	e7a9      	b.n	8003622 <HAL_SPI_Init+0x92>
 80036ce:	f427 7780 	bic.w	r7, r7, #256	@ 0x100
 80036d2:	e7b2      	b.n	800363a <HAL_SPI_Init+0xaa>
 80036d4:	40013000 	.word	0x40013000

080036d8 <HAL_TIM_Base_MspInit>:
 80036d8:	4770      	bx	lr
	...

080036dc <HAL_TIM_Base_Start_IT>:
 80036dc:	f890 303d 	ldrb.w	r3, [r0, #61]	@ 0x3d
 80036e0:	2b01      	cmp	r3, #1
 80036e2:	d13b      	bne.n	800375c <HAL_TIM_Base_Start_IT+0x80>
 80036e4:	2302      	movs	r3, #2
 80036e6:	f880 303d 	strb.w	r3, [r0, #61]	@ 0x3d
 80036ea:	6803      	ldr	r3, [r0, #0]
 80036ec:	68da      	ldr	r2, [r3, #12]
 80036ee:	f042 0201 	orr.w	r2, r2, #1
 80036f2:	60da      	str	r2, [r3, #12]
 80036f4:	4a1a      	ldr	r2, [pc, #104]	@ (8003760 <HAL_TIM_Base_Start_IT+0x84>)
 80036f6:	4293      	cmp	r3, r2
 80036f8:	d022      	beq.n	8003740 <HAL_TIM_Base_Start_IT+0x64>
 80036fa:	f1b3 4f80 	cmp.w	r3, #1073741824	@ 0x40000000
 80036fe:	d01f      	beq.n	8003740 <HAL_TIM_Base_Start_IT+0x64>
 8003700:	f5a2 427c 	sub.w	r2, r2, #64512	@ 0xfc00
 8003704:	4293      	cmp	r3, r2
 8003706:	d01b      	beq.n	8003740 <HAL_TIM_Base_Start_IT+0x64>
 8003708:	f502 6280 	add.w	r2, r2, #1024	@ 0x400
 800370c:	4293      	cmp	r3, r2
 800370e:	d017      	beq.n	8003740 <HAL_TIM_Base_Start_IT+0x64>
 8003710:	f502 6280 	add.w	r2, r2, #1024	@ 0x400
 8003714:	4293      	cmp	r3, r2
 8003716:	d013      	beq.n	8003740 <HAL_TIM_Base_Start_IT+0x64>
 8003718:	f502 4278 	add.w	r2, r2, #63488	@ 0xf800
 800371c:	4293      	cmp	r3, r2
 800371e:	d00f      	beq.n	8003740 <HAL_TIM_Base_Start_IT+0x64>
 8003720:	f5a2 426c 	sub.w	r2, r2, #60416	@ 0xec00
 8003724:	4293      	cmp	r3, r2
 8003726:	d00b      	beq.n	8003740 <HAL_TIM_Base_Start_IT+0x64>
 8003728:	f502 3294 	add.w	r2, r2, #75776	@ 0x12800
 800372c:	4293      	cmp	r3, r2
 800372e:	d007      	beq.n	8003740 <HAL_TIM_Base_Start_IT+0x64>
 8003730:	f5a2 42c0 	sub.w	r2, r2, #24576	@ 0x6000
 8003734:	4293      	cmp	r3, r2
 8003736:	d003      	beq.n	8003740 <HAL_TIM_Base_Start_IT+0x64>
 8003738:	f502 6280 	add.w	r2, r2, #1024	@ 0x400
 800373c:	4293      	cmp	r3, r2
 800373e:	d107      	bne.n	8003750 <HAL_TIM_Base_Start_IT+0x74>
 8003740:	6899      	ldr	r1, [r3, #8]
 8003742:	4a08      	ldr	r2, [pc, #32]	@ (8003764 <HAL_TIM_Base_Start_IT+0x88>)
 8003744:	400a      	ands	r2, r1
 8003746:	2a06      	cmp	r2, #6
 8003748:	d006      	beq.n	8003758 <HAL_TIM_Base_Start_IT+0x7c>
 800374a:	f5b2 3f80 	cmp.w	r2, #65536	@ 0x10000
 800374e:	d003      	beq.n	8003758 <HAL_TIM_Base_Start_IT+0x7c>
 8003750:	681a      	ldr	r2, [r3, #0]
 8003752:	f042 0201 	orr.w	r2, r2, #1
 8003756:	601a      	str	r2, [r3, #0]
 8003758:	2000      	movs	r0, #0
 800375a:	4770      	bx	lr
 800375c:	2001      	movs	r0, #1
 800375e:	4770      	bx	lr
 8003760:	40010000 	.word	0x40010000
 8003764:	00010007 	.word	0x00010007

08003768 <HAL_TIM_OC_DelayElapsedCallback>:
 8003768:	4770      	bx	lr

0800376a <HAL_TIM_IC_CaptureCallback>:
 800376a:	4770      	bx	lr

0800376c <HAL_TIM_PWM_PulseFinishedCallback>:
 800376c:	4770      	bx	lr

0800376e <HAL_TIM_TriggerCallback>:
 800376e:	4770      	bx	lr

08003770 <HAL_TIM_IRQHandler>:
 8003770:	6803      	ldr	r3, [r0, #0]
 8003772:	b570      	push	{r4, r5, r6, lr}
 8003774:	68dd      	ldr	r5, [r3, #12]
 8003776:	4604      	mov	r4, r0
 8003778:	691e      	ldr	r6, [r3, #16]
 800377a:	07b2      	lsls	r2, r6, #30
 800377c:	d50d      	bpl.n	800379a <HAL_TIM_IRQHandler+0x2a>
 800377e:	07a9      	lsls	r1, r5, #30
 8003780:	d50b      	bpl.n	800379a <HAL_TIM_IRQHandler+0x2a>
 8003782:	f06f 0202 	mvn.w	r2, #2
 8003786:	611a      	str	r2, [r3, #16]
 8003788:	2201      	movs	r2, #1
 800378a:	7702      	strb	r2, [r0, #28]
 800378c:	699b      	ldr	r3, [r3, #24]
 800378e:	079a      	lsls	r2, r3, #30
 8003790:	d075      	beq.n	800387e <HAL_TIM_IRQHandler+0x10e>
 8003792:	f7ff ffea 	bl	800376a <HAL_TIM_IC_CaptureCallback>
 8003796:	2300      	movs	r3, #0
 8003798:	7723      	strb	r3, [r4, #28]
 800379a:	0773      	lsls	r3, r6, #29
 800379c:	d510      	bpl.n	80037c0 <HAL_TIM_IRQHandler+0x50>
 800379e:	0768      	lsls	r0, r5, #29
 80037a0:	d50e      	bpl.n	80037c0 <HAL_TIM_IRQHandler+0x50>
 80037a2:	6823      	ldr	r3, [r4, #0]
 80037a4:	f06f 0204 	mvn.w	r2, #4
 80037a8:	4620      	mov	r0, r4
 80037aa:	611a      	str	r2, [r3, #16]
 80037ac:	2202      	movs	r2, #2
 80037ae:	7722      	strb	r2, [r4, #28]
 80037b0:	699b      	ldr	r3, [r3, #24]
 80037b2:	f413 7f40 	tst.w	r3, #768	@ 0x300
 80037b6:	d068      	beq.n	800388a <HAL_TIM_IRQHandler+0x11a>
 80037b8:	f7ff ffd7 	bl	800376a <HAL_TIM_IC_CaptureCallback>
 80037bc:	2300      	movs	r3, #0
 80037be:	7723      	strb	r3, [r4, #28]
 80037c0:	0731      	lsls	r1, r6, #28
 80037c2:	d50f      	bpl.n	80037e4 <HAL_TIM_IRQHandler+0x74>
 80037c4:	072a      	lsls	r2, r5, #28
 80037c6:	d50d      	bpl.n	80037e4 <HAL_TIM_IRQHandler+0x74>
 80037c8:	6823      	ldr	r3, [r4, #0]
 80037ca:	f06f 0208 	mvn.w	r2, #8
 80037ce:	4620      	mov	r0, r4
 80037d0:	611a      	str	r2, [r3, #16]
 80037d2:	2204      	movs	r2, #4
 80037d4:	7722      	strb	r2, [r4, #28]
 80037d6:	69db      	ldr	r3, [r3, #28]
 80037d8:	079b      	lsls	r3, r3, #30
 80037da:	d05c      	beq.n	8003896 <HAL_TIM_IRQHandler+0x126>
 80037dc:	f7ff ffc5 	bl	800376a <HAL_TIM_IC_CaptureCallback>
 80037e0:	2300      	movs	r3, #0
 80037e2:	7723      	strb	r3, [r4, #28]
 80037e4:	06f1      	lsls	r1, r6, #27
 80037e6:	d510      	bpl.n	800380a <HAL_TIM_IRQHandler+0x9a>
 80037e8:	06ea      	lsls	r2, r5, #27
 80037ea:	d50e      	bpl.n	800380a <HAL_TIM_IRQHandler+0x9a>
 80037ec:	6823      	ldr	r3, [r4, #0]
 80037ee:	f06f 0210 	mvn.w	r2, #16
 80037f2:	4620      	mov	r0, r4
 80037f4:	611a      	str	r2, [r3, #16]
 80037f6:	2208      	movs	r2, #8
 80037f8:	7722      	strb	r2, [r4, #28]
 80037fa:	69db      	ldr	r3, [r3, #28]
 80037fc:	f413 7f40 	tst.w	r3, #768	@ 0x300
 8003800:	d04f      	beq.n	80038a2 <HAL_TIM_IRQHandler+0x132>
 8003802:	f7ff ffb2 	bl	800376a <HAL_TIM_IC_CaptureCallback>
 8003806:	2300      	movs	r3, #0
 8003808:	7723      	strb	r3, [r4, #28]
 800380a:	07f3      	lsls	r3, r6, #31
 800380c:	d508      	bpl.n	8003820 <HAL_TIM_IRQHandler+0xb0>
 800380e:	07e8      	lsls	r0, r5, #31
 8003810:	d506      	bpl.n	8003820 <HAL_TIM_IRQHandler+0xb0>
 8003812:	6823      	ldr	r3, [r4, #0]
 8003814:	f06f 0201 	mvn.w	r2, #1
 8003818:	4620      	mov	r0, r4
 800381a:	611a      	str	r2, [r3, #16]
 800381c:	f7fd fd54 	bl	80012c8 <HAL_TIM_PeriodElapsedCallback>
 8003820:	f416 5f02 	tst.w	r6, #8320	@ 0x2080
 8003824:	d008      	beq.n	8003838 <HAL_TIM_IRQHandler+0xc8>
 8003826:	0629      	lsls	r1, r5, #24
 8003828:	d506      	bpl.n	8003838 <HAL_TIM_IRQHandler+0xc8>
 800382a:	6823      	ldr	r3, [r4, #0]
 800382c:	f46f 5202 	mvn.w	r2, #8320	@ 0x2080
 8003830:	4620      	mov	r0, r4
 8003832:	611a      	str	r2, [r3, #16]
 8003834:	f000 f8c9 	bl	80039ca <HAL_TIMEx_BreakCallback>
 8003838:	05f2      	lsls	r2, r6, #23
 800383a:	d508      	bpl.n	800384e <HAL_TIM_IRQHandler+0xde>
 800383c:	062b      	lsls	r3, r5, #24
 800383e:	d506      	bpl.n	800384e <HAL_TIM_IRQHandler+0xde>
 8003840:	6823      	ldr	r3, [r4, #0]
 8003842:	f46f 7280 	mvn.w	r2, #256	@ 0x100
 8003846:	4620      	mov	r0, r4
 8003848:	611a      	str	r2, [r3, #16]
 800384a:	f000 f8bf 	bl	80039cc <HAL_TIMEx_Break2Callback>
 800384e:	0670      	lsls	r0, r6, #25
 8003850:	d508      	bpl.n	8003864 <HAL_TIM_IRQHandler+0xf4>
 8003852:	0669      	lsls	r1, r5, #25
 8003854:	d506      	bpl.n	8003864 <HAL_TIM_IRQHandler+0xf4>
 8003856:	6823      	ldr	r3, [r4, #0]
 8003858:	f06f 0240 	mvn.w	r2, #64	@ 0x40
 800385c:	4620      	mov	r0, r4
 800385e:	611a      	str	r2, [r3, #16]
 8003860:	f7ff ff85 	bl	800376e <HAL_TIM_TriggerCallback>
 8003864:	06b2      	lsls	r2, r6, #26
 8003866:	d522      	bpl.n	80038ae <HAL_TIM_IRQHandler+0x13e>
 8003868:	06ab      	lsls	r3, r5, #26
 800386a:	d520      	bpl.n	80038ae <HAL_TIM_IRQHandler+0x13e>
 800386c:	6823      	ldr	r3, [r4, #0]
 800386e:	f06f 0220 	mvn.w	r2, #32
 8003872:	4620      	mov	r0, r4
 8003874:	611a      	str	r2, [r3, #16]
 8003876:	e8bd 4070 	ldmia.w	sp!, {r4, r5, r6, lr}
 800387a:	f000 b8a5 	b.w	80039c8 <HAL_TIMEx_CommutCallback>
 800387e:	f7ff ff73 	bl	8003768 <HAL_TIM_OC_DelayElapsedCallback>
 8003882:	4620      	mov	r0, r4
 8003884:	f7ff ff72 	bl	800376c <HAL_TIM_PWM_PulseFinishedCallback>
 8003888:	e785      	b.n	8003796 <HAL_TIM_IRQHandler+0x26>
 800388a:	f7ff ff6d 	bl	8003768 <HAL_TIM_OC_DelayElapsedCallback>
 800388e:	4620      	mov	r0, r4
 8003890:	f7ff ff6c 	bl	800376c <HAL_TIM_PWM_PulseFinishedCallback>
 8003894:	e792      	b.n	80037bc <HAL_TIM_IRQHandler+0x4c>
 8003896:	f7ff ff67 	bl	8003768 <HAL_TIM_OC_DelayElapsedCallback>
 800389a:	4620      	mov	r0, r4
 800389c:	f7ff ff66 	bl	800376c <HAL_TIM_PWM_PulseFinishedCallback>
 80038a0:	e79e      	b.n	80037e0 <HAL_TIM_IRQHandler+0x70>
 80038a2:	f7ff ff61 	bl	8003768 <HAL_TIM_OC_DelayElapsedCallback>
 80038a6:	4620      	mov	r0, r4
 80038a8:	f7ff ff60 	bl	800376c <HAL_TIM_PWM_PulseFinishedCallback>
 80038ac:	e7ab      	b.n	8003806 <HAL_TIM_IRQHandler+0x96>
 80038ae:	bd70      	pop	{r4, r5, r6, pc}

080038b0 <TIM_Base_SetConfig>:
 80038b0:	4a2b      	ldr	r2, [pc, #172]	@ (8003960 <TIM_Base_SetConfig+0xb0>)
 80038b2:	6803      	ldr	r3, [r0, #0]
 80038b4:	4290      	cmp	r0, r2
 80038b6:	d012      	beq.n	80038de <TIM_Base_SetConfig+0x2e>
 80038b8:	f1b0 4f80 	cmp.w	r0, #1073741824	@ 0x40000000
 80038bc:	d00f      	beq.n	80038de <TIM_Base_SetConfig+0x2e>
 80038be:	f5a2 427c 	sub.w	r2, r2, #64512	@ 0xfc00
 80038c2:	4290      	cmp	r0, r2
 80038c4:	d00b      	beq.n	80038de <TIM_Base_SetConfig+0x2e>
 80038c6:	f502 6280 	add.w	r2, r2, #1024	@ 0x400
 80038ca:	4290      	cmp	r0, r2
 80038cc:	d007      	beq.n	80038de <TIM_Base_SetConfig+0x2e>
 80038ce:	f502 6280 	add.w	r2, r2, #1024	@ 0x400
 80038d2:	4290      	cmp	r0, r2
 80038d4:	d003      	beq.n	80038de <TIM_Base_SetConfig+0x2e>
 80038d6:	f502 4278 	add.w	r2, r2, #63488	@ 0xf800
 80038da:	4290      	cmp	r0, r2
 80038dc:	d108      	bne.n	80038f0 <TIM_Base_SetConfig+0x40>
 80038de:	f023 0370 	bic.w	r3, r3, #112	@ 0x70
 80038e2:	684a      	ldr	r2, [r1, #4]
 80038e4:	4313      	orrs	r3, r2
 80038e6:	f423 7340 	bic.w	r3, r3, #768	@ 0x300
 80038ea:	68ca      	ldr	r2, [r1, #12]
 80038ec:	4313      	orrs	r3, r2
 80038ee:	e012      	b.n	8003916 <TIM_Base_SetConfig+0x66>
 80038f0:	4a1c      	ldr	r2, [pc, #112]	@ (8003964 <TIM_Base_SetConfig+0xb4>)
 80038f2:	4290      	cmp	r0, r2
 80038f4:	d0f7      	beq.n	80038e6 <TIM_Base_SetConfig+0x36>
 80038f6:	f502 6280 	add.w	r2, r2, #1024	@ 0x400
 80038fa:	4290      	cmp	r0, r2
 80038fc:	d0f3      	beq.n	80038e6 <TIM_Base_SetConfig+0x36>
 80038fe:	f502 6280 	add.w	r2, r2, #1024	@ 0x400
 8003902:	4290      	cmp	r0, r2
 8003904:	d0ef      	beq.n	80038e6 <TIM_Base_SetConfig+0x36>
 8003906:	f5a2 42d0 	sub.w	r2, r2, #26624	@ 0x6800
 800390a:	4290      	cmp	r0, r2
 800390c:	d0eb      	beq.n	80038e6 <TIM_Base_SetConfig+0x36>
 800390e:	f502 6280 	add.w	r2, r2, #1024	@ 0x400
 8003912:	4290      	cmp	r0, r2
 8003914:	d0e7      	beq.n	80038e6 <TIM_Base_SetConfig+0x36>
 8003916:	694a      	ldr	r2, [r1, #20]
 8003918:	f023 0380 	bic.w	r3, r3, #128	@ 0x80
 800391c:	4313      	orrs	r3, r2
 800391e:	688a      	ldr	r2, [r1, #8]
 8003920:	62c2      	str	r2, [r0, #44]	@ 0x2c
 8003922:	680a      	ldr	r2, [r1, #0]
 8003924:	6282      	str	r2, [r0, #40]	@ 0x28
 8003926:	4a0e      	ldr	r2, [pc, #56]	@ (8003960 <TIM_Base_SetConfig+0xb0>)
 8003928:	4290      	cmp	r0, r2
 800392a:	d00f      	beq.n	800394c <TIM_Base_SetConfig+0x9c>
 800392c:	f502 6280 	add.w	r2, r2, #1024	@ 0x400
 8003930:	4290      	cmp	r0, r2
 8003932:	d00b      	beq.n	800394c <TIM_Base_SetConfig+0x9c>
 8003934:	f502 5270 	add.w	r2, r2, #15360	@ 0x3c00
 8003938:	4290      	cmp	r0, r2
 800393a:	d007      	beq.n	800394c <TIM_Base_SetConfig+0x9c>
 800393c:	f502 6280 	add.w	r2, r2, #1024	@ 0x400
 8003940:	4290      	cmp	r0, r2
 8003942:	d003      	beq.n	800394c <TIM_Base_SetConfig+0x9c>
 8003944:	f502 6280 	add.w	r2, r2, #1024	@ 0x400
 8003948:	4290      	cmp	r0, r2
 800394a:	d101      	bne.n	8003950 <TIM_Base_SetConfig+0xa0>
 800394c:	690a      	ldr	r2, [r1, #16]
 800394e:	6302      	str	r2, [r0, #48]	@ 0x30
 8003950:	6802      	ldr	r2, [r0, #0]
 8003952:	f042 0204 	orr.w	r2, r2, #4
 8003956:	6002      	str	r2, [r0, #0]
 8003958:	2201      	movs	r2, #1
 800395a:	6142      	str	r2, [r0, #20]
 800395c:	6003      	str	r3, [r0, #0]
 800395e:	4770      	bx	lr
 8003960:	40010000 	.word	0x40010000
 8003964:	40014000 	.word	0x40014000

08003968 <HAL_TIM_Base_Init>:
 8003968:	b510      	push	{r4, lr}
 800396a:	4604      	mov	r4, r0
 800396c:	b350      	cbz	r0, 80039c4 <HAL_TIM_Base_Init+0x5c>
 800396e:	f890 303d 	ldrb.w	r3, [r0, #61]	@ 0x3d
 8003972:	f003 02ff 	and.w	r2, r3, #255	@ 0xff
 8003976:	b91b      	cbnz	r3, 8003980 <HAL_TIM_Base_Init+0x18>
 8003978:	f880 203c 	strb.w	r2, [r0, #60]	@ 0x3c
 800397c:	f7ff feac 	bl	80036d8 <HAL_TIM_Base_MspInit>
 8003980:	2302      	movs	r3, #2
 8003982:	6820      	ldr	r0, [r4, #0]
 8003984:	1d21      	adds	r1, r4, #4
 8003986:	f884 303d 	strb.w	r3, [r4, #61]	@ 0x3d
 800398a:	f7ff ff91 	bl	80038b0 <TIM_Base_SetConfig>
 800398e:	2301      	movs	r3, #1
 8003990:	2000      	movs	r0, #0
 8003992:	f884 3048 	strb.w	r3, [r4, #72]	@ 0x48
 8003996:	f884 303e 	strb.w	r3, [r4, #62]	@ 0x3e
 800399a:	f884 303f 	strb.w	r3, [r4, #63]	@ 0x3f
 800399e:	f884 3040 	strb.w	r3, [r4, #64]	@ 0x40
 80039a2:	f884 3041 	strb.w	r3, [r4, #65]	@ 0x41
 80039a6:	f884 3042 	strb.w	r3, [r4, #66]	@ 0x42
 80039aa:	f884 3043 	strb.w	r3, [r4, #67]	@ 0x43
 80039ae:	f884 3044 	strb.w	r3, [r4, #68]	@ 0x44
 80039b2:	f884 3045 	strb.w	r3, [r4, #69]	@ 0x45
 80039b6:	f884 3046 	strb.w	r3, [r4, #70]	@ 0x46
 80039ba:	f884 3047 	strb.w	r3, [r4, #71]	@ 0x47
 80039be:	f884 303d 	strb.w	r3, [r4, #61]	@ 0x3d
 80039c2:	bd10      	pop	{r4, pc}
 80039c4:	2001      	movs	r0, #1
 80039c6:	e7fc      	b.n	80039c2 <HAL_TIM_Base_Init+0x5a>

080039c8 <HAL_TIMEx_CommutCallback>:
 80039c8:	4770      	bx	lr

080039ca <HAL_TIMEx_BreakCallback>:
 80039ca:	4770      	bx	lr

080039cc <HAL_TIMEx_Break2Callback>:
 80039cc:	4770      	bx	lr
	...

080039d0 <UART_EndRxTransfer>:
 80039d0:	b510      	push	{r4, lr}
 80039d2:	6802      	ldr	r2, [r0, #0]
 80039d4:	e852 3f00 	ldrex	r3, [r2]
 80039d8:	f423 7390 	bic.w	r3, r3, #288	@ 0x120
 80039dc:	e842 3100 	strex	r1, r3, [r2]
 80039e0:	6802      	ldr	r2, [r0, #0]
 80039e2:	2900      	cmp	r1, #0
 80039e4:	d1f5      	bne.n	80039d2 <UART_EndRxTransfer+0x2>
 80039e6:	4c0f      	ldr	r4, [pc, #60]	@ (8003a24 <UART_EndRxTransfer+0x54>)
 80039e8:	f102 0308 	add.w	r3, r2, #8
 80039ec:	e853 3f00 	ldrex	r3, [r3]
 80039f0:	4023      	ands	r3, r4
 80039f2:	f102 0c08 	add.w	ip, r2, #8
 80039f6:	e84c 3100 	strex	r1, r3, [ip]
 80039fa:	2900      	cmp	r1, #0
 80039fc:	d1f4      	bne.n	80039e8 <UART_EndRxTransfer+0x18>
 80039fe:	6ec3      	ldr	r3, [r0, #108]	@ 0x6c
 8003a00:	2b01      	cmp	r3, #1
 8003a02:	d107      	bne.n	8003a14 <UART_EndRxTransfer+0x44>
 8003a04:	e852 3f00 	ldrex	r3, [r2]
 8003a08:	f023 0310 	bic.w	r3, r3, #16
 8003a0c:	e842 3100 	strex	r1, r3, [r2]
 8003a10:	2900      	cmp	r1, #0
 8003a12:	d1f7      	bne.n	8003a04 <UART_EndRxTransfer+0x34>
 8003a14:	2320      	movs	r3, #32
 8003a16:	f8c0 308c 	str.w	r3, [r0, #140]	@ 0x8c
 8003a1a:	2300      	movs	r3, #0
 8003a1c:	66c3      	str	r3, [r0, #108]	@ 0x6c
 8003a1e:	6743      	str	r3, [r0, #116]	@ 0x74
 8003a20:	bd10      	pop	{r4, pc}
 8003a22:	bf00      	nop
 8003a24:	effffffe 	.word	0xeffffffe

08003a28 <UART_SetConfig>:
 8003a28:	6802      	ldr	r2, [r0, #0]
 8003a2a:	69c3      	ldr	r3, [r0, #28]
 8003a2c:	6881      	ldr	r1, [r0, #8]
 8003a2e:	b5f0      	push	{r4, r5, r6, r7, lr}
 8003a30:	4604      	mov	r4, r0
 8003a32:	6900      	ldr	r0, [r0, #16]
 8003a34:	6815      	ldr	r5, [r2, #0]
 8003a36:	b087      	sub	sp, #28
 8003a38:	4301      	orrs	r1, r0
 8003a3a:	6960      	ldr	r0, [r4, #20]
 8003a3c:	4301      	orrs	r1, r0
 8003a3e:	48a4      	ldr	r0, [pc, #656]	@ (8003cd0 <UART_SetConfig+0x2a8>)
 8003a40:	4319      	orrs	r1, r3
 8003a42:	4028      	ands	r0, r5
 8003a44:	4301      	orrs	r1, r0
 8003a46:	68e0      	ldr	r0, [r4, #12]
 8003a48:	6011      	str	r1, [r2, #0]
 8003a4a:	6851      	ldr	r1, [r2, #4]
 8003a4c:	f421 5140 	bic.w	r1, r1, #12288	@ 0x3000
 8003a50:	4301      	orrs	r1, r0
 8003a52:	69a0      	ldr	r0, [r4, #24]
 8003a54:	6051      	str	r1, [r2, #4]
 8003a56:	499f      	ldr	r1, [pc, #636]	@ (8003cd4 <UART_SetConfig+0x2ac>)
 8003a58:	428a      	cmp	r2, r1
 8003a5a:	bf1c      	itt	ne
 8003a5c:	6a21      	ldrne	r1, [r4, #32]
 8003a5e:	4308      	orrne	r0, r1
 8003a60:	6891      	ldr	r1, [r2, #8]
 8003a62:	f021 416e 	bic.w	r1, r1, #3992977408	@ 0xee000000
 8003a66:	f421 6130 	bic.w	r1, r1, #2816	@ 0xb00
 8003a6a:	4301      	orrs	r1, r0
 8003a6c:	6a60      	ldr	r0, [r4, #36]	@ 0x24
 8003a6e:	6091      	str	r1, [r2, #8]
 8003a70:	6ad1      	ldr	r1, [r2, #44]	@ 0x2c
 8003a72:	f021 010f 	bic.w	r1, r1, #15
 8003a76:	4301      	orrs	r1, r0
 8003a78:	62d1      	str	r1, [r2, #44]	@ 0x2c
 8003a7a:	4997      	ldr	r1, [pc, #604]	@ (8003cd8 <UART_SetConfig+0x2b0>)
 8003a7c:	428a      	cmp	r2, r1
 8003a7e:	d112      	bne.n	8003aa6 <UART_SetConfig+0x7e>
 8003a80:	4a96      	ldr	r2, [pc, #600]	@ (8003cdc <UART_SetConfig+0x2b4>)
 8003a82:	6d52      	ldr	r2, [r2, #84]	@ 0x54
 8003a84:	f002 0238 	and.w	r2, r2, #56	@ 0x38
 8003a88:	2a18      	cmp	r2, #24
 8003a8a:	f000 80fe 	beq.w	8003c8a <UART_SetConfig+0x262>
 8003a8e:	d841      	bhi.n	8003b14 <UART_SetConfig+0xec>
 8003a90:	2a08      	cmp	r2, #8
 8003a92:	f000 813f 	beq.w	8003d14 <UART_SetConfig+0x2ec>
 8003a96:	2a10      	cmp	r2, #16
 8003a98:	f000 8145 	beq.w	8003d26 <UART_SetConfig+0x2fe>
 8003a9c:	2a00      	cmp	r2, #0
 8003a9e:	f000 8110 	beq.w	8003cc2 <UART_SetConfig+0x29a>
 8003aa2:	2001      	movs	r0, #1
 8003aa4:	e06d      	b.n	8003b82 <UART_SetConfig+0x15a>
 8003aa6:	498e      	ldr	r1, [pc, #568]	@ (8003ce0 <UART_SetConfig+0x2b8>)
 8003aa8:	428a      	cmp	r2, r1
 8003aaa:	d10d      	bne.n	8003ac8 <UART_SetConfig+0xa0>
 8003aac:	4a8b      	ldr	r2, [pc, #556]	@ (8003cdc <UART_SetConfig+0x2b4>)
 8003aae:	6d52      	ldr	r2, [r2, #84]	@ 0x54
 8003ab0:	f002 0207 	and.w	r2, r2, #7
 8003ab4:	2a05      	cmp	r2, #5
 8003ab6:	d8f4      	bhi.n	8003aa2 <UART_SetConfig+0x7a>
 8003ab8:	e8df f012 	tbh	[pc, r2, lsl #1]
 8003abc:	012c0081 	.word	0x012c0081
 8003ac0:	00e70135 	.word	0x00e70135
 8003ac4:	003100e2 	.word	0x003100e2
 8003ac8:	4986      	ldr	r1, [pc, #536]	@ (8003ce4 <UART_SetConfig+0x2bc>)
 8003aca:	428a      	cmp	r2, r1
 8003acc:	d0ee      	beq.n	8003aac <UART_SetConfig+0x84>
 8003ace:	4986      	ldr	r1, [pc, #536]	@ (8003ce8 <UART_SetConfig+0x2c0>)
 8003ad0:	428a      	cmp	r2, r1
 8003ad2:	d0eb      	beq.n	8003aac <UART_SetConfig+0x84>
 8003ad4:	4985      	ldr	r1, [pc, #532]	@ (8003cec <UART_SetConfig+0x2c4>)
 8003ad6:	428a      	cmp	r2, r1
 8003ad8:	d0e8      	beq.n	8003aac <UART_SetConfig+0x84>
 8003ada:	4985      	ldr	r1, [pc, #532]	@ (8003cf0 <UART_SetConfig+0x2c8>)
 8003adc:	428a      	cmp	r2, r1
 8003ade:	d0cf      	beq.n	8003a80 <UART_SetConfig+0x58>
 8003ae0:	4984      	ldr	r1, [pc, #528]	@ (8003cf4 <UART_SetConfig+0x2cc>)
 8003ae2:	428a      	cmp	r2, r1
 8003ae4:	d0e2      	beq.n	8003aac <UART_SetConfig+0x84>
 8003ae6:	4984      	ldr	r1, [pc, #528]	@ (8003cf8 <UART_SetConfig+0x2d0>)
 8003ae8:	428a      	cmp	r2, r1
 8003aea:	d0df      	beq.n	8003aac <UART_SetConfig+0x84>
 8003aec:	4983      	ldr	r1, [pc, #524]	@ (8003cfc <UART_SetConfig+0x2d4>)
 8003aee:	428a      	cmp	r2, r1
 8003af0:	d0c6      	beq.n	8003a80 <UART_SetConfig+0x58>
 8003af2:	4983      	ldr	r1, [pc, #524]	@ (8003d00 <UART_SetConfig+0x2d8>)
 8003af4:	428a      	cmp	r2, r1
 8003af6:	d0c3      	beq.n	8003a80 <UART_SetConfig+0x58>
 8003af8:	4b76      	ldr	r3, [pc, #472]	@ (8003cd4 <UART_SetConfig+0x2ac>)
 8003afa:	429a      	cmp	r2, r3
 8003afc:	d1d1      	bne.n	8003aa2 <UART_SetConfig+0x7a>
 8003afe:	4a77      	ldr	r2, [pc, #476]	@ (8003cdc <UART_SetConfig+0x2b4>)
 8003b00:	6d93      	ldr	r3, [r2, #88]	@ 0x58
 8003b02:	f003 0307 	and.w	r3, r3, #7
 8003b06:	2b05      	cmp	r3, #5
 8003b08:	d8cb      	bhi.n	8003aa2 <UART_SetConfig+0x7a>
 8003b0a:	e8df f003 	tbb	[pc, r3]
 8003b0e:	4235      	.short	0x4235
 8003b10:	0e564c47 	.word	0x0e564c47
 8003b14:	2a20      	cmp	r2, #32
 8003b16:	f000 80b3 	beq.w	8003c80 <UART_SetConfig+0x258>
 8003b1a:	2a28      	cmp	r2, #40	@ 0x28
 8003b1c:	d1c1      	bne.n	8003aa2 <UART_SetConfig+0x7a>
 8003b1e:	f5b3 4f00 	cmp.w	r3, #32768	@ 0x8000
 8003b22:	d06d      	beq.n	8003c00 <UART_SetConfig+0x1d8>
 8003b24:	f44f 4000 	mov.w	r0, #32768	@ 0x8000
 8003b28:	e0bb      	b.n	8003ca2 <UART_SetConfig+0x27a>
 8003b2a:	f44f 4000 	mov.w	r0, #32768	@ 0x8000
 8003b2e:	4b75      	ldr	r3, [pc, #468]	@ (8003d04 <UART_SetConfig+0x2dc>)
 8003b30:	6a62      	ldr	r2, [r4, #36]	@ 0x24
 8003b32:	6865      	ldr	r5, [r4, #4]
 8003b34:	f833 2012 	ldrh.w	r2, [r3, r2, lsl #1]
 8003b38:	eb05 0145 	add.w	r1, r5, r5, lsl #1
 8003b3c:	fbb0 f3f2 	udiv	r3, r0, r2
 8003b40:	4299      	cmp	r1, r3
 8003b42:	d8ae      	bhi.n	8003aa2 <UART_SetConfig+0x7a>
 8003b44:	ebb3 3f05 	cmp.w	r3, r5, lsl #12
 8003b48:	d8ab      	bhi.n	8003aa2 <UART_SetConfig+0x7a>
 8003b4a:	2300      	movs	r3, #0
 8003b4c:	f44f 7780 	mov.w	r7, #256	@ 0x100
 8003b50:	4619      	mov	r1, r3
 8003b52:	f7fc fbdb 	bl	800030c <__aeabi_uldivmod>
 8003b56:	2300      	movs	r3, #0
 8003b58:	4606      	mov	r6, r0
 8003b5a:	0868      	lsrs	r0, r5, #1
 8003b5c:	4619      	mov	r1, r3
 8003b5e:	462a      	mov	r2, r5
 8003b60:	fbe6 0107 	umlal	r0, r1, r6, r7
 8003b64:	f7fc fbd2 	bl	800030c <__aeabi_uldivmod>
 8003b68:	4b67      	ldr	r3, [pc, #412]	@ (8003d08 <UART_SetConfig+0x2e0>)
 8003b6a:	f5a0 7240 	sub.w	r2, r0, #768	@ 0x300
 8003b6e:	429a      	cmp	r2, r3
 8003b70:	d897      	bhi.n	8003aa2 <UART_SetConfig+0x7a>
 8003b72:	6823      	ldr	r3, [r4, #0]
 8003b74:	60d8      	str	r0, [r3, #12]
 8003b76:	e003      	b.n	8003b80 <UART_SetConfig+0x158>
 8003b78:	f7ff fba4 	bl	80032c4 <HAL_RCCEx_GetD3PCLK1Freq>
 8003b7c:	2800      	cmp	r0, #0
 8003b7e:	d1d6      	bne.n	8003b2e <UART_SetConfig+0x106>
 8003b80:	2000      	movs	r0, #0
 8003b82:	f04f 1301 	mov.w	r3, #65537	@ 0x10001
 8003b86:	66a3      	str	r3, [r4, #104]	@ 0x68
 8003b88:	2300      	movs	r3, #0
 8003b8a:	e9c4 331d 	strd	r3, r3, [r4, #116]	@ 0x74
 8003b8e:	b007      	add	sp, #28
 8003b90:	bdf0      	pop	{r4, r5, r6, r7, pc}
 8003b92:	4668      	mov	r0, sp
 8003b94:	f7ff fba8 	bl	80032e8 <HAL_RCCEx_GetPLL2ClockFreq>
 8003b98:	9801      	ldr	r0, [sp, #4]
 8003b9a:	e7ef      	b.n	8003b7c <UART_SetConfig+0x154>
 8003b9c:	a803      	add	r0, sp, #12
 8003b9e:	f7ff fc4d 	bl	800343c <HAL_RCCEx_GetPLL3ClockFreq>
 8003ba2:	9804      	ldr	r0, [sp, #16]
 8003ba4:	e7ea      	b.n	8003b7c <UART_SetConfig+0x154>
 8003ba6:	6813      	ldr	r3, [r2, #0]
 8003ba8:	4858      	ldr	r0, [pc, #352]	@ (8003d0c <UART_SetConfig+0x2e4>)
 8003baa:	f013 0f20 	tst.w	r3, #32
 8003bae:	d0be      	beq.n	8003b2e <UART_SetConfig+0x106>
 8003bb0:	6813      	ldr	r3, [r2, #0]
 8003bb2:	f3c3 03c1 	ubfx	r3, r3, #3, #2
 8003bb6:	40d8      	lsrs	r0, r3
 8003bb8:	e7b9      	b.n	8003b2e <UART_SetConfig+0x106>
 8003bba:	4855      	ldr	r0, [pc, #340]	@ (8003d10 <UART_SetConfig+0x2e8>)
 8003bbc:	e7b7      	b.n	8003b2e <UART_SetConfig+0x106>
 8003bbe:	f5b3 4f00 	cmp.w	r3, #32768	@ 0x8000
 8003bc2:	d156      	bne.n	8003c72 <UART_SetConfig+0x24a>
 8003bc4:	2300      	movs	r3, #0
 8003bc6:	2b08      	cmp	r3, #8
 8003bc8:	f63f af6b 	bhi.w	8003aa2 <UART_SetConfig+0x7a>
 8003bcc:	a201      	add	r2, pc, #4	@ (adr r2, 8003bd4 <UART_SetConfig+0x1ac>)
 8003bce:	f852 f023 	ldr.w	pc, [r2, r3, lsl #2]
 8003bd2:	bf00      	nop
 8003bd4:	08003c3b 	.word	0x08003c3b
 8003bd8:	08003c45 	.word	0x08003c45
 8003bdc:	08003aa3 	.word	0x08003aa3
 8003be0:	08003aa3 	.word	0x08003aa3
 8003be4:	08003c4b 	.word	0x08003c4b
 8003be8:	08003aa3 	.word	0x08003aa3
 8003bec:	08003aa3 	.word	0x08003aa3
 8003bf0:	08003aa3 	.word	0x08003aa3
 8003bf4:	08003c55 	.word	0x08003c55
 8003bf8:	2304      	movs	r3, #4
 8003bfa:	e7e4      	b.n	8003bc6 <UART_SetConfig+0x19e>
 8003bfc:	2308      	movs	r3, #8
 8003bfe:	e7e2      	b.n	8003bc6 <UART_SetConfig+0x19e>
 8003c00:	4618      	mov	r0, r3
 8003c02:	6a63      	ldr	r3, [r4, #36]	@ 0x24
 8003c04:	4a3f      	ldr	r2, [pc, #252]	@ (8003d04 <UART_SetConfig+0x2dc>)
 8003c06:	6861      	ldr	r1, [r4, #4]
 8003c08:	f832 2013 	ldrh.w	r2, [r2, r3, lsl #1]
 8003c0c:	fbb0 f3f2 	udiv	r3, r0, r2
 8003c10:	084a      	lsrs	r2, r1, #1
 8003c12:	eb02 0343 	add.w	r3, r2, r3, lsl #1
 8003c16:	f64f 72ef 	movw	r2, #65519	@ 0xffef
 8003c1a:	fbb3 f3f1 	udiv	r3, r3, r1
 8003c1e:	f1a3 0110 	sub.w	r1, r3, #16
 8003c22:	4291      	cmp	r1, r2
 8003c24:	f63f af3d 	bhi.w	8003aa2 <UART_SetConfig+0x7a>
 8003c28:	f023 020f 	bic.w	r2, r3, #15
 8003c2c:	f3c3 0342 	ubfx	r3, r3, #1, #3
 8003c30:	6821      	ldr	r1, [r4, #0]
 8003c32:	b292      	uxth	r2, r2
 8003c34:	4313      	orrs	r3, r2
 8003c36:	60cb      	str	r3, [r1, #12]
 8003c38:	e7a2      	b.n	8003b80 <UART_SetConfig+0x158>
 8003c3a:	f7fe fd5f 	bl	80026fc <HAL_RCC_GetPCLK1Freq>
 8003c3e:	2800      	cmp	r0, #0
 8003c40:	d09e      	beq.n	8003b80 <UART_SetConfig+0x158>
 8003c42:	e7de      	b.n	8003c02 <UART_SetConfig+0x1da>
 8003c44:	f7fe fd6c 	bl	8002720 <HAL_RCC_GetPCLK2Freq>
 8003c48:	e7f9      	b.n	8003c3e <UART_SetConfig+0x216>
 8003c4a:	4668      	mov	r0, sp
 8003c4c:	f7ff fb4c 	bl	80032e8 <HAL_RCCEx_GetPLL2ClockFreq>
 8003c50:	9801      	ldr	r0, [sp, #4]
 8003c52:	e7f4      	b.n	8003c3e <UART_SetConfig+0x216>
 8003c54:	a803      	add	r0, sp, #12
 8003c56:	f7ff fbf1 	bl	800343c <HAL_RCCEx_GetPLL3ClockFreq>
 8003c5a:	9804      	ldr	r0, [sp, #16]
 8003c5c:	e7ef      	b.n	8003c3e <UART_SetConfig+0x216>
 8003c5e:	0690      	lsls	r0, r2, #26
 8003c60:	d505      	bpl.n	8003c6e <UART_SetConfig+0x246>
 8003c62:	681a      	ldr	r2, [r3, #0]
 8003c64:	4829      	ldr	r0, [pc, #164]	@ (8003d0c <UART_SetConfig+0x2e4>)
 8003c66:	f3c2 02c1 	ubfx	r2, r2, #3, #2
 8003c6a:	40d0      	lsrs	r0, r2
 8003c6c:	e7c9      	b.n	8003c02 <UART_SetConfig+0x1da>
 8003c6e:	4827      	ldr	r0, [pc, #156]	@ (8003d0c <UART_SetConfig+0x2e4>)
 8003c70:	e7c7      	b.n	8003c02 <UART_SetConfig+0x1da>
 8003c72:	f7fe fd43 	bl	80026fc <HAL_RCC_GetPCLK1Freq>
 8003c76:	2800      	cmp	r0, #0
 8003c78:	d082      	beq.n	8003b80 <UART_SetConfig+0x158>
 8003c7a:	e012      	b.n	8003ca2 <UART_SetConfig+0x27a>
 8003c7c:	4823      	ldr	r0, [pc, #140]	@ (8003d0c <UART_SetConfig+0x2e4>)
 8003c7e:	e010      	b.n	8003ca2 <UART_SetConfig+0x27a>
 8003c80:	f5b3 4f00 	cmp.w	r3, #32768	@ 0x8000
 8003c84:	4822      	ldr	r0, [pc, #136]	@ (8003d10 <UART_SetConfig+0x2e8>)
 8003c86:	d10c      	bne.n	8003ca2 <UART_SetConfig+0x27a>
 8003c88:	e7bb      	b.n	8003c02 <UART_SetConfig+0x1da>
 8003c8a:	f5b3 4f00 	cmp.w	r3, #32768	@ 0x8000
 8003c8e:	4b13      	ldr	r3, [pc, #76]	@ (8003cdc <UART_SetConfig+0x2b4>)
 8003c90:	681a      	ldr	r2, [r3, #0]
 8003c92:	d0e4      	beq.n	8003c5e <UART_SetConfig+0x236>
 8003c94:	0691      	lsls	r1, r2, #26
 8003c96:	d5f1      	bpl.n	8003c7c <UART_SetConfig+0x254>
 8003c98:	681b      	ldr	r3, [r3, #0]
 8003c9a:	481c      	ldr	r0, [pc, #112]	@ (8003d0c <UART_SetConfig+0x2e4>)
 8003c9c:	f3c3 03c1 	ubfx	r3, r3, #3, #2
 8003ca0:	40d8      	lsrs	r0, r3
 8003ca2:	6a61      	ldr	r1, [r4, #36]	@ 0x24
 8003ca4:	4a17      	ldr	r2, [pc, #92]	@ (8003d04 <UART_SetConfig+0x2dc>)
 8003ca6:	6863      	ldr	r3, [r4, #4]
 8003ca8:	f832 2011 	ldrh.w	r2, [r2, r1, lsl #1]
 8003cac:	fbb0 f0f2 	udiv	r0, r0, r2
 8003cb0:	eb00 0053 	add.w	r0, r0, r3, lsr #1
 8003cb4:	fbb0 f0f3 	udiv	r0, r0, r3
 8003cb8:	f64f 73ef 	movw	r3, #65519	@ 0xffef
 8003cbc:	f1a0 0210 	sub.w	r2, r0, #16
 8003cc0:	e755      	b.n	8003b6e <UART_SetConfig+0x146>
 8003cc2:	f5b3 4f00 	cmp.w	r3, #32768	@ 0x8000
 8003cc6:	d0bd      	beq.n	8003c44 <UART_SetConfig+0x21c>
 8003cc8:	f7fe fd2a 	bl	8002720 <HAL_RCC_GetPCLK2Freq>
 8003ccc:	e7d3      	b.n	8003c76 <UART_SetConfig+0x24e>
 8003cce:	bf00      	nop
 8003cd0:	cfff69f3 	.word	0xcfff69f3
 8003cd4:	58000c00 	.word	0x58000c00
 8003cd8:	40011000 	.word	0x40011000
 8003cdc:	58024400 	.word	0x58024400
 8003ce0:	40004400 	.word	0x40004400
 8003ce4:	40004800 	.word	0x40004800
 8003ce8:	40004c00 	.word	0x40004c00
 8003cec:	40005000 	.word	0x40005000
 8003cf0:	40011400 	.word	0x40011400
 8003cf4:	40007800 	.word	0x40007800
 8003cf8:	40007c00 	.word	0x40007c00
 8003cfc:	40011800 	.word	0x40011800
 8003d00:	40011c00 	.word	0x40011c00
 8003d04:	0800903e 	.word	0x0800903e
 8003d08:	000ffcff 	.word	0x000ffcff
 8003d0c:	03d09000 	.word	0x03d09000
 8003d10:	003d0900 	.word	0x003d0900
 8003d14:	f5b3 4f00 	cmp.w	r3, #32768	@ 0x8000
 8003d18:	f43f af6e 	beq.w	8003bf8 <UART_SetConfig+0x1d0>
 8003d1c:	4668      	mov	r0, sp
 8003d1e:	f7ff fae3 	bl	80032e8 <HAL_RCCEx_GetPLL2ClockFreq>
 8003d22:	9801      	ldr	r0, [sp, #4]
 8003d24:	e7a7      	b.n	8003c76 <UART_SetConfig+0x24e>
 8003d26:	f5b3 4f00 	cmp.w	r3, #32768	@ 0x8000
 8003d2a:	f43f af67 	beq.w	8003bfc <UART_SetConfig+0x1d4>
 8003d2e:	a803      	add	r0, sp, #12
 8003d30:	f7ff fb84 	bl	800343c <HAL_RCCEx_GetPLL3ClockFreq>
 8003d34:	9804      	ldr	r0, [sp, #16]
 8003d36:	e79e      	b.n	8003c76 <UART_SetConfig+0x24e>

08003d38 <UART_AdvFeatureConfig>:
 8003d38:	6a83      	ldr	r3, [r0, #40]	@ 0x28
 8003d3a:	071a      	lsls	r2, r3, #28
 8003d3c:	b510      	push	{r4, lr}
 8003d3e:	d506      	bpl.n	8003d4e <UART_AdvFeatureConfig+0x16>
 8003d40:	6801      	ldr	r1, [r0, #0]
 8003d42:	6b84      	ldr	r4, [r0, #56]	@ 0x38
 8003d44:	684a      	ldr	r2, [r1, #4]
 8003d46:	f422 4200 	bic.w	r2, r2, #32768	@ 0x8000
 8003d4a:	4322      	orrs	r2, r4
 8003d4c:	604a      	str	r2, [r1, #4]
 8003d4e:	07dc      	lsls	r4, r3, #31
 8003d50:	d506      	bpl.n	8003d60 <UART_AdvFeatureConfig+0x28>
 8003d52:	6801      	ldr	r1, [r0, #0]
 8003d54:	6ac4      	ldr	r4, [r0, #44]	@ 0x2c
 8003d56:	684a      	ldr	r2, [r1, #4]
 8003d58:	f422 3200 	bic.w	r2, r2, #131072	@ 0x20000
 8003d5c:	4322      	orrs	r2, r4
 8003d5e:	604a      	str	r2, [r1, #4]
 8003d60:	0799      	lsls	r1, r3, #30
 8003d62:	d506      	bpl.n	8003d72 <UART_AdvFeatureConfig+0x3a>
 8003d64:	6801      	ldr	r1, [r0, #0]
 8003d66:	6b04      	ldr	r4, [r0, #48]	@ 0x30
 8003d68:	684a      	ldr	r2, [r1, #4]
 8003d6a:	f422 3280 	bic.w	r2, r2, #65536	@ 0x10000
 8003d6e:	4322      	orrs	r2, r4
 8003d70:	604a      	str	r2, [r1, #4]
 8003d72:	075a      	lsls	r2, r3, #29
 8003d74:	d506      	bpl.n	8003d84 <UART_AdvFeatureConfig+0x4c>
 8003d76:	6801      	ldr	r1, [r0, #0]
 8003d78:	6b44      	ldr	r4, [r0, #52]	@ 0x34
 8003d7a:	684a      	ldr	r2, [r1, #4]
 8003d7c:	f422 2280 	bic.w	r2, r2, #262144	@ 0x40000
 8003d80:	4322      	orrs	r2, r4
 8003d82:	604a      	str	r2, [r1, #4]
 8003d84:	06dc      	lsls	r4, r3, #27
 8003d86:	d506      	bpl.n	8003d96 <UART_AdvFeatureConfig+0x5e>
 8003d88:	6801      	ldr	r1, [r0, #0]
 8003d8a:	6bc4      	ldr	r4, [r0, #60]	@ 0x3c
 8003d8c:	688a      	ldr	r2, [r1, #8]
 8003d8e:	f422 5280 	bic.w	r2, r2, #4096	@ 0x1000
 8003d92:	4322      	orrs	r2, r4
 8003d94:	608a      	str	r2, [r1, #8]
 8003d96:	0699      	lsls	r1, r3, #26
 8003d98:	d506      	bpl.n	8003da8 <UART_AdvFeatureConfig+0x70>
 8003d9a:	6801      	ldr	r1, [r0, #0]
 8003d9c:	6c04      	ldr	r4, [r0, #64]	@ 0x40
 8003d9e:	688a      	ldr	r2, [r1, #8]
 8003da0:	f422 5200 	bic.w	r2, r2, #8192	@ 0x2000
 8003da4:	4322      	orrs	r2, r4
 8003da6:	608a      	str	r2, [r1, #8]
 8003da8:	065a      	lsls	r2, r3, #25
 8003daa:	d510      	bpl.n	8003dce <UART_AdvFeatureConfig+0x96>
 8003dac:	6801      	ldr	r1, [r0, #0]
 8003dae:	6c44      	ldr	r4, [r0, #68]	@ 0x44
 8003db0:	684a      	ldr	r2, [r1, #4]
 8003db2:	f5b4 1f80 	cmp.w	r4, #1048576	@ 0x100000
 8003db6:	f422 1280 	bic.w	r2, r2, #1048576	@ 0x100000
 8003dba:	ea42 0204 	orr.w	r2, r2, r4
 8003dbe:	604a      	str	r2, [r1, #4]
 8003dc0:	d105      	bne.n	8003dce <UART_AdvFeatureConfig+0x96>
 8003dc2:	684a      	ldr	r2, [r1, #4]
 8003dc4:	6c84      	ldr	r4, [r0, #72]	@ 0x48
 8003dc6:	f422 02c0 	bic.w	r2, r2, #6291456	@ 0x600000
 8003dca:	4322      	orrs	r2, r4
 8003dcc:	604a      	str	r2, [r1, #4]
 8003dce:	061b      	lsls	r3, r3, #24
 8003dd0:	d506      	bpl.n	8003de0 <UART_AdvFeatureConfig+0xa8>
 8003dd2:	6802      	ldr	r2, [r0, #0]
 8003dd4:	6cc1      	ldr	r1, [r0, #76]	@ 0x4c
 8003dd6:	6853      	ldr	r3, [r2, #4]
 8003dd8:	f423 2300 	bic.w	r3, r3, #524288	@ 0x80000
 8003ddc:	430b      	orrs	r3, r1
 8003dde:	6053      	str	r3, [r2, #4]
 8003de0:	bd10      	pop	{r4, pc}

08003de2 <UART_WaitOnFlagUntilTimeout>:
 8003de2:	e92d 43f8 	stmdb	sp!, {r3, r4, r5, r6, r7, r8, r9, lr}
 8003de6:	f8dd 9020 	ldr.w	r9, [sp, #32]
 8003dea:	4604      	mov	r4, r0
 8003dec:	460d      	mov	r5, r1
 8003dee:	4617      	mov	r7, r2
 8003df0:	4698      	mov	r8, r3
 8003df2:	6822      	ldr	r2, [r4, #0]
 8003df4:	69d3      	ldr	r3, [r2, #28]
 8003df6:	ea35 0303 	bics.w	r3, r5, r3
 8003dfa:	bf0c      	ite	eq
 8003dfc:	2301      	moveq	r3, #1
 8003dfe:	2300      	movne	r3, #0
 8003e00:	42bb      	cmp	r3, r7
 8003e02:	d001      	beq.n	8003e08 <UART_WaitOnFlagUntilTimeout+0x26>
 8003e04:	2000      	movs	r0, #0
 8003e06:	e022      	b.n	8003e4e <UART_WaitOnFlagUntilTimeout+0x6c>
 8003e08:	f1b9 3fff 	cmp.w	r9, #4294967295
 8003e0c:	d0f2      	beq.n	8003df4 <UART_WaitOnFlagUntilTimeout+0x12>
 8003e0e:	f7fd fc9b 	bl	8001748 <HAL_GetTick>
 8003e12:	eba0 0008 	sub.w	r0, r0, r8
 8003e16:	4548      	cmp	r0, r9
 8003e18:	d829      	bhi.n	8003e6e <UART_WaitOnFlagUntilTimeout+0x8c>
 8003e1a:	f1b9 0f00 	cmp.w	r9, #0
 8003e1e:	d026      	beq.n	8003e6e <UART_WaitOnFlagUntilTimeout+0x8c>
 8003e20:	6821      	ldr	r1, [r4, #0]
 8003e22:	680b      	ldr	r3, [r1, #0]
 8003e24:	075a      	lsls	r2, r3, #29
 8003e26:	d5e4      	bpl.n	8003df2 <UART_WaitOnFlagUntilTimeout+0x10>
 8003e28:	2d80      	cmp	r5, #128	@ 0x80
 8003e2a:	d0e2      	beq.n	8003df2 <UART_WaitOnFlagUntilTimeout+0x10>
 8003e2c:	2d40      	cmp	r5, #64	@ 0x40
 8003e2e:	d0e0      	beq.n	8003df2 <UART_WaitOnFlagUntilTimeout+0x10>
 8003e30:	69ce      	ldr	r6, [r1, #28]
 8003e32:	f016 0608 	ands.w	r6, r6, #8
 8003e36:	d00c      	beq.n	8003e52 <UART_WaitOnFlagUntilTimeout+0x70>
 8003e38:	2508      	movs	r5, #8
 8003e3a:	4620      	mov	r0, r4
 8003e3c:	620d      	str	r5, [r1, #32]
 8003e3e:	f7ff fdc7 	bl	80039d0 <UART_EndRxTransfer>
 8003e42:	2300      	movs	r3, #0
 8003e44:	2001      	movs	r0, #1
 8003e46:	f8c4 5090 	str.w	r5, [r4, #144]	@ 0x90
 8003e4a:	f884 3084 	strb.w	r3, [r4, #132]	@ 0x84
 8003e4e:	e8bd 83f8 	ldmia.w	sp!, {r3, r4, r5, r6, r7, r8, r9, pc}
 8003e52:	69cb      	ldr	r3, [r1, #28]
 8003e54:	051b      	lsls	r3, r3, #20
 8003e56:	d5cc      	bpl.n	8003df2 <UART_WaitOnFlagUntilTimeout+0x10>
 8003e58:	f44f 6300 	mov.w	r3, #2048	@ 0x800
 8003e5c:	4620      	mov	r0, r4
 8003e5e:	620b      	str	r3, [r1, #32]
 8003e60:	f7ff fdb6 	bl	80039d0 <UART_EndRxTransfer>
 8003e64:	2320      	movs	r3, #32
 8003e66:	f884 6084 	strb.w	r6, [r4, #132]	@ 0x84
 8003e6a:	f8c4 3090 	str.w	r3, [r4, #144]	@ 0x90
 8003e6e:	2003      	movs	r0, #3
 8003e70:	e7ed      	b.n	8003e4e <UART_WaitOnFlagUntilTimeout+0x6c>

08003e72 <HAL_UART_Transmit>:
 8003e72:	e92d 43f7 	stmdb	sp!, {r0, r1, r2, r4, r5, r6, r7, r8, r9, lr}
 8003e76:	4698      	mov	r8, r3
 8003e78:	f8d0 3088 	ldr.w	r3, [r0, #136]	@ 0x88
 8003e7c:	4604      	mov	r4, r0
 8003e7e:	460e      	mov	r6, r1
 8003e80:	2b20      	cmp	r3, #32
 8003e82:	4617      	mov	r7, r2
 8003e84:	d14e      	bne.n	8003f24 <HAL_UART_Transmit+0xb2>
 8003e86:	b919      	cbnz	r1, 8003e90 <HAL_UART_Transmit+0x1e>
 8003e88:	2001      	movs	r0, #1
 8003e8a:	b003      	add	sp, #12
 8003e8c:	e8bd 83f0 	ldmia.w	sp!, {r4, r5, r6, r7, r8, r9, pc}
 8003e90:	2a00      	cmp	r2, #0
 8003e92:	d0f9      	beq.n	8003e88 <HAL_UART_Transmit+0x16>
 8003e94:	2321      	movs	r3, #33	@ 0x21
 8003e96:	2500      	movs	r5, #0
 8003e98:	f8c0 5090 	str.w	r5, [r0, #144]	@ 0x90
 8003e9c:	f8c0 3088 	str.w	r3, [r0, #136]	@ 0x88
 8003ea0:	f7fd fc52 	bl	8001748 <HAL_GetTick>
 8003ea4:	68a3      	ldr	r3, [r4, #8]
 8003ea6:	4681      	mov	r9, r0
 8003ea8:	f8a4 7054 	strh.w	r7, [r4, #84]	@ 0x54
 8003eac:	f5b3 5f80 	cmp.w	r3, #4096	@ 0x1000
 8003eb0:	f8a4 7056 	strh.w	r7, [r4, #86]	@ 0x56
 8003eb4:	d103      	bne.n	8003ebe <HAL_UART_Transmit+0x4c>
 8003eb6:	6923      	ldr	r3, [r4, #16]
 8003eb8:	b90b      	cbnz	r3, 8003ebe <HAL_UART_Transmit+0x4c>
 8003eba:	4635      	mov	r5, r6
 8003ebc:	461e      	mov	r6, r3
 8003ebe:	f8b4 2056 	ldrh.w	r2, [r4, #86]	@ 0x56
 8003ec2:	464b      	mov	r3, r9
 8003ec4:	f8cd 8000 	str.w	r8, [sp]
 8003ec8:	b292      	uxth	r2, r2
 8003eca:	b94a      	cbnz	r2, 8003ee0 <HAL_UART_Transmit+0x6e>
 8003ecc:	2140      	movs	r1, #64	@ 0x40
 8003ece:	4620      	mov	r0, r4
 8003ed0:	f7ff ff87 	bl	8003de2 <UART_WaitOnFlagUntilTimeout>
 8003ed4:	2320      	movs	r3, #32
 8003ed6:	f8c4 3088 	str.w	r3, [r4, #136]	@ 0x88
 8003eda:	2800      	cmp	r0, #0
 8003edc:	d0d5      	beq.n	8003e8a <HAL_UART_Transmit+0x18>
 8003ede:	e008      	b.n	8003ef2 <HAL_UART_Transmit+0x80>
 8003ee0:	2200      	movs	r2, #0
 8003ee2:	2180      	movs	r1, #128	@ 0x80
 8003ee4:	4620      	mov	r0, r4
 8003ee6:	f7ff ff7c 	bl	8003de2 <UART_WaitOnFlagUntilTimeout>
 8003eea:	b120      	cbz	r0, 8003ef6 <HAL_UART_Transmit+0x84>
 8003eec:	2320      	movs	r3, #32
 8003eee:	f8c4 3088 	str.w	r3, [r4, #136]	@ 0x88
 8003ef2:	2003      	movs	r0, #3
 8003ef4:	e7c9      	b.n	8003e8a <HAL_UART_Transmit+0x18>
 8003ef6:	6822      	ldr	r2, [r4, #0]
 8003ef8:	b98e      	cbnz	r6, 8003f1e <HAL_UART_Transmit+0xac>
 8003efa:	f835 3b02 	ldrh.w	r3, [r5], #2
 8003efe:	f3c3 0308 	ubfx	r3, r3, #0, #9
 8003f02:	6293      	str	r3, [r2, #40]	@ 0x28
 8003f04:	f8d4 3088 	ldr.w	r3, [r4, #136]	@ 0x88
 8003f08:	f003 0321 	and.w	r3, r3, #33	@ 0x21
 8003f0c:	2b21      	cmp	r3, #33	@ 0x21
 8003f0e:	d1bb      	bne.n	8003e88 <HAL_UART_Transmit+0x16>
 8003f10:	f8b4 2056 	ldrh.w	r2, [r4, #86]	@ 0x56
 8003f14:	3a01      	subs	r2, #1
 8003f16:	b292      	uxth	r2, r2
 8003f18:	f8a4 2056 	strh.w	r2, [r4, #86]	@ 0x56
 8003f1c:	e7cf      	b.n	8003ebe <HAL_UART_Transmit+0x4c>
 8003f1e:	f816 3b01 	ldrb.w	r3, [r6], #1
 8003f22:	e7ee      	b.n	8003f02 <HAL_UART_Transmit+0x90>
 8003f24:	2002      	movs	r0, #2
 8003f26:	e7b0      	b.n	8003e8a <HAL_UART_Transmit+0x18>

08003f28 <UART_CheckIdleState>:
 8003f28:	b573      	push	{r0, r1, r4, r5, r6, lr}
 8003f2a:	2600      	movs	r6, #0
 8003f2c:	4604      	mov	r4, r0
 8003f2e:	f8c0 6090 	str.w	r6, [r0, #144]	@ 0x90
 8003f32:	f7fd fc09 	bl	8001748 <HAL_GetTick>
 8003f36:	6823      	ldr	r3, [r4, #0]
 8003f38:	4605      	mov	r5, r0
 8003f3a:	681b      	ldr	r3, [r3, #0]
 8003f3c:	071a      	lsls	r2, r3, #28
 8003f3e:	d51c      	bpl.n	8003f7a <UART_CheckIdleState+0x52>
 8003f40:	f06f 437e 	mvn.w	r3, #4261412864	@ 0xfe000000
 8003f44:	4632      	mov	r2, r6
 8003f46:	f44f 1100 	mov.w	r1, #2097152	@ 0x200000
 8003f4a:	9300      	str	r3, [sp, #0]
 8003f4c:	4603      	mov	r3, r0
 8003f4e:	4620      	mov	r0, r4
 8003f50:	f7ff ff47 	bl	8003de2 <UART_WaitOnFlagUntilTimeout>
 8003f54:	b188      	cbz	r0, 8003f7a <UART_CheckIdleState+0x52>
 8003f56:	6822      	ldr	r2, [r4, #0]
 8003f58:	e852 3f00 	ldrex	r3, [r2]
 8003f5c:	f023 0380 	bic.w	r3, r3, #128	@ 0x80
 8003f60:	e842 3100 	strex	r1, r3, [r2]
 8003f64:	2900      	cmp	r1, #0
 8003f66:	d1f6      	bne.n	8003f56 <UART_CheckIdleState+0x2e>
 8003f68:	2320      	movs	r3, #32
 8003f6a:	f8c4 3088 	str.w	r3, [r4, #136]	@ 0x88
 8003f6e:	2003      	movs	r0, #3
 8003f70:	2300      	movs	r3, #0
 8003f72:	f884 3084 	strb.w	r3, [r4, #132]	@ 0x84
 8003f76:	b002      	add	sp, #8
 8003f78:	bd70      	pop	{r4, r5, r6, pc}
 8003f7a:	6823      	ldr	r3, [r4, #0]
 8003f7c:	681b      	ldr	r3, [r3, #0]
 8003f7e:	075b      	lsls	r3, r3, #29
 8003f80:	d524      	bpl.n	8003fcc <UART_CheckIdleState+0xa4>
 8003f82:	f06f 437e 	mvn.w	r3, #4261412864	@ 0xfe000000
 8003f86:	2200      	movs	r2, #0
 8003f88:	f44f 0180 	mov.w	r1, #4194304	@ 0x400000
 8003f8c:	4620      	mov	r0, r4
 8003f8e:	9300      	str	r3, [sp, #0]
 8003f90:	462b      	mov	r3, r5
 8003f92:	f7ff ff26 	bl	8003de2 <UART_WaitOnFlagUntilTimeout>
 8003f96:	b1c8      	cbz	r0, 8003fcc <UART_CheckIdleState+0xa4>
 8003f98:	6822      	ldr	r2, [r4, #0]
 8003f9a:	e852 3f00 	ldrex	r3, [r2]
 8003f9e:	f423 7390 	bic.w	r3, r3, #288	@ 0x120
 8003fa2:	e842 3100 	strex	r1, r3, [r2]
 8003fa6:	6822      	ldr	r2, [r4, #0]
 8003fa8:	2900      	cmp	r1, #0
 8003faa:	d1f5      	bne.n	8003f98 <UART_CheckIdleState+0x70>
 8003fac:	f102 0308 	add.w	r3, r2, #8
 8003fb0:	e853 3f00 	ldrex	r3, [r3]
 8003fb4:	f023 0301 	bic.w	r3, r3, #1
 8003fb8:	f102 0008 	add.w	r0, r2, #8
 8003fbc:	e840 3100 	strex	r1, r3, [r0]
 8003fc0:	2900      	cmp	r1, #0
 8003fc2:	d1f3      	bne.n	8003fac <UART_CheckIdleState+0x84>
 8003fc4:	2320      	movs	r3, #32
 8003fc6:	f8c4 308c 	str.w	r3, [r4, #140]	@ 0x8c
 8003fca:	e7d0      	b.n	8003f6e <UART_CheckIdleState+0x46>
 8003fcc:	2320      	movs	r3, #32
 8003fce:	2000      	movs	r0, #0
 8003fd0:	f8c4 3088 	str.w	r3, [r4, #136]	@ 0x88
 8003fd4:	f8c4 308c 	str.w	r3, [r4, #140]	@ 0x8c
 8003fd8:	66e0      	str	r0, [r4, #108]	@ 0x6c
 8003fda:	6720      	str	r0, [r4, #112]	@ 0x70
 8003fdc:	e7c8      	b.n	8003f70 <UART_CheckIdleState+0x48>

08003fde <HAL_UART_Init>:
 8003fde:	b510      	push	{r4, lr}
 8003fe0:	4604      	mov	r4, r0
 8003fe2:	b350      	cbz	r0, 800403a <HAL_UART_Init+0x5c>
 8003fe4:	f8d0 3088 	ldr.w	r3, [r0, #136]	@ 0x88
 8003fe8:	b91b      	cbnz	r3, 8003ff2 <HAL_UART_Init+0x14>
 8003fea:	f880 3084 	strb.w	r3, [r0, #132]	@ 0x84
 8003fee:	f7fd f9d7 	bl	80013a0 <HAL_UART_MspInit>
 8003ff2:	2324      	movs	r3, #36	@ 0x24
 8003ff4:	6822      	ldr	r2, [r4, #0]
 8003ff6:	f8c4 3088 	str.w	r3, [r4, #136]	@ 0x88
 8003ffa:	6813      	ldr	r3, [r2, #0]
 8003ffc:	f023 0301 	bic.w	r3, r3, #1
 8004000:	6013      	str	r3, [r2, #0]
 8004002:	6aa3      	ldr	r3, [r4, #40]	@ 0x28
 8004004:	b113      	cbz	r3, 800400c <HAL_UART_Init+0x2e>
 8004006:	4620      	mov	r0, r4
 8004008:	f7ff fe96 	bl	8003d38 <UART_AdvFeatureConfig>
 800400c:	4620      	mov	r0, r4
 800400e:	f7ff fd0b 	bl	8003a28 <UART_SetConfig>
 8004012:	2801      	cmp	r0, #1
 8004014:	d011      	beq.n	800403a <HAL_UART_Init+0x5c>
 8004016:	6823      	ldr	r3, [r4, #0]
 8004018:	4620      	mov	r0, r4
 800401a:	685a      	ldr	r2, [r3, #4]
 800401c:	f422 4290 	bic.w	r2, r2, #18432	@ 0x4800
 8004020:	605a      	str	r2, [r3, #4]
 8004022:	689a      	ldr	r2, [r3, #8]
 8004024:	f022 022a 	bic.w	r2, r2, #42	@ 0x2a
 8004028:	609a      	str	r2, [r3, #8]
 800402a:	681a      	ldr	r2, [r3, #0]
 800402c:	f042 0201 	orr.w	r2, r2, #1
 8004030:	e8bd 4010 	ldmia.w	sp!, {r4, lr}
 8004034:	601a      	str	r2, [r3, #0]
 8004036:	f7ff bf77 	b.w	8003f28 <UART_CheckIdleState>
 800403a:	2001      	movs	r0, #1
 800403c:	bd10      	pop	{r4, pc}
	...

08004040 <UARTEx_SetNbDataToProcess>:
 8004040:	6e43      	ldr	r3, [r0, #100]	@ 0x64
 8004042:	b530      	push	{r4, r5, lr}
 8004044:	b92b      	cbnz	r3, 8004052 <UARTEx_SetNbDataToProcess+0x12>
 8004046:	2301      	movs	r3, #1
 8004048:	f8a0 306a 	strh.w	r3, [r0, #106]	@ 0x6a
 800404c:	f8a0 3068 	strh.w	r3, [r0, #104]	@ 0x68
 8004050:	bd30      	pop	{r4, r5, pc}
 8004052:	6803      	ldr	r3, [r0, #0]
 8004054:	4d09      	ldr	r5, [pc, #36]	@ (800407c <UARTEx_SetNbDataToProcess+0x3c>)
 8004056:	689a      	ldr	r2, [r3, #8]
 8004058:	6899      	ldr	r1, [r3, #8]
 800405a:	4c09      	ldr	r4, [pc, #36]	@ (8004080 <UARTEx_SetNbDataToProcess+0x40>)
 800405c:	f3c2 6242 	ubfx	r2, r2, #25, #3
 8004060:	0f49      	lsrs	r1, r1, #29
 8004062:	5c6b      	ldrb	r3, [r5, r1]
 8004064:	5c61      	ldrb	r1, [r4, r1]
 8004066:	011b      	lsls	r3, r3, #4
 8004068:	fbb3 f3f1 	udiv	r3, r3, r1
 800406c:	f8a0 306a 	strh.w	r3, [r0, #106]	@ 0x6a
 8004070:	5cab      	ldrb	r3, [r5, r2]
 8004072:	5ca2      	ldrb	r2, [r4, r2]
 8004074:	011b      	lsls	r3, r3, #4
 8004076:	fbb3 f3f2 	udiv	r3, r3, r2
 800407a:	e7e7      	b.n	800404c <UARTEx_SetNbDataToProcess+0xc>
 800407c:	0800905e 	.word	0x0800905e
 8004080:	08009056 	.word	0x08009056

08004084 <HAL_UARTEx_DisableFifoMode>:
 8004084:	f890 3084 	ldrb.w	r3, [r0, #132]	@ 0x84
 8004088:	2b01      	cmp	r3, #1
 800408a:	d014      	beq.n	80040b6 <HAL_UARTEx_DisableFifoMode+0x32>
 800408c:	6802      	ldr	r2, [r0, #0]
 800408e:	2324      	movs	r3, #36	@ 0x24
 8004090:	f8c0 3088 	str.w	r3, [r0, #136]	@ 0x88
 8004094:	6811      	ldr	r1, [r2, #0]
 8004096:	6813      	ldr	r3, [r2, #0]
 8004098:	f021 5100 	bic.w	r1, r1, #536870912	@ 0x20000000
 800409c:	f023 0301 	bic.w	r3, r3, #1
 80040a0:	6013      	str	r3, [r2, #0]
 80040a2:	2300      	movs	r3, #0
 80040a4:	6643      	str	r3, [r0, #100]	@ 0x64
 80040a6:	6011      	str	r1, [r2, #0]
 80040a8:	2220      	movs	r2, #32
 80040aa:	f880 3084 	strb.w	r3, [r0, #132]	@ 0x84
 80040ae:	f8c0 2088 	str.w	r2, [r0, #136]	@ 0x88
 80040b2:	4618      	mov	r0, r3
 80040b4:	4770      	bx	lr
 80040b6:	2002      	movs	r0, #2
 80040b8:	4770      	bx	lr

080040ba <HAL_UARTEx_SetTxFifoThreshold>:
 80040ba:	b570      	push	{r4, r5, r6, lr}
 80040bc:	f890 3084 	ldrb.w	r3, [r0, #132]	@ 0x84
 80040c0:	4604      	mov	r4, r0
 80040c2:	2b01      	cmp	r3, #1
 80040c4:	d017      	beq.n	80040f6 <HAL_UARTEx_SetTxFifoThreshold+0x3c>
 80040c6:	6805      	ldr	r5, [r0, #0]
 80040c8:	2324      	movs	r3, #36	@ 0x24
 80040ca:	f8c0 3088 	str.w	r3, [r0, #136]	@ 0x88
 80040ce:	682e      	ldr	r6, [r5, #0]
 80040d0:	682b      	ldr	r3, [r5, #0]
 80040d2:	f023 0301 	bic.w	r3, r3, #1
 80040d6:	602b      	str	r3, [r5, #0]
 80040d8:	68ab      	ldr	r3, [r5, #8]
 80040da:	f023 4360 	bic.w	r3, r3, #3758096384	@ 0xe0000000
 80040de:	4319      	orrs	r1, r3
 80040e0:	60a9      	str	r1, [r5, #8]
 80040e2:	f7ff ffad 	bl	8004040 <UARTEx_SetNbDataToProcess>
 80040e6:	2320      	movs	r3, #32
 80040e8:	602e      	str	r6, [r5, #0]
 80040ea:	f8c0 3088 	str.w	r3, [r0, #136]	@ 0x88
 80040ee:	2000      	movs	r0, #0
 80040f0:	f884 0084 	strb.w	r0, [r4, #132]	@ 0x84
 80040f4:	bd70      	pop	{r4, r5, r6, pc}
 80040f6:	2002      	movs	r0, #2
 80040f8:	e7fc      	b.n	80040f4 <HAL_UARTEx_SetTxFifoThreshold+0x3a>

080040fa <HAL_UARTEx_SetRxFifoThreshold>:
 80040fa:	b570      	push	{r4, r5, r6, lr}
 80040fc:	f890 3084 	ldrb.w	r3, [r0, #132]	@ 0x84
 8004100:	4604      	mov	r4, r0
 8004102:	2b01      	cmp	r3, #1
 8004104:	d017      	beq.n	8004136 <HAL_UARTEx_SetRxFifoThreshold+0x3c>
 8004106:	6805      	ldr	r5, [r0, #0]
 8004108:	2324      	movs	r3, #36	@ 0x24
 800410a:	f8c0 3088 	str.w	r3, [r0, #136]	@ 0x88
 800410e:	682e      	ldr	r6, [r5, #0]
 8004110:	682b      	ldr	r3, [r5, #0]
 8004112:	f023 0301 	bic.w	r3, r3, #1
 8004116:	602b      	str	r3, [r5, #0]
 8004118:	68ab      	ldr	r3, [r5, #8]
 800411a:	f023 6360 	bic.w	r3, r3, #234881024	@ 0xe000000
 800411e:	4319      	orrs	r1, r3
 8004120:	60a9      	str	r1, [r5, #8]
 8004122:	f7ff ff8d 	bl	8004040 <UARTEx_SetNbDataToProcess>
 8004126:	2320      	movs	r3, #32
 8004128:	602e      	str	r6, [r5, #0]
 800412a:	f8c0 3088 	str.w	r3, [r0, #136]	@ 0x88
 800412e:	2000      	movs	r0, #0
 8004130:	f884 0084 	strb.w	r0, [r4, #132]	@ 0x84
 8004134:	bd70      	pop	{r4, r5, r6, pc}
 8004136:	2002      	movs	r0, #2
 8004138:	e7fc      	b.n	8004134 <HAL_UARTEx_SetRxFifoThreshold+0x3a>

0800413a <ld_32>:
 800413a:	6800      	ldr	r0, [r0, #0]
 800413c:	4770      	bx	lr

0800413e <ld_64>:
 800413e:	4603      	mov	r3, r0
 8004140:	6800      	ldr	r0, [r0, #0]
 8004142:	6859      	ldr	r1, [r3, #4]
 8004144:	4770      	bx	lr

08004146 <st_32>:
 8004146:	0a0b      	lsrs	r3, r1, #8
 8004148:	7001      	strb	r1, [r0, #0]
 800414a:	7043      	strb	r3, [r0, #1]
 800414c:	0c0b      	lsrs	r3, r1, #16
 800414e:	0e09      	lsrs	r1, r1, #24
 8004150:	7083      	strb	r3, [r0, #2]
 8004152:	70c1      	strb	r1, [r0, #3]
 8004154:	4770      	bx	lr

08004156 <st_64>:
 8004156:	0a11      	lsrs	r1, r2, #8
 8004158:	7002      	strb	r2, [r0, #0]
 800415a:	7103      	strb	r3, [r0, #4]
 800415c:	7041      	strb	r1, [r0, #1]
 800415e:	0c11      	lsrs	r1, r2, #16
 8004160:	0e12      	lsrs	r2, r2, #24
 8004162:	7081      	strb	r1, [r0, #2]
 8004164:	70c2      	strb	r2, [r0, #3]
 8004166:	0a1a      	lsrs	r2, r3, #8
 8004168:	7142      	strb	r2, [r0, #5]
 800416a:	0c1a      	lsrs	r2, r3, #16
 800416c:	0e1b      	lsrs	r3, r3, #24
 800416e:	7182      	strb	r2, [r0, #6]
 8004170:	71c3      	strb	r3, [r0, #7]
 8004172:	4770      	bx	lr

08004174 <clst2sect>:
 8004174:	6983      	ldr	r3, [r0, #24]
 8004176:	1e8a      	subs	r2, r1, #2
 8004178:	3b02      	subs	r3, #2
 800417a:	4293      	cmp	r3, r2
 800417c:	b510      	push	{r4, lr}
 800417e:	bf85      	ittet	hi
 8004180:	e9d0 3110 	ldrdhi	r3, r1, [r0, #64]	@ 0x40
 8004184:	8944      	ldrhhi	r4, [r0, #10]
 8004186:	2000      	movls	r0, #0
 8004188:	fbe4 3102 	umlalhi	r3, r1, r4, r2
 800418c:	bf94      	ite	ls
 800418e:	4601      	movls	r1, r0
 8004190:	4618      	movhi	r0, r3
 8004192:	bd10      	pop	{r4, pc}

08004194 <sum_sfn>:
 8004194:	4603      	mov	r3, r0
 8004196:	f100 010b 	add.w	r1, r0, #11
 800419a:	2000      	movs	r0, #0
 800419c:	01c2      	lsls	r2, r0, #7
 800419e:	ea42 0250 	orr.w	r2, r2, r0, lsr #1
 80041a2:	f813 0b01 	ldrb.w	r0, [r3], #1
 80041a6:	fa50 f282 	uxtab	r2, r0, r2
 80041aa:	428b      	cmp	r3, r1
 80041ac:	b2d0      	uxtb	r0, r2
 80041ae:	d1f5      	bne.n	800419c <sum_sfn+0x8>
 80041b0:	4770      	bx	lr

080041b2 <xdir_sum>:
 80041b2:	b510      	push	{r4, lr}
 80041b4:	7842      	ldrb	r2, [r0, #1]
 80041b6:	4604      	mov	r4, r0
 80041b8:	2000      	movs	r0, #0
 80041ba:	3201      	adds	r2, #1
 80041bc:	4603      	mov	r3, r0
 80041be:	0152      	lsls	r2, r2, #5
 80041c0:	2b02      	cmp	r3, #2
 80041c2:	ea4f 31c0 	mov.w	r1, r0, lsl #15
 80041c6:	bf08      	it	eq
 80041c8:	2304      	moveq	r3, #4
 80041ca:	ea41 0150 	orr.w	r1, r1, r0, lsr #1
 80041ce:	5ce0      	ldrb	r0, [r4, r3]
 80041d0:	3301      	adds	r3, #1
 80041d2:	fa10 f181 	uxtah	r1, r0, r1
 80041d6:	429a      	cmp	r2, r3
 80041d8:	b288      	uxth	r0, r1
 80041da:	d8f1      	bhi.n	80041c0 <xdir_sum+0xe>
 80041dc:	bd10      	pop	{r4, pc}

080041de <init_alloc_info>:
 80041de:	4602      	mov	r2, r0
 80041e0:	6800      	ldr	r0, [r0, #0]
 80041e2:	b510      	push	{r4, lr}
 80041e4:	b149      	cbz	r1, 80041fa <init_alloc_info+0x1c>
 80041e6:	688b      	ldr	r3, [r1, #8]
 80041e8:	6213      	str	r3, [r2, #32]
 80041ea:	690b      	ldr	r3, [r1, #16]
 80041ec:	79cc      	ldrb	r4, [r1, #7]
 80041ee:	f023 03ff 	bic.w	r3, r3, #255	@ 0xff
 80041f2:	4323      	orrs	r3, r4
 80041f4:	6253      	str	r3, [r2, #36]	@ 0x24
 80041f6:	6d0b      	ldr	r3, [r1, #80]	@ 0x50
 80041f8:	6293      	str	r3, [r2, #40]	@ 0x28
 80041fa:	6d04      	ldr	r4, [r0, #80]	@ 0x50
 80041fc:	f104 0034 	add.w	r0, r4, #52	@ 0x34
 8004200:	f7ff ff9b 	bl	800413a <ld_32>
 8004204:	6090      	str	r0, [r2, #8]
 8004206:	f104 0038 	add.w	r0, r4, #56	@ 0x38
 800420a:	f7ff ff98 	bl	800413e <ld_64>
 800420e:	e9c2 0104 	strd	r0, r1, [r2, #16]
 8004212:	f894 3021 	ldrb.w	r3, [r4, #33]	@ 0x21
 8004216:	f003 0302 	and.w	r3, r3, #2
 800421a:	71d3      	strb	r3, [r2, #7]
 800421c:	2300      	movs	r3, #0
 800421e:	61d3      	str	r3, [r2, #28]
 8004220:	bd10      	pop	{r4, pc}

08004222 <get_ldnumber>:
 8004222:	6803      	ldr	r3, [r0, #0]
 8004224:	b17b      	cbz	r3, 8004246 <get_ldnumber+0x24>
 8004226:	461a      	mov	r2, r3
 8004228:	f812 1b01 	ldrb.w	r1, [r2], #1
 800422c:	291f      	cmp	r1, #31
 800422e:	d908      	bls.n	8004242 <get_ldnumber+0x20>
 8004230:	293a      	cmp	r1, #58	@ 0x3a
 8004232:	d1f9      	bne.n	8004228 <get_ldnumber+0x6>
 8004234:	7819      	ldrb	r1, [r3, #0]
 8004236:	2930      	cmp	r1, #48	@ 0x30
 8004238:	d105      	bne.n	8004246 <get_ldnumber+0x24>
 800423a:	3302      	adds	r3, #2
 800423c:	429a      	cmp	r2, r3
 800423e:	d102      	bne.n	8004246 <get_ldnumber+0x24>
 8004240:	6002      	str	r2, [r0, #0]
 8004242:	2000      	movs	r0, #0
 8004244:	4770      	bx	lr
 8004246:	f04f 30ff 	mov.w	r0, #4294967295
 800424a:	4770      	bx	lr

0800424c <validate>:
 800424c:	b538      	push	{r3, r4, r5, lr}
 800424e:	460d      	mov	r5, r1
 8004250:	4604      	mov	r4, r0
 8004252:	b918      	cbnz	r0, 800425c <validate+0x10>
 8004254:	2009      	movs	r0, #9
 8004256:	2300      	movs	r3, #0
 8004258:	602b      	str	r3, [r5, #0]
 800425a:	bd38      	pop	{r3, r4, r5, pc}
 800425c:	6803      	ldr	r3, [r0, #0]
 800425e:	2b00      	cmp	r3, #0
 8004260:	d0f8      	beq.n	8004254 <validate+0x8>
 8004262:	781a      	ldrb	r2, [r3, #0]
 8004264:	2a00      	cmp	r2, #0
 8004266:	d0f5      	beq.n	8004254 <validate+0x8>
 8004268:	8881      	ldrh	r1, [r0, #4]
 800426a:	88da      	ldrh	r2, [r3, #6]
 800426c:	4291      	cmp	r1, r2
 800426e:	d1f1      	bne.n	8004254 <validate+0x8>
 8004270:	7858      	ldrb	r0, [r3, #1]
 8004272:	f7fc fe09 	bl	8000e88 <disk_status>
 8004276:	f010 0001 	ands.w	r0, r0, #1
 800427a:	d1eb      	bne.n	8004254 <validate+0x8>
 800427c:	6823      	ldr	r3, [r4, #0]
 800427e:	e7eb      	b.n	8004258 <validate+0xc>

08004280 <sync_window>:
 8004280:	b5f7      	push	{r0, r1, r2, r4, r5, r6, r7, lr}
 8004282:	7903      	ldrb	r3, [r0, #4]
 8004284:	4604      	mov	r4, r0
 8004286:	b313      	cbz	r3, 80042ce <sync_window+0x4e>
 8004288:	f100 0754 	add.w	r7, r0, #84	@ 0x54
 800428c:	2501      	movs	r5, #1
 800428e:	4639      	mov	r1, r7
 8004290:	9500      	str	r5, [sp, #0]
 8004292:	e9d0 2308 	ldrd	r2, r3, [r0, #32]
 8004296:	7840      	ldrb	r0, [r0, #1]
 8004298:	f7fc fe2a 	bl	8000ef0 <disk_write>
 800429c:	b9d0      	cbnz	r0, 80042d4 <sync_window+0x54>
 800429e:	7120      	strb	r0, [r4, #4]
 80042a0:	69e1      	ldr	r1, [r4, #28]
 80042a2:	e9d4 2308 	ldrd	r2, r3, [r4, #32]
 80042a6:	e9d4 600c 	ldrd	r6, r0, [r4, #48]	@ 0x30
 80042aa:	1b96      	subs	r6, r2, r6
 80042ac:	eb63 0000 	sbc.w	r0, r3, r0
 80042b0:	428e      	cmp	r6, r1
 80042b2:	f170 0000 	sbcs.w	r0, r0, #0
 80042b6:	d20a      	bcs.n	80042ce <sync_window+0x4e>
 80042b8:	78e0      	ldrb	r0, [r4, #3]
 80042ba:	2802      	cmp	r0, #2
 80042bc:	d107      	bne.n	80042ce <sync_window+0x4e>
 80042be:	1852      	adds	r2, r2, r1
 80042c0:	9500      	str	r5, [sp, #0]
 80042c2:	4639      	mov	r1, r7
 80042c4:	7860      	ldrb	r0, [r4, #1]
 80042c6:	f143 0300 	adc.w	r3, r3, #0
 80042ca:	f7fc fe11 	bl	8000ef0 <disk_write>
 80042ce:	2000      	movs	r0, #0
 80042d0:	b003      	add	sp, #12
 80042d2:	bdf0      	pop	{r4, r5, r6, r7, pc}
 80042d4:	4628      	mov	r0, r5
 80042d6:	e7fb      	b.n	80042d0 <sync_window+0x50>

080042d8 <xname_sum>:
 80042d8:	b538      	push	{r3, r4, r5, lr}
 80042da:	4605      	mov	r5, r0
 80042dc:	2400      	movs	r4, #0
 80042de:	f835 0b02 	ldrh.w	r0, [r5], #2
 80042e2:	b908      	cbnz	r0, 80042e8 <xname_sum+0x10>
 80042e4:	4620      	mov	r0, r4
 80042e6:	bd38      	pop	{r3, r4, r5, pc}
 80042e8:	f002 faf0 	bl	80068cc <ff_wtoupper>
 80042ec:	03e3      	lsls	r3, r4, #15
 80042ee:	b2c2      	uxtb	r2, r0
 80042f0:	f3c0 2007 	ubfx	r0, r0, #8, #8
 80042f4:	ea43 0354 	orr.w	r3, r3, r4, lsr #1
 80042f8:	fa12 f383 	uxtah	r3, r2, r3
 80042fc:	f3c3 044e 	ubfx	r4, r3, #1, #15
 8004300:	ea44 34c3 	orr.w	r4, r4, r3, lsl #15
 8004304:	fa10 f484 	uxtah	r4, r0, r4
 8004308:	b2a4      	uxth	r4, r4
 800430a:	e7e8      	b.n	80042de <xname_sum+0x6>

0800430c <sync_fs>:
 800430c:	b5f7      	push	{r0, r1, r2, r4, r5, r6, r7, lr}
 800430e:	4604      	mov	r4, r0
 8004310:	f7ff ffb6 	bl	8004280 <sync_window>
 8004314:	4605      	mov	r5, r0
 8004316:	2800      	cmp	r0, #0
 8004318:	d14a      	bne.n	80043b0 <sync_fs+0xa4>
 800431a:	7967      	ldrb	r7, [r4, #5]
 800431c:	2f01      	cmp	r7, #1
 800431e:	d13f      	bne.n	80043a0 <sync_fs+0x94>
 8004320:	7823      	ldrb	r3, [r4, #0]
 8004322:	7160      	strb	r0, [r4, #5]
 8004324:	2b03      	cmp	r3, #3
 8004326:	d145      	bne.n	80043b4 <sync_fs+0xa8>
 8004328:	f104 0654 	add.w	r6, r4, #84	@ 0x54
 800432c:	4601      	mov	r1, r0
 800432e:	f44f 7200 	mov.w	r2, #512	@ 0x200
 8004332:	4630      	mov	r0, r6
 8004334:	f004 fc45 	bl	8008bc2 <memset>
 8004338:	2352      	movs	r3, #82	@ 0x52
 800433a:	2241      	movs	r2, #65	@ 0x41
 800433c:	2172      	movs	r1, #114	@ 0x72
 800433e:	f884 3054 	strb.w	r3, [r4, #84]	@ 0x54
 8004342:	f504 700f 	add.w	r0, r4, #572	@ 0x23c
 8004346:	f884 3055 	strb.w	r3, [r4, #85]	@ 0x55
 800434a:	2361      	movs	r3, #97	@ 0x61
 800434c:	f884 2057 	strb.w	r2, [r4, #87]	@ 0x57
 8004350:	f884 3056 	strb.w	r3, [r4, #86]	@ 0x56
 8004354:	f884 323b 	strb.w	r3, [r4, #571]	@ 0x23b
 8004358:	f884 1238 	strb.w	r1, [r4, #568]	@ 0x238
 800435c:	f884 1239 	strb.w	r1, [r4, #569]	@ 0x239
 8004360:	f884 223a 	strb.w	r2, [r4, #570]	@ 0x23a
 8004364:	6961      	ldr	r1, [r4, #20]
 8004366:	f7ff feee 	bl	8004146 <st_32>
 800436a:	6921      	ldr	r1, [r4, #16]
 800436c:	f504 7010 	add.w	r0, r4, #576	@ 0x240
 8004370:	f7ff fee9 	bl	8004146 <st_32>
 8004374:	2355      	movs	r3, #85	@ 0x55
 8004376:	4631      	mov	r1, r6
 8004378:	f884 5250 	strb.w	r5, [r4, #592]	@ 0x250
 800437c:	f884 3252 	strb.w	r3, [r4, #594]	@ 0x252
 8004380:	23aa      	movs	r3, #170	@ 0xaa
 8004382:	f884 5251 	strb.w	r5, [r4, #593]	@ 0x251
 8004386:	f884 3253 	strb.w	r3, [r4, #595]	@ 0x253
 800438a:	e9d4 230a 	ldrd	r2, r3, [r4, #40]	@ 0x28
 800438e:	3201      	adds	r2, #1
 8004390:	f143 0300 	adc.w	r3, r3, #0
 8004394:	e9c4 2308 	strd	r2, r3, [r4, #32]
 8004398:	9700      	str	r7, [sp, #0]
 800439a:	7860      	ldrb	r0, [r4, #1]
 800439c:	f7fc fda8 	bl	8000ef0 <disk_write>
 80043a0:	2200      	movs	r2, #0
 80043a2:	7860      	ldrb	r0, [r4, #1]
 80043a4:	4611      	mov	r1, r2
 80043a6:	f7fc fdc7 	bl	8000f38 <disk_ioctl>
 80043aa:	3800      	subs	r0, #0
 80043ac:	bf18      	it	ne
 80043ae:	2001      	movne	r0, #1
 80043b0:	b003      	add	sp, #12
 80043b2:	bdf0      	pop	{r4, r5, r6, r7, pc}
 80043b4:	2b04      	cmp	r3, #4
 80043b6:	d1f3      	bne.n	80043a0 <sync_fs+0x94>
 80043b8:	f104 0554 	add.w	r5, r4, #84	@ 0x54
 80043bc:	e9d4 230a 	ldrd	r2, r3, [r4, #40]	@ 0x28
 80043c0:	4629      	mov	r1, r5
 80043c2:	e9c4 2308 	strd	r2, r3, [r4, #32]
 80043c6:	9700      	str	r7, [sp, #0]
 80043c8:	7860      	ldrb	r0, [r4, #1]
 80043ca:	f7fc fd6b 	bl	8000ea4 <disk_read>
 80043ce:	4603      	mov	r3, r0
 80043d0:	2800      	cmp	r0, #0
 80043d2:	d1e5      	bne.n	80043a0 <sync_fs+0x94>
 80043d4:	e9d4 1205 	ldrd	r1, r2, [r4, #20]
 80043d8:	3a02      	subs	r2, #2
 80043da:	4291      	cmp	r1, r2
 80043dc:	d812      	bhi.n	8004404 <sync_fs+0xf8>
 80043de:	1a51      	subs	r1, r2, r1
 80043e0:	2064      	movs	r0, #100	@ 0x64
 80043e2:	fba1 0100 	umull	r0, r1, r1, r0
 80043e6:	f7fb ff91 	bl	800030c <__aeabi_uldivmod>
 80043ea:	b2c0      	uxtb	r0, r0
 80043ec:	f894 30c4 	ldrb.w	r3, [r4, #196]	@ 0xc4
 80043f0:	4283      	cmp	r3, r0
 80043f2:	d0d5      	beq.n	80043a0 <sync_fs+0x94>
 80043f4:	2301      	movs	r3, #1
 80043f6:	f884 00c4 	strb.w	r0, [r4, #196]	@ 0xc4
 80043fa:	4629      	mov	r1, r5
 80043fc:	9300      	str	r3, [sp, #0]
 80043fe:	e9d4 2308 	ldrd	r2, r3, [r4, #32]
 8004402:	e7ca      	b.n	800439a <sync_fs+0x8e>
 8004404:	20ff      	movs	r0, #255	@ 0xff
 8004406:	e7f1      	b.n	80043ec <sync_fs+0xe0>

08004408 <st_clust>:
 8004408:	f3c2 2307 	ubfx	r3, r2, #8, #8
 800440c:	768a      	strb	r2, [r1, #26]
 800440e:	76cb      	strb	r3, [r1, #27]
 8004410:	7803      	ldrb	r3, [r0, #0]
 8004412:	2b03      	cmp	r3, #3
 8004414:	bf01      	itttt	eq
 8004416:	0c12      	lsreq	r2, r2, #16
 8004418:	750a      	strbeq	r2, [r1, #20]
 800441a:	0a12      	lsreq	r2, r2, #8
 800441c:	754a      	strbeq	r2, [r1, #21]
 800441e:	4770      	bx	lr

08004420 <move_window>:
 8004420:	b5f7      	push	{r0, r1, r2, r4, r5, r6, r7, lr}
 8004422:	4615      	mov	r5, r2
 8004424:	461e      	mov	r6, r3
 8004426:	4604      	mov	r4, r0
 8004428:	e9d0 2308 	ldrd	r2, r3, [r0, #32]
 800442c:	42b3      	cmp	r3, r6
 800442e:	bf08      	it	eq
 8004430:	42aa      	cmpeq	r2, r5
 8004432:	d014      	beq.n	800445e <move_window+0x3e>
 8004434:	f7ff ff24 	bl	8004280 <sync_window>
 8004438:	b978      	cbnz	r0, 800445a <move_window+0x3a>
 800443a:	2701      	movs	r7, #1
 800443c:	462a      	mov	r2, r5
 800443e:	4633      	mov	r3, r6
 8004440:	f104 0154 	add.w	r1, r4, #84	@ 0x54
 8004444:	9700      	str	r7, [sp, #0]
 8004446:	7860      	ldrb	r0, [r4, #1]
 8004448:	f7fc fd2c 	bl	8000ea4 <disk_read>
 800444c:	b118      	cbz	r0, 8004456 <move_window+0x36>
 800444e:	f04f 35ff 	mov.w	r5, #4294967295
 8004452:	4638      	mov	r0, r7
 8004454:	462e      	mov	r6, r5
 8004456:	e9c4 5608 	strd	r5, r6, [r4, #32]
 800445a:	b003      	add	sp, #12
 800445c:	bdf0      	pop	{r4, r5, r6, r7, pc}
 800445e:	2000      	movs	r0, #0
 8004460:	e7fb      	b.n	800445a <move_window+0x3a>
	...

08004464 <check_fs>:
 8004464:	b5f8      	push	{r3, r4, r5, r6, r7, lr}
 8004466:	2100      	movs	r1, #0
 8004468:	f04f 36ff 	mov.w	r6, #4294967295
 800446c:	f04f 37ff 	mov.w	r7, #4294967295
 8004470:	4604      	mov	r4, r0
 8004472:	7101      	strb	r1, [r0, #4]
 8004474:	e9c0 6708 	strd	r6, r7, [r0, #32]
 8004478:	f7ff ffd2 	bl	8004420 <move_window>
 800447c:	2800      	cmp	r0, #0
 800447e:	d14b      	bne.n	8004518 <check_fs+0xb4>
 8004480:	f8b4 5252 	ldrh.w	r5, [r4, #594]	@ 0x252
 8004484:	f64a 2355 	movw	r3, #43605	@ 0xaa55
 8004488:	429d      	cmp	r5, r3
 800448a:	d107      	bne.n	800449c <check_fs+0x38>
 800448c:	220b      	movs	r2, #11
 800448e:	4925      	ldr	r1, [pc, #148]	@ (8004524 <check_fs+0xc0>)
 8004490:	f104 0054 	add.w	r0, r4, #84	@ 0x54
 8004494:	f004 fb85 	bl	8008ba2 <memcmp>
 8004498:	2800      	cmp	r0, #0
 800449a:	d03f      	beq.n	800451c <check_fs+0xb8>
 800449c:	f894 3054 	ldrb.w	r3, [r4, #84]	@ 0x54
 80044a0:	2beb      	cmp	r3, #235	@ 0xeb
 80044a2:	d003      	beq.n	80044ac <check_fs+0x48>
 80044a4:	3318      	adds	r3, #24
 80044a6:	b2db      	uxtb	r3, r3
 80044a8:	2b01      	cmp	r3, #1
 80044aa:	d82e      	bhi.n	800450a <check_fs+0xa6>
 80044ac:	f64a 2355 	movw	r3, #43605	@ 0xaa55
 80044b0:	429d      	cmp	r5, r3
 80044b2:	d106      	bne.n	80044c2 <check_fs+0x5e>
 80044b4:	2208      	movs	r2, #8
 80044b6:	491c      	ldr	r1, [pc, #112]	@ (8004528 <check_fs+0xc4>)
 80044b8:	f104 00a6 	add.w	r0, r4, #166	@ 0xa6
 80044bc:	f004 fb71 	bl	8008ba2 <memcmp>
 80044c0:	b348      	cbz	r0, 8004516 <check_fs+0xb2>
 80044c2:	f8b4 305f 	ldrh.w	r3, [r4, #95]	@ 0x5f
 80044c6:	f5b3 7f00 	cmp.w	r3, #512	@ 0x200
 80044ca:	d11e      	bne.n	800450a <check_fs+0xa6>
 80044cc:	f894 3061 	ldrb.w	r3, [r4, #97]	@ 0x61
 80044d0:	b1db      	cbz	r3, 800450a <check_fs+0xa6>
 80044d2:	1e5a      	subs	r2, r3, #1
 80044d4:	421a      	tst	r2, r3
 80044d6:	d118      	bne.n	800450a <check_fs+0xa6>
 80044d8:	f8b4 3062 	ldrh.w	r3, [r4, #98]	@ 0x62
 80044dc:	b1ab      	cbz	r3, 800450a <check_fs+0xa6>
 80044de:	f894 3064 	ldrb.w	r3, [r4, #100]	@ 0x64
 80044e2:	3b01      	subs	r3, #1
 80044e4:	2b01      	cmp	r3, #1
 80044e6:	d810      	bhi.n	800450a <check_fs+0xa6>
 80044e8:	f8b4 3065 	ldrh.w	r3, [r4, #101]	@ 0x65
 80044ec:	b16b      	cbz	r3, 800450a <check_fs+0xa6>
 80044ee:	f8b4 3067 	ldrh.w	r3, [r4, #103]	@ 0x67
 80044f2:	2b7f      	cmp	r3, #127	@ 0x7f
 80044f4:	d806      	bhi.n	8004504 <check_fs+0xa0>
 80044f6:	f104 0074 	add.w	r0, r4, #116	@ 0x74
 80044fa:	f7ff fe1e 	bl	800413a <ld_32>
 80044fe:	f5b0 3f80 	cmp.w	r0, #65536	@ 0x10000
 8004502:	d302      	bcc.n	800450a <check_fs+0xa6>
 8004504:	f8b4 306a 	ldrh.w	r3, [r4, #106]	@ 0x6a
 8004508:	b953      	cbnz	r3, 8004520 <check_fs+0xbc>
 800450a:	f64a 2055 	movw	r0, #43605	@ 0xaa55
 800450e:	4285      	cmp	r5, r0
 8004510:	bf14      	ite	ne
 8004512:	2003      	movne	r0, #3
 8004514:	2002      	moveq	r0, #2
 8004516:	bdf8      	pop	{r3, r4, r5, r6, r7, pc}
 8004518:	2004      	movs	r0, #4
 800451a:	e7fc      	b.n	8004516 <check_fs+0xb2>
 800451c:	2001      	movs	r0, #1
 800451e:	e7fa      	b.n	8004516 <check_fs+0xb2>
 8004520:	2000      	movs	r0, #0
 8004522:	e7f8      	b.n	8004516 <check_fs+0xb2>
 8004524:	08009009 	.word	0x08009009
 8004528:	08009015 	.word	0x08009015

0800452c <change_bitmap>:
 800452c:	3902      	subs	r1, #2
 800452e:	e92d 4ff8 	stmdb	sp!, {r3, r4, r5, r6, r7, r8, r9, sl, fp, lr}
 8004532:	4617      	mov	r7, r2
 8004534:	4699      	mov	r9, r3
 8004536:	0b0d      	lsrs	r5, r1, #12
 8004538:	f001 0407 	and.w	r4, r1, #7
 800453c:	f04f 0b01 	mov.w	fp, #1
 8004540:	4606      	mov	r6, r0
 8004542:	f3c1 0ac8 	ubfx	sl, r1, #3, #9
 8004546:	fa0b f404 	lsl.w	r4, fp, r4
 800454a:	e9d0 3212 	ldrd	r3, r2, [r0, #72]	@ 0x48
 800454e:	b2e4      	uxtb	r4, r4
 8004550:	18ed      	adds	r5, r5, r3
 8004552:	f142 0800 	adc.w	r8, r2, #0
 8004556:	462a      	mov	r2, r5
 8004558:	3501      	adds	r5, #1
 800455a:	4643      	mov	r3, r8
 800455c:	4630      	mov	r0, r6
 800455e:	f148 0800 	adc.w	r8, r8, #0
 8004562:	f7ff ff5d 	bl	8004420 <move_window>
 8004566:	b110      	cbz	r0, 800456e <change_bitmap+0x42>
 8004568:	e8bd 8ff8 	ldmia.w	sp!, {r3, r4, r5, r6, r7, r8, r9, sl, fp, pc}
 800456c:	469a      	mov	sl, r3
 800456e:	eb06 010a 	add.w	r1, r6, sl
 8004572:	f891 3054 	ldrb.w	r3, [r1, #84]	@ 0x54
 8004576:	ea03 0204 	and.w	r2, r3, r4
 800457a:	3a00      	subs	r2, #0
 800457c:	bf18      	it	ne
 800457e:	2201      	movne	r2, #1
 8004580:	454a      	cmp	r2, r9
 8004582:	d013      	beq.n	80045ac <change_bitmap+0x80>
 8004584:	4063      	eors	r3, r4
 8004586:	3f01      	subs	r7, #1
 8004588:	f881 3054 	strb.w	r3, [r1, #84]	@ 0x54
 800458c:	f886 b004 	strb.w	fp, [r6, #4]
 8004590:	d0ea      	beq.n	8004568 <change_bitmap+0x3c>
 8004592:	0064      	lsls	r4, r4, #1
 8004594:	f014 04ff 	ands.w	r4, r4, #255	@ 0xff
 8004598:	d1e9      	bne.n	800456e <change_bitmap+0x42>
 800459a:	f10a 0301 	add.w	r3, sl, #1
 800459e:	2401      	movs	r4, #1
 80045a0:	f04f 0a00 	mov.w	sl, #0
 80045a4:	f5b3 7f00 	cmp.w	r3, #512	@ 0x200
 80045a8:	d3e0      	bcc.n	800456c <change_bitmap+0x40>
 80045aa:	e7d4      	b.n	8004556 <change_bitmap+0x2a>
 80045ac:	2002      	movs	r0, #2
 80045ae:	e7db      	b.n	8004568 <change_bitmap+0x3c>

080045b0 <get_fat>:
 80045b0:	2901      	cmp	r1, #1
 80045b2:	b5f8      	push	{r3, r4, r5, r6, r7, lr}
 80045b4:	460c      	mov	r4, r1
 80045b6:	f240 809e 	bls.w	80046f6 <get_fat+0x146>
 80045ba:	6805      	ldr	r5, [r0, #0]
 80045bc:	69ab      	ldr	r3, [r5, #24]
 80045be:	428b      	cmp	r3, r1
 80045c0:	f240 8099 	bls.w	80046f6 <get_fat+0x146>
 80045c4:	782b      	ldrb	r3, [r5, #0]
 80045c6:	3b01      	subs	r3, #1
 80045c8:	2b03      	cmp	r3, #3
 80045ca:	f200 8094 	bhi.w	80046f6 <get_fat+0x146>
 80045ce:	e8df f003 	tbb	[pc, r3]
 80045d2:	2f02      	.short	0x2f02
 80045d4:	5741      	.short	0x5741
 80045d6:	eb01 0651 	add.w	r6, r1, r1, lsr #1
 80045da:	4628      	mov	r0, r5
 80045dc:	e9d5 130c 	ldrd	r1, r3, [r5, #48]	@ 0x30
 80045e0:	0a72      	lsrs	r2, r6, #9
 80045e2:	1852      	adds	r2, r2, r1
 80045e4:	f143 0300 	adc.w	r3, r3, #0
 80045e8:	f7ff ff1a 	bl	8004420 <move_window>
 80045ec:	b110      	cbz	r0, 80045f4 <get_fat+0x44>
 80045ee:	f04f 30ff 	mov.w	r0, #4294967295
 80045f2:	bdf8      	pop	{r3, r4, r5, r6, r7, pc}
 80045f4:	1c77      	adds	r7, r6, #1
 80045f6:	f3c6 0608 	ubfx	r6, r6, #0, #9
 80045fa:	4628      	mov	r0, r5
 80045fc:	0a7a      	lsrs	r2, r7, #9
 80045fe:	442e      	add	r6, r5
 8004600:	e9d5 130c 	ldrd	r1, r3, [r5, #48]	@ 0x30
 8004604:	f896 6054 	ldrb.w	r6, [r6, #84]	@ 0x54
 8004608:	1852      	adds	r2, r2, r1
 800460a:	f143 0300 	adc.w	r3, r3, #0
 800460e:	f7ff ff07 	bl	8004420 <move_window>
 8004612:	2800      	cmp	r0, #0
 8004614:	d1eb      	bne.n	80045ee <get_fat+0x3e>
 8004616:	f3c7 0708 	ubfx	r7, r7, #0, #9
 800461a:	442f      	add	r7, r5
 800461c:	f897 3054 	ldrb.w	r3, [r7, #84]	@ 0x54
 8004620:	ea46 2003 	orr.w	r0, r6, r3, lsl #8
 8004624:	07e3      	lsls	r3, r4, #31
 8004626:	bf4c      	ite	mi
 8004628:	0900      	lsrmi	r0, r0, #4
 800462a:	f3c0 000b 	ubfxpl	r0, r0, #0, #12
 800462e:	e7e0      	b.n	80045f2 <get_fat+0x42>
 8004630:	0a0a      	lsrs	r2, r1, #8
 8004632:	4628      	mov	r0, r5
 8004634:	e9d5 130c 	ldrd	r1, r3, [r5, #48]	@ 0x30
 8004638:	1852      	adds	r2, r2, r1
 800463a:	f143 0300 	adc.w	r3, r3, #0
 800463e:	f7ff feef 	bl	8004420 <move_window>
 8004642:	2800      	cmp	r0, #0
 8004644:	d1d3      	bne.n	80045ee <get_fat+0x3e>
 8004646:	0064      	lsls	r4, r4, #1
 8004648:	f404 74ff 	and.w	r4, r4, #510	@ 0x1fe
 800464c:	442c      	add	r4, r5
 800464e:	f8b4 0054 	ldrh.w	r0, [r4, #84]	@ 0x54
 8004652:	e7ce      	b.n	80045f2 <get_fat+0x42>
 8004654:	09ca      	lsrs	r2, r1, #7
 8004656:	4628      	mov	r0, r5
 8004658:	e9d5 130c 	ldrd	r1, r3, [r5, #48]	@ 0x30
 800465c:	1852      	adds	r2, r2, r1
 800465e:	f143 0300 	adc.w	r3, r3, #0
 8004662:	f7ff fedd 	bl	8004420 <move_window>
 8004666:	2800      	cmp	r0, #0
 8004668:	d1c1      	bne.n	80045ee <get_fat+0x3e>
 800466a:	00a4      	lsls	r4, r4, #2
 800466c:	f105 0054 	add.w	r0, r5, #84	@ 0x54
 8004670:	f404 74fe 	and.w	r4, r4, #508	@ 0x1fc
 8004674:	4420      	add	r0, r4
 8004676:	f7ff fd60 	bl	800413a <ld_32>
 800467a:	f020 4070 	bic.w	r0, r0, #4026531840	@ 0xf0000000
 800467e:	e7b8      	b.n	80045f2 <get_fat+0x42>
 8004680:	e9d0 3104 	ldrd	r3, r1, [r0, #16]
 8004684:	ea53 0201 	orrs.w	r2, r3, r1
 8004688:	79c2      	ldrb	r2, [r0, #7]
 800468a:	d001      	beq.n	8004690 <get_fat+0xe0>
 800468c:	6886      	ldr	r6, [r0, #8]
 800468e:	b906      	cbnz	r6, 8004692 <get_fat+0xe2>
 8004690:	bb8a      	cbnz	r2, 80046f6 <get_fat+0x146>
 8004692:	6886      	ldr	r6, [r0, #8]
 8004694:	2a02      	cmp	r2, #2
 8004696:	eba4 0606 	sub.w	r6, r4, r6
 800469a:	d110      	bne.n	80046be <get_fat+0x10e>
 800469c:	1e58      	subs	r0, r3, #1
 800469e:	896a      	ldrh	r2, [r5, #10]
 80046a0:	f04f 0300 	mov.w	r3, #0
 80046a4:	f141 31ff 	adc.w	r1, r1, #4294967295
 80046a8:	0a40      	lsrs	r0, r0, #9
 80046aa:	ea40 50c1 	orr.w	r0, r0, r1, lsl #23
 80046ae:	0a49      	lsrs	r1, r1, #9
 80046b0:	f7fb fe2c 	bl	800030c <__aeabi_uldivmod>
 80046b4:	4286      	cmp	r6, r0
 80046b6:	d81e      	bhi.n	80046f6 <get_fat+0x146>
 80046b8:	d01f      	beq.n	80046fa <get_fat+0x14a>
 80046ba:	1c60      	adds	r0, r4, #1
 80046bc:	e799      	b.n	80045f2 <get_fat+0x42>
 80046be:	2a03      	cmp	r2, #3
 80046c0:	d102      	bne.n	80046c8 <get_fat+0x118>
 80046c2:	6983      	ldr	r3, [r0, #24]
 80046c4:	42b3      	cmp	r3, r6
 80046c6:	d8f8      	bhi.n	80046ba <get_fat+0x10a>
 80046c8:	69c3      	ldr	r3, [r0, #28]
 80046ca:	b9b3      	cbnz	r3, 80046fa <get_fat+0x14a>
 80046cc:	09e2      	lsrs	r2, r4, #7
 80046ce:	4628      	mov	r0, r5
 80046d0:	e9d5 130c 	ldrd	r1, r3, [r5, #48]	@ 0x30
 80046d4:	1852      	adds	r2, r2, r1
 80046d6:	f143 0300 	adc.w	r3, r3, #0
 80046da:	f7ff fea1 	bl	8004420 <move_window>
 80046de:	2800      	cmp	r0, #0
 80046e0:	d185      	bne.n	80045ee <get_fat+0x3e>
 80046e2:	00a0      	lsls	r0, r4, #2
 80046e4:	3554      	adds	r5, #84	@ 0x54
 80046e6:	f400 70fe 	and.w	r0, r0, #508	@ 0x1fc
 80046ea:	4428      	add	r0, r5
 80046ec:	f7ff fd25 	bl	800413a <ld_32>
 80046f0:	f020 4000 	bic.w	r0, r0, #2147483648	@ 0x80000000
 80046f4:	e77d      	b.n	80045f2 <get_fat+0x42>
 80046f6:	2001      	movs	r0, #1
 80046f8:	e77b      	b.n	80045f2 <get_fat+0x42>
 80046fa:	f06f 4000 	mvn.w	r0, #2147483648	@ 0x80000000
 80046fe:	e778      	b.n	80045f2 <get_fat+0x42>

08004700 <dir_sdi>:
 8004700:	e92d 41f0 	stmdb	sp!, {r4, r5, r6, r7, r8, lr}
 8004704:	6805      	ldr	r5, [r0, #0]
 8004706:	4604      	mov	r4, r0
 8004708:	460e      	mov	r6, r1
 800470a:	782b      	ldrb	r3, [r5, #0]
 800470c:	2b04      	cmp	r3, #4
 800470e:	bf14      	ite	ne
 8004710:	f44f 1200 	movne.w	r2, #2097152	@ 0x200000
 8004714:	f04f 5280 	moveq.w	r2, #268435456	@ 0x10000000
 8004718:	428a      	cmp	r2, r1
 800471a:	d802      	bhi.n	8004722 <dir_sdi+0x22>
 800471c:	2002      	movs	r0, #2
 800471e:	e8bd 81f0 	ldmia.w	sp!, {r4, r5, r6, r7, r8, pc}
 8004722:	06ca      	lsls	r2, r1, #27
 8004724:	d1fa      	bne.n	800471c <dir_sdi+0x1c>
 8004726:	6887      	ldr	r7, [r0, #8]
 8004728:	6301      	str	r1, [r0, #48]	@ 0x30
 800472a:	bb5f      	cbnz	r7, 8004784 <dir_sdi+0x84>
 800472c:	2b02      	cmp	r3, #2
 800472e:	d819      	bhi.n	8004764 <dir_sdi+0x64>
 8004730:	892b      	ldrh	r3, [r5, #8]
 8004732:	ebb3 1f56 	cmp.w	r3, r6, lsr #5
 8004736:	d9f1      	bls.n	800471c <dir_sdi+0x1c>
 8004738:	e9d5 010e 	ldrd	r0, r1, [r5, #56]	@ 0x38
 800473c:	ea50 0301 	orrs.w	r3, r0, r1
 8004740:	6367      	str	r7, [r4, #52]	@ 0x34
 8004742:	e9c4 010e 	strd	r0, r1, [r4, #56]	@ 0x38
 8004746:	d0e9      	beq.n	800471c <dir_sdi+0x1c>
 8004748:	0a73      	lsrs	r3, r6, #9
 800474a:	3554      	adds	r5, #84	@ 0x54
 800474c:	f3c6 0608 	ubfx	r6, r6, #0, #9
 8004750:	181b      	adds	r3, r3, r0
 8004752:	f04f 0000 	mov.w	r0, #0
 8004756:	4435      	add	r5, r6
 8004758:	f141 0100 	adc.w	r1, r1, #0
 800475c:	6425      	str	r5, [r4, #64]	@ 0x40
 800475e:	e9c4 310e 	strd	r3, r1, [r4, #56]	@ 0x38
 8004762:	e7dc      	b.n	800471e <dir_sdi+0x1e>
 8004764:	6bab      	ldr	r3, [r5, #56]	@ 0x38
 8004766:	71c7      	strb	r7, [r0, #7]
 8004768:	2b00      	cmp	r3, #0
 800476a:	d0e1      	beq.n	8004730 <dir_sdi+0x30>
 800476c:	f8b5 800a 	ldrh.w	r8, [r5, #10]
 8004770:	461f      	mov	r7, r3
 8004772:	ea4f 2848 	mov.w	r8, r8, lsl #9
 8004776:	4546      	cmp	r6, r8
 8004778:	4639      	mov	r1, r7
 800477a:	d205      	bcs.n	8004788 <dir_sdi+0x88>
 800477c:	4628      	mov	r0, r5
 800477e:	f7ff fcf9 	bl	8004174 <clst2sect>
 8004782:	e7db      	b.n	800473c <dir_sdi+0x3c>
 8004784:	463b      	mov	r3, r7
 8004786:	e7f1      	b.n	800476c <dir_sdi+0x6c>
 8004788:	4620      	mov	r0, r4
 800478a:	f7ff ff11 	bl	80045b0 <get_fat>
 800478e:	1c43      	adds	r3, r0, #1
 8004790:	4607      	mov	r7, r0
 8004792:	d007      	beq.n	80047a4 <dir_sdi+0xa4>
 8004794:	2801      	cmp	r0, #1
 8004796:	d9c1      	bls.n	800471c <dir_sdi+0x1c>
 8004798:	69ab      	ldr	r3, [r5, #24]
 800479a:	4283      	cmp	r3, r0
 800479c:	d9be      	bls.n	800471c <dir_sdi+0x1c>
 800479e:	eba6 0608 	sub.w	r6, r6, r8
 80047a2:	e7e8      	b.n	8004776 <dir_sdi+0x76>
 80047a4:	2001      	movs	r0, #1
 80047a6:	e7ba      	b.n	800471e <dir_sdi+0x1e>

080047a8 <put_fat>:
 80047a8:	2901      	cmp	r1, #1
 80047aa:	e92d 43f8 	stmdb	sp!, {r3, r4, r5, r6, r7, r8, r9, lr}
 80047ae:	4605      	mov	r5, r0
 80047b0:	460c      	mov	r4, r1
 80047b2:	4616      	mov	r6, r2
 80047b4:	d908      	bls.n	80047c8 <put_fat+0x20>
 80047b6:	6983      	ldr	r3, [r0, #24]
 80047b8:	428b      	cmp	r3, r1
 80047ba:	d905      	bls.n	80047c8 <put_fat+0x20>
 80047bc:	7803      	ldrb	r3, [r0, #0]
 80047be:	2b02      	cmp	r3, #2
 80047c0:	d069      	beq.n	8004896 <put_fat+0xee>
 80047c2:	d803      	bhi.n	80047cc <put_fat+0x24>
 80047c4:	2b01      	cmp	r3, #1
 80047c6:	d022      	beq.n	800480e <put_fat+0x66>
 80047c8:	2002      	movs	r0, #2
 80047ca:	e02d      	b.n	8004828 <put_fat+0x80>
 80047cc:	3b03      	subs	r3, #3
 80047ce:	2b01      	cmp	r3, #1
 80047d0:	d8fa      	bhi.n	80047c8 <put_fat+0x20>
 80047d2:	09ca      	lsrs	r2, r1, #7
 80047d4:	e9d0 130c 	ldrd	r1, r3, [r0, #48]	@ 0x30
 80047d8:	1852      	adds	r2, r2, r1
 80047da:	f143 0300 	adc.w	r3, r3, #0
 80047de:	f7ff fe1f 	bl	8004420 <move_window>
 80047e2:	bb00      	cbnz	r0, 8004826 <put_fat+0x7e>
 80047e4:	462b      	mov	r3, r5
 80047e6:	00a4      	lsls	r4, r4, #2
 80047e8:	f813 2b54 	ldrb.w	r2, [r3], #84
 80047ec:	f404 74fe 	and.w	r4, r4, #508	@ 0x1fc
 80047f0:	2a04      	cmp	r2, #4
 80047f2:	d007      	beq.n	8004804 <put_fat+0x5c>
 80047f4:	1918      	adds	r0, r3, r4
 80047f6:	f026 4670 	bic.w	r6, r6, #4026531840	@ 0xf0000000
 80047fa:	f7ff fc9e 	bl	800413a <ld_32>
 80047fe:	f000 4070 	and.w	r0, r0, #4026531840	@ 0xf0000000
 8004802:	4306      	orrs	r6, r0
 8004804:	4631      	mov	r1, r6
 8004806:	1918      	adds	r0, r3, r4
 8004808:	f7ff fc9d 	bl	8004146 <st_32>
 800480c:	e037      	b.n	800487e <put_fat+0xd6>
 800480e:	eb01 0951 	add.w	r9, r1, r1, lsr #1
 8004812:	e9d0 130c 	ldrd	r1, r3, [r0, #48]	@ 0x30
 8004816:	ea4f 2259 	mov.w	r2, r9, lsr #9
 800481a:	1852      	adds	r2, r2, r1
 800481c:	f143 0300 	adc.w	r3, r3, #0
 8004820:	f7ff fdfe 	bl	8004420 <move_window>
 8004824:	b110      	cbz	r0, 800482c <put_fat+0x84>
 8004826:	2001      	movs	r0, #1
 8004828:	e8bd 83f8 	ldmia.w	sp!, {r3, r4, r5, r6, r7, r8, r9, pc}
 800482c:	f014 0401 	ands.w	r4, r4, #1
 8004830:	f105 0854 	add.w	r8, r5, #84	@ 0x54
 8004834:	f109 0701 	add.w	r7, r9, #1
 8004838:	f3c9 0908 	ubfx	r9, r9, #0, #9
 800483c:	b2f3      	uxtb	r3, r6
 800483e:	4628      	mov	r0, r5
 8004840:	bf1e      	ittt	ne
 8004842:	f818 2009 	ldrbne.w	r2, [r8, r9]
 8004846:	f002 020f 	andne.w	r2, r2, #15
 800484a:	ea42 1303 	orrne.w	r3, r2, r3, lsl #4
 800484e:	ea4f 2257 	mov.w	r2, r7, lsr #9
 8004852:	bf18      	it	ne
 8004854:	b2db      	uxtbne	r3, r3
 8004856:	f808 3009 	strb.w	r3, [r8, r9]
 800485a:	2301      	movs	r3, #1
 800485c:	712b      	strb	r3, [r5, #4]
 800485e:	e9d5 130c 	ldrd	r1, r3, [r5, #48]	@ 0x30
 8004862:	1852      	adds	r2, r2, r1
 8004864:	f143 0300 	adc.w	r3, r3, #0
 8004868:	f7ff fdda 	bl	8004420 <move_window>
 800486c:	2800      	cmp	r0, #0
 800486e:	d1da      	bne.n	8004826 <put_fat+0x7e>
 8004870:	f3c7 0708 	ubfx	r7, r7, #0, #9
 8004874:	b13c      	cbz	r4, 8004886 <put_fat+0xde>
 8004876:	f3c6 1607 	ubfx	r6, r6, #4, #8
 800487a:	f808 6007 	strb.w	r6, [r8, r7]
 800487e:	2301      	movs	r3, #1
 8004880:	2000      	movs	r0, #0
 8004882:	712b      	strb	r3, [r5, #4]
 8004884:	e7d0      	b.n	8004828 <put_fat+0x80>
 8004886:	f818 3007 	ldrb.w	r3, [r8, r7]
 800488a:	f3c6 2603 	ubfx	r6, r6, #8, #4
 800488e:	f023 030f 	bic.w	r3, r3, #15
 8004892:	431e      	orrs	r6, r3
 8004894:	e7f1      	b.n	800487a <put_fat+0xd2>
 8004896:	0a0a      	lsrs	r2, r1, #8
 8004898:	e9d0 130c 	ldrd	r1, r3, [r0, #48]	@ 0x30
 800489c:	1852      	adds	r2, r2, r1
 800489e:	f143 0300 	adc.w	r3, r3, #0
 80048a2:	f7ff fdbd 	bl	8004420 <move_window>
 80048a6:	2800      	cmp	r0, #0
 80048a8:	d1bd      	bne.n	8004826 <put_fat+0x7e>
 80048aa:	0064      	lsls	r4, r4, #1
 80048ac:	f105 0354 	add.w	r3, r5, #84	@ 0x54
 80048b0:	f404 74ff 	and.w	r4, r4, #510	@ 0x1fe
 80048b4:	551e      	strb	r6, [r3, r4]
 80048b6:	191a      	adds	r2, r3, r4
 80048b8:	f3c6 2607 	ubfx	r6, r6, #8, #8
 80048bc:	7056      	strb	r6, [r2, #1]
 80048be:	e7de      	b.n	800487e <put_fat+0xd6>

080048c0 <fill_last_frag>:
 80048c0:	b5f8      	push	{r3, r4, r5, r6, r7, lr}
 80048c2:	4604      	mov	r4, r0
 80048c4:	460e      	mov	r6, r1
 80048c6:	4617      	mov	r7, r2
 80048c8:	69e3      	ldr	r3, [r4, #28]
 80048ca:	b90b      	cbnz	r3, 80048d0 <fill_last_frag+0x10>
 80048cc:	4618      	mov	r0, r3
 80048ce:	bdf8      	pop	{r3, r4, r5, r6, r7, pc}
 80048d0:	2b01      	cmp	r3, #1
 80048d2:	eba6 0503 	sub.w	r5, r6, r3
 80048d6:	6820      	ldr	r0, [r4, #0]
 80048d8:	bf14      	ite	ne
 80048da:	1caa      	addne	r2, r5, #2
 80048dc:	463a      	moveq	r2, r7
 80048de:	1c69      	adds	r1, r5, #1
 80048e0:	f7ff ff62 	bl	80047a8 <put_fat>
 80048e4:	2800      	cmp	r0, #0
 80048e6:	d1f2      	bne.n	80048ce <fill_last_frag+0xe>
 80048e8:	69e3      	ldr	r3, [r4, #28]
 80048ea:	3b01      	subs	r3, #1
 80048ec:	61e3      	str	r3, [r4, #28]
 80048ee:	e7eb      	b.n	80048c8 <fill_last_frag+0x8>

080048f0 <fill_first_frag>:
 80048f0:	b570      	push	{r4, r5, r6, lr}
 80048f2:	79c3      	ldrb	r3, [r0, #7]
 80048f4:	4604      	mov	r4, r0
 80048f6:	2b03      	cmp	r3, #3
 80048f8:	d001      	beq.n	80048fe <fill_first_frag+0xe>
 80048fa:	2000      	movs	r0, #0
 80048fc:	bd70      	pop	{r4, r5, r6, pc}
 80048fe:	6881      	ldr	r1, [r0, #8]
 8004900:	6983      	ldr	r3, [r0, #24]
 8004902:	18cd      	adds	r5, r1, r3
 8004904:	42a9      	cmp	r1, r5
 8004906:	d102      	bne.n	800490e <fill_first_frag+0x1e>
 8004908:	2300      	movs	r3, #0
 800490a:	71e3      	strb	r3, [r4, #7]
 800490c:	e7f5      	b.n	80048fa <fill_first_frag+0xa>
 800490e:	1c4e      	adds	r6, r1, #1
 8004910:	6820      	ldr	r0, [r4, #0]
 8004912:	4632      	mov	r2, r6
 8004914:	f7ff ff48 	bl	80047a8 <put_fat>
 8004918:	2800      	cmp	r0, #0
 800491a:	d1ef      	bne.n	80048fc <fill_first_frag+0xc>
 800491c:	4631      	mov	r1, r6
 800491e:	e7f1      	b.n	8004904 <fill_first_frag+0x14>

08004920 <remove_chain>:
 8004920:	2901      	cmp	r1, #1
 8004922:	e92d 43f8 	stmdb	sp!, {r3, r4, r5, r6, r7, r8, r9, lr}
 8004926:	4606      	mov	r6, r0
 8004928:	460c      	mov	r4, r1
 800492a:	4617      	mov	r7, r2
 800492c:	6805      	ldr	r5, [r0, #0]
 800492e:	d802      	bhi.n	8004936 <remove_chain+0x16>
 8004930:	2002      	movs	r0, #2
 8004932:	e8bd 83f8 	ldmia.w	sp!, {r3, r4, r5, r6, r7, r8, r9, pc}
 8004936:	69ab      	ldr	r3, [r5, #24]
 8004938:	428b      	cmp	r3, r1
 800493a:	d9f9      	bls.n	8004930 <remove_chain+0x10>
 800493c:	b97a      	cbnz	r2, 800495e <remove_chain+0x3e>
 800493e:	46a1      	mov	r9, r4
 8004940:	4621      	mov	r1, r4
 8004942:	4630      	mov	r0, r6
 8004944:	46a0      	mov	r8, r4
 8004946:	f7ff fe33 	bl	80045b0 <get_fat>
 800494a:	4604      	mov	r4, r0
 800494c:	b9b0      	cbnz	r0, 800497c <remove_chain+0x5c>
 800494e:	782b      	ldrb	r3, [r5, #0]
 8004950:	2b04      	cmp	r3, #4
 8004952:	d102      	bne.n	800495a <remove_chain+0x3a>
 8004954:	2f00      	cmp	r7, #0
 8004956:	d144      	bne.n	80049e2 <remove_chain+0xc2>
 8004958:	71f7      	strb	r7, [r6, #7]
 800495a:	2000      	movs	r0, #0
 800495c:	e7e9      	b.n	8004932 <remove_chain+0x12>
 800495e:	782b      	ldrb	r3, [r5, #0]
 8004960:	2b04      	cmp	r3, #4
 8004962:	d102      	bne.n	800496a <remove_chain+0x4a>
 8004964:	79c3      	ldrb	r3, [r0, #7]
 8004966:	2b02      	cmp	r3, #2
 8004968:	d0e9      	beq.n	800493e <remove_chain+0x1e>
 800496a:	f04f 32ff 	mov.w	r2, #4294967295
 800496e:	4639      	mov	r1, r7
 8004970:	4628      	mov	r0, r5
 8004972:	f7ff ff19 	bl	80047a8 <put_fat>
 8004976:	2800      	cmp	r0, #0
 8004978:	d0e1      	beq.n	800493e <remove_chain+0x1e>
 800497a:	e7da      	b.n	8004932 <remove_chain+0x12>
 800497c:	2801      	cmp	r0, #1
 800497e:	d0d7      	beq.n	8004930 <remove_chain+0x10>
 8004980:	1c42      	adds	r2, r0, #1
 8004982:	d101      	bne.n	8004988 <remove_chain+0x68>
 8004984:	2001      	movs	r0, #1
 8004986:	e7d4      	b.n	8004932 <remove_chain+0x12>
 8004988:	782b      	ldrb	r3, [r5, #0]
 800498a:	2b04      	cmp	r3, #4
 800498c:	d110      	bne.n	80049b0 <remove_chain+0x90>
 800498e:	e9d5 3205 	ldrd	r3, r2, [r5, #20]
 8004992:	3a02      	subs	r2, #2
 8004994:	4293      	cmp	r3, r2
 8004996:	d313      	bcc.n	80049c0 <remove_chain+0xa0>
 8004998:	f108 0201 	add.w	r2, r8, #1
 800499c:	42a2      	cmp	r2, r4
 800499e:	d003      	beq.n	80049a8 <remove_chain+0x88>
 80049a0:	782b      	ldrb	r3, [r5, #0]
 80049a2:	2b04      	cmp	r3, #4
 80049a4:	d013      	beq.n	80049ce <remove_chain+0xae>
 80049a6:	46a1      	mov	r9, r4
 80049a8:	69ab      	ldr	r3, [r5, #24]
 80049aa:	42a3      	cmp	r3, r4
 80049ac:	d8c8      	bhi.n	8004940 <remove_chain+0x20>
 80049ae:	e7ce      	b.n	800494e <remove_chain+0x2e>
 80049b0:	2200      	movs	r2, #0
 80049b2:	4641      	mov	r1, r8
 80049b4:	4628      	mov	r0, r5
 80049b6:	f7ff fef7 	bl	80047a8 <put_fat>
 80049ba:	2800      	cmp	r0, #0
 80049bc:	d0e7      	beq.n	800498e <remove_chain+0x6e>
 80049be:	e7b8      	b.n	8004932 <remove_chain+0x12>
 80049c0:	3301      	adds	r3, #1
 80049c2:	616b      	str	r3, [r5, #20]
 80049c4:	796b      	ldrb	r3, [r5, #5]
 80049c6:	f043 0301 	orr.w	r3, r3, #1
 80049ca:	716b      	strb	r3, [r5, #5]
 80049cc:	e7e4      	b.n	8004998 <remove_chain+0x78>
 80049ce:	2300      	movs	r3, #0
 80049d0:	eba2 0209 	sub.w	r2, r2, r9
 80049d4:	4649      	mov	r1, r9
 80049d6:	4628      	mov	r0, r5
 80049d8:	f7ff fda8 	bl	800452c <change_bitmap>
 80049dc:	2800      	cmp	r0, #0
 80049de:	d0e2      	beq.n	80049a6 <remove_chain+0x86>
 80049e0:	e7a7      	b.n	8004932 <remove_chain+0x12>
 80049e2:	79f3      	ldrb	r3, [r6, #7]
 80049e4:	b98b      	cbnz	r3, 8004a0a <remove_chain+0xea>
 80049e6:	68b4      	ldr	r4, [r6, #8]
 80049e8:	42bc      	cmp	r4, r7
 80049ea:	d102      	bne.n	80049f2 <remove_chain+0xd2>
 80049ec:	2302      	movs	r3, #2
 80049ee:	71f3      	strb	r3, [r6, #7]
 80049f0:	e7b3      	b.n	800495a <remove_chain+0x3a>
 80049f2:	4621      	mov	r1, r4
 80049f4:	4630      	mov	r0, r6
 80049f6:	f7ff fddb 	bl	80045b0 <get_fat>
 80049fa:	2801      	cmp	r0, #1
 80049fc:	d998      	bls.n	8004930 <remove_chain+0x10>
 80049fe:	1c43      	adds	r3, r0, #1
 8004a00:	d0c0      	beq.n	8004984 <remove_chain+0x64>
 8004a02:	3401      	adds	r4, #1
 8004a04:	4284      	cmp	r4, r0
 8004a06:	d0ef      	beq.n	80049e8 <remove_chain+0xc8>
 8004a08:	e7a7      	b.n	800495a <remove_chain+0x3a>
 8004a0a:	2b03      	cmp	r3, #3
 8004a0c:	d1a5      	bne.n	800495a <remove_chain+0x3a>
 8004a0e:	68b3      	ldr	r3, [r6, #8]
 8004a10:	42bb      	cmp	r3, r7
 8004a12:	d8a2      	bhi.n	800495a <remove_chain+0x3a>
 8004a14:	69b2      	ldr	r2, [r6, #24]
 8004a16:	4413      	add	r3, r2
 8004a18:	42bb      	cmp	r3, r7
 8004a1a:	d2e7      	bcs.n	80049ec <remove_chain+0xcc>
 8004a1c:	e79d      	b.n	800495a <remove_chain+0x3a>

08004a1e <dir_clear>:
 8004a1e:	e92d 43f7 	stmdb	sp!, {r0, r1, r2, r4, r5, r6, r7, r8, r9, lr}
 8004a22:	4606      	mov	r6, r0
 8004a24:	460d      	mov	r5, r1
 8004a26:	f7ff fc2b 	bl	8004280 <sync_window>
 8004a2a:	4604      	mov	r4, r0
 8004a2c:	b9c0      	cbnz	r0, 8004a60 <dir_clear+0x42>
 8004a2e:	f106 0854 	add.w	r8, r6, #84	@ 0x54
 8004a32:	4629      	mov	r1, r5
 8004a34:	4630      	mov	r0, r6
 8004a36:	f04f 0901 	mov.w	r9, #1
 8004a3a:	f7ff fb9b 	bl	8004174 <clst2sect>
 8004a3e:	f44f 7200 	mov.w	r2, #512	@ 0x200
 8004a42:	4605      	mov	r5, r0
 8004a44:	460f      	mov	r7, r1
 8004a46:	e9c6 0108 	strd	r0, r1, [r6, #32]
 8004a4a:	4621      	mov	r1, r4
 8004a4c:	4640      	mov	r0, r8
 8004a4e:	f004 f8b8 	bl	8008bc2 <memset>
 8004a52:	8973      	ldrh	r3, [r6, #10]
 8004a54:	429c      	cmp	r4, r3
 8004a56:	d307      	bcc.n	8004a68 <dir_clear+0x4a>
 8004a58:	8973      	ldrh	r3, [r6, #10]
 8004a5a:	1b1c      	subs	r4, r3, r4
 8004a5c:	bf18      	it	ne
 8004a5e:	2401      	movne	r4, #1
 8004a60:	4620      	mov	r0, r4
 8004a62:	b003      	add	sp, #12
 8004a64:	e8bd 83f0 	ldmia.w	sp!, {r4, r5, r6, r7, r8, r9, pc}
 8004a68:	462a      	mov	r2, r5
 8004a6a:	463b      	mov	r3, r7
 8004a6c:	f8cd 9000 	str.w	r9, [sp]
 8004a70:	4641      	mov	r1, r8
 8004a72:	7870      	ldrb	r0, [r6, #1]
 8004a74:	f7fc fa3c 	bl	8000ef0 <disk_write>
 8004a78:	3501      	adds	r5, #1
 8004a7a:	f147 0700 	adc.w	r7, r7, #0
 8004a7e:	2800      	cmp	r0, #0
 8004a80:	d1ea      	bne.n	8004a58 <dir_clear+0x3a>
 8004a82:	3401      	adds	r4, #1
 8004a84:	e7e5      	b.n	8004a52 <dir_clear+0x34>
	...

08004a88 <mount_volume>:
 8004a88:	e92d 47ff 	stmdb	sp!, {r0, r1, r2, r3, r4, r5, r6, r7, r8, r9, sl, lr}
 8004a8c:	2300      	movs	r3, #0
 8004a8e:	460e      	mov	r6, r1
 8004a90:	4615      	mov	r5, r2
 8004a92:	600b      	str	r3, [r1, #0]
 8004a94:	f7ff fbc5 	bl	8004222 <get_ldnumber>
 8004a98:	3001      	adds	r0, #1
 8004a9a:	f000 8274 	beq.w	8004f86 <mount_volume+0x4fe>
 8004a9e:	4bac      	ldr	r3, [pc, #688]	@ (8004d50 <mount_volume+0x2c8>)
 8004aa0:	681c      	ldr	r4, [r3, #0]
 8004aa2:	2c00      	cmp	r4, #0
 8004aa4:	f000 8271 	beq.w	8004f8a <mount_volume+0x502>
 8004aa8:	6034      	str	r4, [r6, #0]
 8004aaa:	f005 05fe 	and.w	r5, r5, #254	@ 0xfe
 8004aae:	7823      	ldrb	r3, [r4, #0]
 8004ab0:	b173      	cbz	r3, 8004ad0 <mount_volume+0x48>
 8004ab2:	7860      	ldrb	r0, [r4, #1]
 8004ab4:	f7fc f9e8 	bl	8000e88 <disk_status>
 8004ab8:	07c3      	lsls	r3, r0, #31
 8004aba:	d409      	bmi.n	8004ad0 <mount_volume+0x48>
 8004abc:	2d00      	cmp	r5, #0
 8004abe:	f000 8191 	beq.w	8004de4 <mount_volume+0x35c>
 8004ac2:	0747      	lsls	r7, r0, #29
 8004ac4:	f140 818e 	bpl.w	8004de4 <mount_volume+0x35c>
 8004ac8:	200a      	movs	r0, #10
 8004aca:	b004      	add	sp, #16
 8004acc:	e8bd 87f0 	ldmia.w	sp!, {r4, r5, r6, r7, r8, r9, sl, pc}
 8004ad0:	2300      	movs	r3, #0
 8004ad2:	7860      	ldrb	r0, [r4, #1]
 8004ad4:	7023      	strb	r3, [r4, #0]
 8004ad6:	f7fc f9e2 	bl	8000e9e <disk_initialize>
 8004ada:	07c6      	lsls	r6, r0, #31
 8004adc:	f100 8257 	bmi.w	8004f8e <mount_volume+0x506>
 8004ae0:	b10d      	cbz	r5, 8004ae6 <mount_volume+0x5e>
 8004ae2:	0741      	lsls	r1, r0, #29
 8004ae4:	d4f0      	bmi.n	8004ac8 <mount_volume+0x40>
 8004ae6:	2200      	movs	r2, #0
 8004ae8:	2300      	movs	r3, #0
 8004aea:	4620      	mov	r0, r4
 8004aec:	f7ff fcba 	bl	8004464 <check_fs>
 8004af0:	2802      	cmp	r0, #2
 8004af2:	f040 8126 	bne.w	8004d42 <mount_volume+0x2ba>
 8004af6:	f894 3216 	ldrb.w	r3, [r4, #534]	@ 0x216
 8004afa:	2bee      	cmp	r3, #238	@ 0xee
 8004afc:	f040 80fe 	bne.w	8004cfc <mount_volume+0x274>
 8004b00:	2201      	movs	r2, #1
 8004b02:	2300      	movs	r3, #0
 8004b04:	4620      	mov	r0, r4
 8004b06:	f7ff fc8b 	bl	8004420 <move_window>
 8004b0a:	2800      	cmp	r0, #0
 8004b0c:	f040 8115 	bne.w	8004d3a <mount_volume+0x2b2>
 8004b10:	f104 0754 	add.w	r7, r4, #84	@ 0x54
 8004b14:	220c      	movs	r2, #12
 8004b16:	498f      	ldr	r1, [pc, #572]	@ (8004d54 <mount_volume+0x2cc>)
 8004b18:	4638      	mov	r0, r7
 8004b1a:	f004 f842 	bl	8008ba2 <memcmp>
 8004b1e:	4603      	mov	r3, r0
 8004b20:	2800      	cmp	r0, #0
 8004b22:	d146      	bne.n	8004bb2 <mount_volume+0x12a>
 8004b24:	f104 0060 	add.w	r0, r4, #96	@ 0x60
 8004b28:	f7ff fb07 	bl	800413a <ld_32>
 8004b2c:	f1a0 025c 	sub.w	r2, r0, #92	@ 0x5c
 8004b30:	f5b2 7fd2 	cmp.w	r2, #420	@ 0x1a4
 8004b34:	d83d      	bhi.n	8004bb2 <mount_volume+0x12a>
 8004b36:	f04f 31ff 	mov.w	r1, #4294967295
 8004b3a:	4e87      	ldr	r6, [pc, #540]	@ (8004d58 <mount_volume+0x2d0>)
 8004b3c:	f1a3 0210 	sub.w	r2, r3, #16
 8004b40:	2508      	movs	r5, #8
 8004b42:	2a03      	cmp	r2, #3
 8004b44:	f04f 0201 	mov.w	r2, #1
 8004b48:	bf8c      	ite	hi
 8004b4a:	f817 e003 	ldrbhi.w	lr, [r7, r3]
 8004b4e:	f04f 0e00 	movls.w	lr, #0
 8004b52:	ea0e 0c02 	and.w	ip, lr, r2
 8004b56:	0052      	lsls	r2, r2, #1
 8004b58:	f1bc 0f00 	cmp.w	ip, #0
 8004b5c:	bf18      	it	ne
 8004b5e:	f081 0101 	eorne.w	r1, r1, #1
 8004b62:	3d01      	subs	r5, #1
 8004b64:	b2d2      	uxtb	r2, r2
 8004b66:	f341 0c00 	sbfx	ip, r1, #0, #1
 8004b6a:	ea0c 0c06 	and.w	ip, ip, r6
 8004b6e:	ea8c 0151 	eor.w	r1, ip, r1, lsr #1
 8004b72:	d1ee      	bne.n	8004b52 <mount_volume+0xca>
 8004b74:	3301      	adds	r3, #1
 8004b76:	4298      	cmp	r0, r3
 8004b78:	d1e0      	bne.n	8004b3c <mount_volume+0xb4>
 8004b7a:	43cb      	mvns	r3, r1
 8004b7c:	f104 0064 	add.w	r0, r4, #100	@ 0x64
 8004b80:	f7ff fadb 	bl	800413a <ld_32>
 8004b84:	4283      	cmp	r3, r0
 8004b86:	d114      	bne.n	8004bb2 <mount_volume+0x12a>
 8004b88:	f104 00a8 	add.w	r0, r4, #168	@ 0xa8
 8004b8c:	f7ff fad5 	bl	800413a <ld_32>
 8004b90:	2880      	cmp	r0, #128	@ 0x80
 8004b92:	d10e      	bne.n	8004bb2 <mount_volume+0x12a>
 8004b94:	f104 00a4 	add.w	r0, r4, #164	@ 0xa4
 8004b98:	f7ff facf 	bl	800413a <ld_32>
 8004b9c:	2880      	cmp	r0, #128	@ 0x80
 8004b9e:	4606      	mov	r6, r0
 8004ba0:	d807      	bhi.n	8004bb2 <mount_volume+0x12a>
 8004ba2:	f104 009c 	add.w	r0, r4, #156	@ 0x9c
 8004ba6:	f7ff faca 	bl	800413e <ld_64>
 8004baa:	4680      	mov	r8, r0
 8004bac:	4689      	mov	r9, r1
 8004bae:	42b5      	cmp	r5, r6
 8004bb0:	d101      	bne.n	8004bb6 <mount_volume+0x12e>
 8004bb2:	200d      	movs	r0, #13
 8004bb4:	e789      	b.n	8004aca <mount_volume+0x42>
 8004bb6:	f3c5 0296 	ubfx	r2, r5, #2, #23
 8004bba:	4620      	mov	r0, r4
 8004bbc:	ea4f 1ac5 	mov.w	sl, r5, lsl #7
 8004bc0:	eb12 0208 	adds.w	r2, r2, r8
 8004bc4:	f149 0300 	adc.w	r3, r9, #0
 8004bc8:	f7ff fc2a 	bl	8004420 <move_window>
 8004bcc:	2800      	cmp	r0, #0
 8004bce:	f040 80b4 	bne.w	8004d3a <mount_volume+0x2b2>
 8004bd2:	f40a 7ac0 	and.w	sl, sl, #384	@ 0x180
 8004bd6:	2210      	movs	r2, #16
 8004bd8:	4960      	ldr	r1, [pc, #384]	@ (8004d5c <mount_volume+0x2d4>)
 8004bda:	eb07 000a 	add.w	r0, r7, sl
 8004bde:	f003 ffe0 	bl	8008ba2 <memcmp>
 8004be2:	b108      	cbz	r0, 8004be8 <mount_volume+0x160>
 8004be4:	3501      	adds	r5, #1
 8004be6:	e7e2      	b.n	8004bae <mount_volume+0x126>
 8004be8:	f10a 0020 	add.w	r0, sl, #32
 8004bec:	4438      	add	r0, r7
 8004bee:	f7ff faa6 	bl	800413e <ld_64>
 8004bf2:	4602      	mov	r2, r0
 8004bf4:	460b      	mov	r3, r1
 8004bf6:	4620      	mov	r0, r4
 8004bf8:	f7ff fc34 	bl	8004464 <check_fs>
 8004bfc:	2801      	cmp	r0, #1
 8004bfe:	d8f1      	bhi.n	8004be4 <mount_volume+0x15c>
 8004c00:	2801      	cmp	r0, #1
 8004c02:	e9d4 2608 	ldrd	r2, r6, [r4, #32]
 8004c06:	f040 80ef 	bne.w	8004de8 <mount_volume+0x360>
 8004c0a:	f104 015e 	add.w	r1, r4, #94	@ 0x5e
 8004c0e:	230b      	movs	r3, #11
 8004c10:	f811 5f01 	ldrb.w	r5, [r1, #1]!
 8004c14:	2d00      	cmp	r5, #0
 8004c16:	d1cc      	bne.n	8004bb2 <mount_volume+0x12a>
 8004c18:	3301      	adds	r3, #1
 8004c1a:	2b40      	cmp	r3, #64	@ 0x40
 8004c1c:	d1f8      	bne.n	8004c10 <mount_volume+0x188>
 8004c1e:	f8b4 30bc 	ldrh.w	r3, [r4, #188]	@ 0xbc
 8004c22:	f5b3 7f80 	cmp.w	r3, #256	@ 0x100
 8004c26:	d1c4      	bne.n	8004bb2 <mount_volume+0x12a>
 8004c28:	f894 30c0 	ldrb.w	r3, [r4, #192]	@ 0xc0
 8004c2c:	2b09      	cmp	r3, #9
 8004c2e:	d1c0      	bne.n	8004bb2 <mount_volume+0x12a>
 8004c30:	f104 009c 	add.w	r0, r4, #156	@ 0x9c
 8004c34:	f7ff fa83 	bl	800413e <ld_64>
 8004c38:	4607      	mov	r7, r0
 8004c3a:	f104 00a8 	add.w	r0, r4, #168	@ 0xa8
 8004c3e:	f7ff fa7c 	bl	800413a <ld_32>
 8004c42:	f894 30c2 	ldrb.w	r3, [r4, #194]	@ 0xc2
 8004c46:	61e0      	str	r0, [r4, #28]
 8004c48:	2b01      	cmp	r3, #1
 8004c4a:	70e3      	strb	r3, [r4, #3]
 8004c4c:	d1b1      	bne.n	8004bb2 <mount_volume+0x12a>
 8004c4e:	f894 00c1 	ldrb.w	r0, [r4, #193]	@ 0xc1
 8004c52:	4083      	lsls	r3, r0
 8004c54:	b298      	uxth	r0, r3
 8004c56:	8160      	strh	r0, [r4, #10]
 8004c58:	2800      	cmp	r0, #0
 8004c5a:	d0aa      	beq.n	8004bb2 <mount_volume+0x12a>
 8004c5c:	f104 00b0 	add.w	r0, r4, #176	@ 0xb0
 8004c60:	f7ff fa6b 	bl	800413a <ld_32>
 8004c64:	4682      	mov	sl, r0
 8004c66:	483e      	ldr	r0, [pc, #248]	@ (8004d60 <mount_volume+0x2d8>)
 8004c68:	4582      	cmp	sl, r0
 8004c6a:	d8a2      	bhi.n	8004bb2 <mount_volume+0x12a>
 8004c6c:	f10a 0002 	add.w	r0, sl, #2
 8004c70:	b29b      	uxth	r3, r3
 8004c72:	61a0      	str	r0, [r4, #24]
 8004c74:	f104 00ac 	add.w	r0, r4, #172	@ 0xac
 8004c78:	fb0a f303 	mul.w	r3, sl, r3
 8004c7c:	e9c4 260a 	strd	r2, r6, [r4, #40]	@ 0x28
 8004c80:	f7ff fa5b 	bl	800413a <ld_32>
 8004c84:	eb10 0902 	adds.w	r9, r0, r2
 8004c88:	f104 00a4 	add.w	r0, r4, #164	@ 0xa4
 8004c8c:	f146 0800 	adc.w	r8, r6, #0
 8004c90:	e9c4 9810 	strd	r9, r8, [r4, #64]	@ 0x40
 8004c94:	f7ff fa51 	bl	800413a <ld_32>
 8004c98:	1880      	adds	r0, r0, r2
 8004c9a:	f146 0c00 	adc.w	ip, r6, #0
 8004c9e:	eb13 0309 	adds.w	r3, r3, r9
 8004ca2:	f148 0800 	adc.w	r8, r8, #0
 8004ca6:	18bf      	adds	r7, r7, r2
 8004ca8:	eb41 0106 	adc.w	r1, r1, r6
 8004cac:	429f      	cmp	r7, r3
 8004cae:	eb71 0108 	sbcs.w	r1, r1, r8
 8004cb2:	e9c4 0c0c 	strd	r0, ip, [r4, #48]	@ 0x30
 8004cb6:	f4ff af7c 	bcc.w	8004bb2 <mount_volume+0x12a>
 8004cba:	462e      	mov	r6, r5
 8004cbc:	f104 00b4 	add.w	r0, r4, #180	@ 0xb4
 8004cc0:	f7ff fa3b 	bl	800413a <ld_32>
 8004cc4:	e9c4 050e 	strd	r0, r5, [r4, #56]	@ 0x38
 8004cc8:	b97d      	cbnz	r5, 8004cea <mount_volume+0x262>
 8004cca:	8963      	ldrh	r3, [r4, #10]
 8004ccc:	42b3      	cmp	r3, r6
 8004cce:	f67f af70 	bls.w	8004bb2 <mount_volume+0x12a>
 8004cd2:	6ba1      	ldr	r1, [r4, #56]	@ 0x38
 8004cd4:	4620      	mov	r0, r4
 8004cd6:	f7ff fa4d 	bl	8004174 <clst2sect>
 8004cda:	1832      	adds	r2, r6, r0
 8004cdc:	4620      	mov	r0, r4
 8004cde:	f141 0300 	adc.w	r3, r1, #0
 8004ce2:	f7ff fb9d 	bl	8004420 <move_window>
 8004ce6:	bb40      	cbnz	r0, 8004d3a <mount_volume+0x2b2>
 8004ce8:	3601      	adds	r6, #1
 8004cea:	1963      	adds	r3, r4, r5
 8004cec:	f893 3054 	ldrb.w	r3, [r3, #84]	@ 0x54
 8004cf0:	2b81      	cmp	r3, #129	@ 0x81
 8004cf2:	d037      	beq.n	8004d64 <mount_volume+0x2dc>
 8004cf4:	3520      	adds	r5, #32
 8004cf6:	f3c5 0508 	ubfx	r5, r5, #0, #9
 8004cfa:	e7e5      	b.n	8004cc8 <mount_volume+0x240>
 8004cfc:	f204 231a 	addw	r3, r4, #538	@ 0x21a
 8004d00:	466e      	mov	r6, sp
 8004d02:	f204 215a 	addw	r1, r4, #602	@ 0x25a
 8004d06:	466a      	mov	r2, sp
 8004d08:	4618      	mov	r0, r3
 8004d0a:	3310      	adds	r3, #16
 8004d0c:	f7ff fa15 	bl	800413a <ld_32>
 8004d10:	f842 0b04 	str.w	r0, [r2], #4
 8004d14:	428b      	cmp	r3, r1
 8004d16:	d1f7      	bne.n	8004d08 <mount_volume+0x280>
 8004d18:	2500      	movs	r5, #0
 8004d1a:	f856 2b04 	ldr.w	r2, [r6], #4
 8004d1e:	b172      	cbz	r2, 8004d3e <mount_volume+0x2b6>
 8004d20:	2300      	movs	r3, #0
 8004d22:	4620      	mov	r0, r4
 8004d24:	f7ff fb9e 	bl	8004464 <check_fs>
 8004d28:	2801      	cmp	r0, #1
 8004d2a:	f67f af69 	bls.w	8004c00 <mount_volume+0x178>
 8004d2e:	3501      	adds	r5, #1
 8004d30:	2d04      	cmp	r5, #4
 8004d32:	d1f2      	bne.n	8004d1a <mount_volume+0x292>
 8004d34:	2804      	cmp	r0, #4
 8004d36:	f47f af3c 	bne.w	8004bb2 <mount_volume+0x12a>
 8004d3a:	2001      	movs	r0, #1
 8004d3c:	e6c5      	b.n	8004aca <mount_volume+0x42>
 8004d3e:	2003      	movs	r0, #3
 8004d40:	e7f5      	b.n	8004d2e <mount_volume+0x2a6>
 8004d42:	2804      	cmp	r0, #4
 8004d44:	d0f9      	beq.n	8004d3a <mount_volume+0x2b2>
 8004d46:	2801      	cmp	r0, #1
 8004d48:	f67f af5a 	bls.w	8004c00 <mount_volume+0x178>
 8004d4c:	e731      	b.n	8004bb2 <mount_volume+0x12a>
 8004d4e:	bf00      	nop
 8004d50:	24001b30 	.word	0x24001b30
 8004d54:	08008c6a 	.word	0x08008c6a
 8004d58:	edb88320 	.word	0xedb88320
 8004d5c:	080090f3 	.word	0x080090f3
 8004d60:	7ffffffd 	.word	0x7ffffffd
 8004d64:	f105 0014 	add.w	r0, r5, #20
 8004d68:	f104 0654 	add.w	r6, r4, #84	@ 0x54
 8004d6c:	4430      	add	r0, r6
 8004d6e:	f7ff f9e4 	bl	800413a <ld_32>
 8004d72:	2801      	cmp	r0, #1
 8004d74:	4605      	mov	r5, r0
 8004d76:	f67f af1c 	bls.w	8004bb2 <mount_volume+0x12a>
 8004d7a:	69a3      	ldr	r3, [r4, #24]
 8004d7c:	4283      	cmp	r3, r0
 8004d7e:	f67f af18 	bls.w	8004bb2 <mount_volume+0x12a>
 8004d82:	1e82      	subs	r2, r0, #2
 8004d84:	8963      	ldrh	r3, [r4, #10]
 8004d86:	4353      	muls	r3, r2
 8004d88:	e9d4 1210 	ldrd	r1, r2, [r4, #64]	@ 0x40
 8004d8c:	185b      	adds	r3, r3, r1
 8004d8e:	f142 0200 	adc.w	r2, r2, #0
 8004d92:	e9c4 3212 	strd	r3, r2, [r4, #72]	@ 0x48
 8004d96:	e9d4 130c 	ldrd	r1, r3, [r4, #48]	@ 0x30
 8004d9a:	09ea      	lsrs	r2, r5, #7
 8004d9c:	4620      	mov	r0, r4
 8004d9e:	1852      	adds	r2, r2, r1
 8004da0:	f143 0300 	adc.w	r3, r3, #0
 8004da4:	f7ff fb3c 	bl	8004420 <move_window>
 8004da8:	4603      	mov	r3, r0
 8004daa:	2800      	cmp	r0, #0
 8004dac:	d1c5      	bne.n	8004d3a <mount_volume+0x2b2>
 8004dae:	f005 007f 	and.w	r0, r5, #127	@ 0x7f
 8004db2:	eb06 0080 	add.w	r0, r6, r0, lsl #2
 8004db6:	f7ff f9c0 	bl	800413a <ld_32>
 8004dba:	1c42      	adds	r2, r0, #1
 8004dbc:	d003      	beq.n	8004dc6 <mount_volume+0x33e>
 8004dbe:	3501      	adds	r5, #1
 8004dc0:	42a8      	cmp	r0, r5
 8004dc2:	d0e8      	beq.n	8004d96 <mount_volume+0x30e>
 8004dc4:	e6f5      	b.n	8004bb2 <mount_volume+0x12a>
 8004dc6:	2704      	movs	r7, #4
 8004dc8:	7163      	strb	r3, [r4, #5]
 8004dca:	e9c4 0004 	strd	r0, r0, [r4, #16]
 8004dce:	4a71      	ldr	r2, [pc, #452]	@ (8004f94 <mount_volume+0x50c>)
 8004dd0:	7027      	strb	r7, [r4, #0]
 8004dd2:	8813      	ldrh	r3, [r2, #0]
 8004dd4:	3301      	adds	r3, #1
 8004dd6:	b29b      	uxth	r3, r3
 8004dd8:	8013      	strh	r3, [r2, #0]
 8004dda:	80e3      	strh	r3, [r4, #6]
 8004ddc:	4b6e      	ldr	r3, [pc, #440]	@ (8004f98 <mount_volume+0x510>)
 8004dde:	60e3      	str	r3, [r4, #12]
 8004de0:	4b6e      	ldr	r3, [pc, #440]	@ (8004f9c <mount_volume+0x514>)
 8004de2:	6523      	str	r3, [r4, #80]	@ 0x50
 8004de4:	2000      	movs	r0, #0
 8004de6:	e670      	b.n	8004aca <mount_volume+0x42>
 8004de8:	f8b4 305f 	ldrh.w	r3, [r4, #95]	@ 0x5f
 8004dec:	f5b3 7f00 	cmp.w	r3, #512	@ 0x200
 8004df0:	f47f aedf 	bne.w	8004bb2 <mount_volume+0x12a>
 8004df4:	f8b4 806a 	ldrh.w	r8, [r4, #106]	@ 0x6a
 8004df8:	f1b8 0f00 	cmp.w	r8, #0
 8004dfc:	d104      	bne.n	8004e08 <mount_volume+0x380>
 8004dfe:	f104 0078 	add.w	r0, r4, #120	@ 0x78
 8004e02:	f7ff f99a 	bl	800413a <ld_32>
 8004e06:	4680      	mov	r8, r0
 8004e08:	f894 3064 	ldrb.w	r3, [r4, #100]	@ 0x64
 8004e0c:	f8c4 801c 	str.w	r8, [r4, #28]
 8004e10:	1e59      	subs	r1, r3, #1
 8004e12:	70e3      	strb	r3, [r4, #3]
 8004e14:	2901      	cmp	r1, #1
 8004e16:	f63f aecc 	bhi.w	8004bb2 <mount_volume+0x12a>
 8004e1a:	f894 5061 	ldrb.w	r5, [r4, #97]	@ 0x61
 8004e1e:	8165      	strh	r5, [r4, #10]
 8004e20:	2d00      	cmp	r5, #0
 8004e22:	f43f aec6 	beq.w	8004bb2 <mount_volume+0x12a>
 8004e26:	1e69      	subs	r1, r5, #1
 8004e28:	4229      	tst	r1, r5
 8004e2a:	f47f aec2 	bne.w	8004bb2 <mount_volume+0x12a>
 8004e2e:	f8b4 9065 	ldrh.w	r9, [r4, #101]	@ 0x65
 8004e32:	f019 0f0f 	tst.w	r9, #15
 8004e36:	f8a4 9008 	strh.w	r9, [r4, #8]
 8004e3a:	f47f aeba 	bne.w	8004bb2 <mount_volume+0x12a>
 8004e3e:	f8b4 0067 	ldrh.w	r0, [r4, #103]	@ 0x67
 8004e42:	b918      	cbnz	r0, 8004e4c <mount_volume+0x3c4>
 8004e44:	f104 0074 	add.w	r0, r4, #116	@ 0x74
 8004e48:	f7ff f977 	bl	800413a <ld_32>
 8004e4c:	f8b4 e062 	ldrh.w	lr, [r4, #98]	@ 0x62
 8004e50:	f1be 0f00 	cmp.w	lr, #0
 8004e54:	f43f aead 	beq.w	8004bb2 <mount_volume+0x12a>
 8004e58:	fb08 f303 	mul.w	r3, r8, r3
 8004e5c:	eb0e 1c19 	add.w	ip, lr, r9, lsr #4
 8004e60:	449c      	add	ip, r3
 8004e62:	4560      	cmp	r0, ip
 8004e64:	f4ff aea5 	bcc.w	8004bb2 <mount_volume+0x12a>
 8004e68:	eba0 000c 	sub.w	r0, r0, ip
 8004e6c:	42a8      	cmp	r0, r5
 8004e6e:	fbb0 f1f5 	udiv	r1, r0, r5
 8004e72:	f4ff ae9e 	bcc.w	8004bb2 <mount_volume+0x12a>
 8004e76:	484a      	ldr	r0, [pc, #296]	@ (8004fa0 <mount_volume+0x518>)
 8004e78:	4281      	cmp	r1, r0
 8004e7a:	f63f ae9a 	bhi.w	8004bb2 <mount_volume+0x12a>
 8004e7e:	f64f 70f5 	movw	r0, #65525	@ 0xfff5
 8004e82:	4281      	cmp	r1, r0
 8004e84:	d86b      	bhi.n	8004f5e <mount_volume+0x4d6>
 8004e86:	f640 77f5 	movw	r7, #4085	@ 0xff5
 8004e8a:	42b9      	cmp	r1, r7
 8004e8c:	bf8c      	ite	hi
 8004e8e:	2702      	movhi	r7, #2
 8004e90:	2701      	movls	r7, #1
 8004e92:	eb1e 0002 	adds.w	r0, lr, r2
 8004e96:	f101 0102 	add.w	r1, r1, #2
 8004e9a:	f146 0500 	adc.w	r5, r6, #0
 8004e9e:	eb1c 0c02 	adds.w	ip, ip, r2
 8004ea2:	61a1      	str	r1, [r4, #24]
 8004ea4:	f146 0e00 	adc.w	lr, r6, #0
 8004ea8:	2f03      	cmp	r7, #3
 8004eaa:	e9c4 260a 	strd	r2, r6, [r4, #40]	@ 0x28
 8004eae:	e9c4 050c 	strd	r0, r5, [r4, #48]	@ 0x30
 8004eb2:	e9c4 ce10 	strd	ip, lr, [r4, #64]	@ 0x40
 8004eb6:	d154      	bne.n	8004f62 <mount_volume+0x4da>
 8004eb8:	f8b4 507e 	ldrh.w	r5, [r4, #126]	@ 0x7e
 8004ebc:	ea59 0505 	orrs.w	r5, r9, r5
 8004ec0:	f47f ae77 	bne.w	8004bb2 <mount_volume+0x12a>
 8004ec4:	0089      	lsls	r1, r1, #2
 8004ec6:	f104 0080 	add.w	r0, r4, #128	@ 0x80
 8004eca:	f7ff f936 	bl	800413a <ld_32>
 8004ece:	f201 11ff 	addw	r1, r1, #511	@ 0x1ff
 8004ed2:	ebb8 2f51 	cmp.w	r8, r1, lsr #9
 8004ed6:	e9c4 050e 	strd	r0, r5, [r4, #56]	@ 0x38
 8004eda:	f4ff ae6a 	bcc.w	8004bb2 <mount_volume+0x12a>
 8004ede:	f04f 33ff 	mov.w	r3, #4294967295
 8004ee2:	2f03      	cmp	r7, #3
 8004ee4:	e9c4 3304 	strd	r3, r3, [r4, #16]
 8004ee8:	f04f 0380 	mov.w	r3, #128	@ 0x80
 8004eec:	7163      	strb	r3, [r4, #5]
 8004eee:	f47f af6e 	bne.w	8004dce <mount_volume+0x346>
 8004ef2:	f8b4 3084 	ldrh.w	r3, [r4, #132]	@ 0x84
 8004ef6:	2b01      	cmp	r3, #1
 8004ef8:	f47f af69 	bne.w	8004dce <mount_volume+0x346>
 8004efc:	3201      	adds	r2, #1
 8004efe:	4620      	mov	r0, r4
 8004f00:	f146 0300 	adc.w	r3, r6, #0
 8004f04:	f7ff fa8c 	bl	8004420 <move_window>
 8004f08:	2800      	cmp	r0, #0
 8004f0a:	f47f af60 	bne.w	8004dce <mount_volume+0x346>
 8004f0e:	4b25      	ldr	r3, [pc, #148]	@ (8004fa4 <mount_volume+0x51c>)
 8004f10:	7160      	strb	r0, [r4, #5]
 8004f12:	f104 0054 	add.w	r0, r4, #84	@ 0x54
 8004f16:	f7ff f910 	bl	800413a <ld_32>
 8004f1a:	4298      	cmp	r0, r3
 8004f1c:	f47f af57 	bne.w	8004dce <mount_volume+0x346>
 8004f20:	f103 53ff 	add.w	r3, r3, #534773760	@ 0x1fe00000
 8004f24:	f504 700e 	add.w	r0, r4, #568	@ 0x238
 8004f28:	f7ff f907 	bl	800413a <ld_32>
 8004f2c:	f503 5300 	add.w	r3, r3, #8192	@ 0x2000
 8004f30:	3320      	adds	r3, #32
 8004f32:	4298      	cmp	r0, r3
 8004f34:	f47f af4b 	bne.w	8004dce <mount_volume+0x346>
 8004f38:	4b1b      	ldr	r3, [pc, #108]	@ (8004fa8 <mount_volume+0x520>)
 8004f3a:	f504 7014 	add.w	r0, r4, #592	@ 0x250
 8004f3e:	f7ff f8fc 	bl	800413a <ld_32>
 8004f42:	4298      	cmp	r0, r3
 8004f44:	f47f af43 	bne.w	8004dce <mount_volume+0x346>
 8004f48:	f504 700f 	add.w	r0, r4, #572	@ 0x23c
 8004f4c:	f7ff f8f5 	bl	800413a <ld_32>
 8004f50:	6160      	str	r0, [r4, #20]
 8004f52:	f504 7010 	add.w	r0, r4, #576	@ 0x240
 8004f56:	f7ff f8f0 	bl	800413a <ld_32>
 8004f5a:	6120      	str	r0, [r4, #16]
 8004f5c:	e737      	b.n	8004dce <mount_volume+0x346>
 8004f5e:	2703      	movs	r7, #3
 8004f60:	e797      	b.n	8004e92 <mount_volume+0x40a>
 8004f62:	f1b9 0f00 	cmp.w	r9, #0
 8004f66:	f43f ae24 	beq.w	8004bb2 <mount_volume+0x12a>
 8004f6a:	1818      	adds	r0, r3, r0
 8004f6c:	ea4f 0c41 	mov.w	ip, r1, lsl #1
 8004f70:	f145 0500 	adc.w	r5, r5, #0
 8004f74:	2f02      	cmp	r7, #2
 8004f76:	bf1b      	ittet	ne
 8004f78:	448c      	addne	ip, r1
 8004f7a:	f001 0101 	andne.w	r1, r1, #1
 8004f7e:	4661      	moveq	r1, ip
 8004f80:	eb01 015c 	addne.w	r1, r1, ip, lsr #1
 8004f84:	e7a3      	b.n	8004ece <mount_volume+0x446>
 8004f86:	200b      	movs	r0, #11
 8004f88:	e59f      	b.n	8004aca <mount_volume+0x42>
 8004f8a:	200c      	movs	r0, #12
 8004f8c:	e59d      	b.n	8004aca <mount_volume+0x42>
 8004f8e:	2003      	movs	r0, #3
 8004f90:	e59b      	b.n	8004aca <mount_volume+0x42>
 8004f92:	bf00      	nop
 8004f94:	24001b2c 	.word	0x24001b2c
 8004f98:	240016cc 	.word	0x240016cc
 8004f9c:	240018cc 	.word	0x240018cc
 8004fa0:	0ffffff5 	.word	0x0ffffff5
 8004fa4:	41615252 	.word	0x41615252
 8004fa8:	aa550000 	.word	0xaa550000

08004fac <create_chain>:
 8004fac:	e92d 47f0 	stmdb	sp!, {r4, r5, r6, r7, r8, r9, sl, lr}
 8004fb0:	4606      	mov	r6, r0
 8004fb2:	6805      	ldr	r5, [r0, #0]
 8004fb4:	4688      	mov	r8, r1
 8004fb6:	b949      	cbnz	r1, 8004fcc <create_chain+0x20>
 8004fb8:	692f      	ldr	r7, [r5, #16]
 8004fba:	b1c7      	cbz	r7, 8004fee <create_chain+0x42>
 8004fbc:	69ab      	ldr	r3, [r5, #24]
 8004fbe:	42bb      	cmp	r3, r7
 8004fc0:	bf98      	it	ls
 8004fc2:	2701      	movls	r7, #1
 8004fc4:	696b      	ldr	r3, [r5, #20]
 8004fc6:	b9a3      	cbnz	r3, 8004ff2 <create_chain+0x46>
 8004fc8:	2400      	movs	r4, #0
 8004fca:	e005      	b.n	8004fd8 <create_chain+0x2c>
 8004fcc:	f7ff faf0 	bl	80045b0 <get_fat>
 8004fd0:	2801      	cmp	r0, #1
 8004fd2:	4604      	mov	r4, r0
 8004fd4:	d803      	bhi.n	8004fde <create_chain+0x32>
 8004fd6:	2401      	movs	r4, #1
 8004fd8:	4620      	mov	r0, r4
 8004fda:	e8bd 87f0 	ldmia.w	sp!, {r4, r5, r6, r7, r8, r9, sl, pc}
 8004fde:	1c42      	adds	r2, r0, #1
 8004fe0:	f000 80d6 	beq.w	8005190 <create_chain+0x1e4>
 8004fe4:	69ab      	ldr	r3, [r5, #24]
 8004fe6:	4283      	cmp	r3, r0
 8004fe8:	d8f6      	bhi.n	8004fd8 <create_chain+0x2c>
 8004fea:	4647      	mov	r7, r8
 8004fec:	e7ea      	b.n	8004fc4 <create_chain+0x18>
 8004fee:	2701      	movs	r7, #1
 8004ff0:	e7e8      	b.n	8004fc4 <create_chain+0x18>
 8004ff2:	782a      	ldrb	r2, [r5, #0]
 8004ff4:	69ab      	ldr	r3, [r5, #24]
 8004ff6:	2a04      	cmp	r2, #4
 8004ff8:	f040 8083 	bne.w	8005102 <create_chain+0x156>
 8004ffc:	f1a7 0a02 	sub.w	sl, r7, #2
 8005000:	3b02      	subs	r3, #2
 8005002:	459a      	cmp	sl, r3
 8005004:	bf28      	it	cs
 8005006:	f04f 0a00 	movcs.w	sl, #0
 800500a:	46d1      	mov	r9, sl
 800500c:	ea4f 3219 	mov.w	r2, r9, lsr #12
 8005010:	4628      	mov	r0, r5
 8005012:	e9d5 1312 	ldrd	r1, r3, [r5, #72]	@ 0x48
 8005016:	1852      	adds	r2, r2, r1
 8005018:	f143 0300 	adc.w	r3, r3, #0
 800501c:	f7ff fa00 	bl	8004420 <move_window>
 8005020:	2800      	cmp	r0, #0
 8005022:	d147      	bne.n	80050b4 <create_chain+0x108>
 8005024:	f009 0107 	and.w	r1, r9, #7
 8005028:	2301      	movs	r3, #1
 800502a:	f3c9 02c8 	ubfx	r2, r9, #3, #9
 800502e:	408b      	lsls	r3, r1
 8005030:	69a9      	ldr	r1, [r5, #24]
 8005032:	b2db      	uxtb	r3, r3
 8005034:	3902      	subs	r1, #2
 8005036:	18a8      	adds	r0, r5, r2
 8005038:	464c      	mov	r4, r9
 800503a:	f109 0901 	add.w	r9, r9, #1
 800503e:	f890 0054 	ldrb.w	r0, [r0, #84]	@ 0x54
 8005042:	4589      	cmp	r9, r1
 8005044:	ea00 0003 	and.w	r0, r0, r3
 8005048:	bf33      	iteet	cc
 800504a:	005b      	lslcc	r3, r3, #1
 800504c:	2300      	movcs	r3, #0
 800504e:	f44f 7200 	movcs.w	r2, #512	@ 0x200
 8005052:	b2db      	uxtbcc	r3, r3
 8005054:	bf28      	it	cs
 8005056:	4699      	movcs	r9, r3
 8005058:	bb10      	cbnz	r0, 80050a0 <create_chain+0xf4>
 800505a:	3402      	adds	r4, #2
 800505c:	1e63      	subs	r3, r4, #1
 800505e:	3303      	adds	r3, #3
 8005060:	d8ba      	bhi.n	8004fd8 <create_chain+0x2c>
 8005062:	2301      	movs	r3, #1
 8005064:	4621      	mov	r1, r4
 8005066:	4628      	mov	r0, r5
 8005068:	461a      	mov	r2, r3
 800506a:	f7ff fa5f 	bl	800452c <change_bitmap>
 800506e:	2802      	cmp	r0, #2
 8005070:	d0b1      	beq.n	8004fd6 <create_chain+0x2a>
 8005072:	2801      	cmp	r0, #1
 8005074:	f000 808c 	beq.w	8005190 <create_chain+0x1e4>
 8005078:	f1b8 0f00 	cmp.w	r8, #0
 800507c:	d11f      	bne.n	80050be <create_chain+0x112>
 800507e:	2302      	movs	r3, #2
 8005080:	71f3      	strb	r3, [r6, #7]
 8005082:	696b      	ldr	r3, [r5, #20]
 8005084:	612c      	str	r4, [r5, #16]
 8005086:	2b00      	cmp	r3, #0
 8005088:	d0a6      	beq.n	8004fd8 <create_chain+0x2c>
 800508a:	69aa      	ldr	r2, [r5, #24]
 800508c:	3a02      	subs	r2, #2
 800508e:	4293      	cmp	r3, r2
 8005090:	d8a2      	bhi.n	8004fd8 <create_chain+0x2c>
 8005092:	3b01      	subs	r3, #1
 8005094:	616b      	str	r3, [r5, #20]
 8005096:	796b      	ldrb	r3, [r5, #5]
 8005098:	f043 0301 	orr.w	r3, r3, #1
 800509c:	716b      	strb	r3, [r5, #5]
 800509e:	e79b      	b.n	8004fd8 <create_chain+0x2c>
 80050a0:	45ca      	cmp	sl, r9
 80050a2:	d00a      	beq.n	80050ba <create_chain+0x10e>
 80050a4:	2b00      	cmp	r3, #0
 80050a6:	d1c6      	bne.n	8005036 <create_chain+0x8a>
 80050a8:	3201      	adds	r2, #1
 80050aa:	f5b2 7f00 	cmp.w	r2, #512	@ 0x200
 80050ae:	d2ad      	bcs.n	800500c <create_chain+0x60>
 80050b0:	2301      	movs	r3, #1
 80050b2:	e7c0      	b.n	8005036 <create_chain+0x8a>
 80050b4:	f04f 34ff 	mov.w	r4, #4294967295
 80050b8:	e7d0      	b.n	800505c <create_chain+0xb0>
 80050ba:	2400      	movs	r4, #0
 80050bc:	e7ce      	b.n	800505c <create_chain+0xb0>
 80050be:	79f3      	ldrb	r3, [r6, #7]
 80050c0:	2b02      	cmp	r3, #2
 80050c2:	d107      	bne.n	80050d4 <create_chain+0x128>
 80050c4:	1c7b      	adds	r3, r7, #1
 80050c6:	42a3      	cmp	r3, r4
 80050c8:	d0db      	beq.n	8005082 <create_chain+0xd6>
 80050ca:	68b3      	ldr	r3, [r6, #8]
 80050cc:	1afb      	subs	r3, r7, r3
 80050ce:	61b3      	str	r3, [r6, #24]
 80050d0:	2303      	movs	r3, #3
 80050d2:	71f3      	strb	r3, [r6, #7]
 80050d4:	f108 0201 	add.w	r2, r8, #1
 80050d8:	69f3      	ldr	r3, [r6, #28]
 80050da:	42a2      	cmp	r2, r4
 80050dc:	d105      	bne.n	80050ea <create_chain+0x13e>
 80050de:	b113      	cbz	r3, 80050e6 <create_chain+0x13a>
 80050e0:	3301      	adds	r3, #1
 80050e2:	61f3      	str	r3, [r6, #28]
 80050e4:	e7cd      	b.n	8005082 <create_chain+0xd6>
 80050e6:	2302      	movs	r3, #2
 80050e8:	e7fb      	b.n	80050e2 <create_chain+0x136>
 80050ea:	b90b      	cbnz	r3, 80050f0 <create_chain+0x144>
 80050ec:	2301      	movs	r3, #1
 80050ee:	61f3      	str	r3, [r6, #28]
 80050f0:	4622      	mov	r2, r4
 80050f2:	4641      	mov	r1, r8
 80050f4:	4630      	mov	r0, r6
 80050f6:	f7ff fbe3 	bl	80048c0 <fill_last_frag>
 80050fa:	2800      	cmp	r0, #0
 80050fc:	d145      	bne.n	800518a <create_chain+0x1de>
 80050fe:	2301      	movs	r3, #1
 8005100:	e7ef      	b.n	80050e2 <create_chain+0x136>
 8005102:	4547      	cmp	r7, r8
 8005104:	d115      	bne.n	8005132 <create_chain+0x186>
 8005106:	1c7c      	adds	r4, r7, #1
 8005108:	4630      	mov	r0, r6
 800510a:	429c      	cmp	r4, r3
 800510c:	bf28      	it	cs
 800510e:	2402      	movcs	r4, #2
 8005110:	4621      	mov	r1, r4
 8005112:	f7ff fa4d 	bl	80045b0 <get_fat>
 8005116:	2801      	cmp	r0, #1
 8005118:	f43f af5d 	beq.w	8004fd6 <create_chain+0x2a>
 800511c:	1c43      	adds	r3, r0, #1
 800511e:	d037      	beq.n	8005190 <create_chain+0x1e4>
 8005120:	b1f8      	cbz	r0, 8005162 <create_chain+0x1b6>
 8005122:	f8d5 9010 	ldr.w	r9, [r5, #16]
 8005126:	f1b9 0f01 	cmp.w	r9, #1
 800512a:	d902      	bls.n	8005132 <create_chain+0x186>
 800512c:	69ab      	ldr	r3, [r5, #24]
 800512e:	4599      	cmp	r9, r3
 8005130:	d300      	bcc.n	8005134 <create_chain+0x188>
 8005132:	46b9      	mov	r9, r7
 8005134:	464c      	mov	r4, r9
 8005136:	3401      	adds	r4, #1
 8005138:	69ab      	ldr	r3, [r5, #24]
 800513a:	42a3      	cmp	r3, r4
 800513c:	d804      	bhi.n	8005148 <create_chain+0x19c>
 800513e:	f1b9 0f01 	cmp.w	r9, #1
 8005142:	f43f af41 	beq.w	8004fc8 <create_chain+0x1c>
 8005146:	2402      	movs	r4, #2
 8005148:	4621      	mov	r1, r4
 800514a:	4630      	mov	r0, r6
 800514c:	f7ff fa30 	bl	80045b0 <get_fat>
 8005150:	b148      	cbz	r0, 8005166 <create_chain+0x1ba>
 8005152:	2801      	cmp	r0, #1
 8005154:	f43f af3f 	beq.w	8004fd6 <create_chain+0x2a>
 8005158:	3001      	adds	r0, #1
 800515a:	d019      	beq.n	8005190 <create_chain+0x1e4>
 800515c:	454c      	cmp	r4, r9
 800515e:	d1ea      	bne.n	8005136 <create_chain+0x18a>
 8005160:	e732      	b.n	8004fc8 <create_chain+0x1c>
 8005162:	2c00      	cmp	r4, #0
 8005164:	d0e5      	beq.n	8005132 <create_chain+0x186>
 8005166:	f04f 32ff 	mov.w	r2, #4294967295
 800516a:	4621      	mov	r1, r4
 800516c:	4628      	mov	r0, r5
 800516e:	f7ff fb1b 	bl	80047a8 <put_fat>
 8005172:	b950      	cbnz	r0, 800518a <create_chain+0x1de>
 8005174:	f1b8 0f00 	cmp.w	r8, #0
 8005178:	d083      	beq.n	8005082 <create_chain+0xd6>
 800517a:	4622      	mov	r2, r4
 800517c:	4641      	mov	r1, r8
 800517e:	4628      	mov	r0, r5
 8005180:	f7ff fb12 	bl	80047a8 <put_fat>
 8005184:	2800      	cmp	r0, #0
 8005186:	f43f af7c 	beq.w	8005082 <create_chain+0xd6>
 800518a:	2801      	cmp	r0, #1
 800518c:	f47f af23 	bne.w	8004fd6 <create_chain+0x2a>
 8005190:	f04f 34ff 	mov.w	r4, #4294967295
 8005194:	e720      	b.n	8004fd8 <create_chain+0x2c>

08005196 <dir_next>:
 8005196:	e92d 43f8 	stmdb	sp!, {r3, r4, r5, r6, r7, r8, r9, lr}
 800519a:	6806      	ldr	r6, [r0, #0]
 800519c:	4689      	mov	r9, r1
 800519e:	6b07      	ldr	r7, [r0, #48]	@ 0x30
 80051a0:	4604      	mov	r4, r0
 80051a2:	7833      	ldrb	r3, [r6, #0]
 80051a4:	3720      	adds	r7, #32
 80051a6:	2b04      	cmp	r3, #4
 80051a8:	bf14      	ite	ne
 80051aa:	f44f 1300 	movne.w	r3, #2097152	@ 0x200000
 80051ae:	f04f 5380 	moveq.w	r3, #268435456	@ 0x10000000
 80051b2:	42bb      	cmp	r3, r7
 80051b4:	bf9e      	ittt	ls
 80051b6:	2200      	movls	r2, #0
 80051b8:	2300      	movls	r3, #0
 80051ba:	e9c0 230e 	strdls	r2, r3, [r0, #56]	@ 0x38
 80051be:	e9d0 320e 	ldrd	r3, r2, [r0, #56]	@ 0x38
 80051c2:	ea53 0102 	orrs.w	r1, r3, r2
 80051c6:	d013      	beq.n	80051f0 <dir_next+0x5a>
 80051c8:	f3c7 0808 	ubfx	r8, r7, #0, #9
 80051cc:	f1b8 0f00 	cmp.w	r8, #0
 80051d0:	d142      	bne.n	8005258 <dir_next+0xc2>
 80051d2:	3301      	adds	r3, #1
 80051d4:	6b41      	ldr	r1, [r0, #52]	@ 0x34
 80051d6:	f142 0200 	adc.w	r2, r2, #0
 80051da:	e9c0 320e 	strd	r3, r2, [r0, #56]	@ 0x38
 80051de:	b951      	cbnz	r1, 80051f6 <dir_next+0x60>
 80051e0:	8933      	ldrh	r3, [r6, #8]
 80051e2:	ebb3 1f57 	cmp.w	r3, r7, lsr #5
 80051e6:	d837      	bhi.n	8005258 <dir_next+0xc2>
 80051e8:	2200      	movs	r2, #0
 80051ea:	2300      	movs	r3, #0
 80051ec:	e9c4 230e 	strd	r2, r3, [r4, #56]	@ 0x38
 80051f0:	2004      	movs	r0, #4
 80051f2:	e8bd 83f8 	ldmia.w	sp!, {r3, r4, r5, r6, r7, r8, r9, pc}
 80051f6:	8973      	ldrh	r3, [r6, #10]
 80051f8:	3b01      	subs	r3, #1
 80051fa:	ea13 2357 	ands.w	r3, r3, r7, lsr #9
 80051fe:	d12b      	bne.n	8005258 <dir_next+0xc2>
 8005200:	f7ff f9d6 	bl	80045b0 <get_fat>
 8005204:	2801      	cmp	r0, #1
 8005206:	4605      	mov	r5, r0
 8005208:	d801      	bhi.n	800520e <dir_next+0x78>
 800520a:	2002      	movs	r0, #2
 800520c:	e7f1      	b.n	80051f2 <dir_next+0x5c>
 800520e:	1c42      	adds	r2, r0, #1
 8005210:	d101      	bne.n	8005216 <dir_next+0x80>
 8005212:	2001      	movs	r0, #1
 8005214:	e7ed      	b.n	80051f2 <dir_next+0x5c>
 8005216:	69b3      	ldr	r3, [r6, #24]
 8005218:	4283      	cmp	r3, r0
 800521a:	d816      	bhi.n	800524a <dir_next+0xb4>
 800521c:	f1b9 0f00 	cmp.w	r9, #0
 8005220:	d0e2      	beq.n	80051e8 <dir_next+0x52>
 8005222:	6b61      	ldr	r1, [r4, #52]	@ 0x34
 8005224:	4620      	mov	r0, r4
 8005226:	f7ff fec1 	bl	8004fac <create_chain>
 800522a:	4605      	mov	r5, r0
 800522c:	b1d0      	cbz	r0, 8005264 <dir_next+0xce>
 800522e:	2801      	cmp	r0, #1
 8005230:	d0eb      	beq.n	800520a <dir_next+0x74>
 8005232:	1c43      	adds	r3, r0, #1
 8005234:	d0ed      	beq.n	8005212 <dir_next+0x7c>
 8005236:	4601      	mov	r1, r0
 8005238:	4630      	mov	r0, r6
 800523a:	f7ff fbf0 	bl	8004a1e <dir_clear>
 800523e:	2800      	cmp	r0, #0
 8005240:	d1e7      	bne.n	8005212 <dir_next+0x7c>
 8005242:	79e3      	ldrb	r3, [r4, #7]
 8005244:	f043 0304 	orr.w	r3, r3, #4
 8005248:	71e3      	strb	r3, [r4, #7]
 800524a:	4629      	mov	r1, r5
 800524c:	4630      	mov	r0, r6
 800524e:	6365      	str	r5, [r4, #52]	@ 0x34
 8005250:	f7fe ff90 	bl	8004174 <clst2sect>
 8005254:	e9c4 010e 	strd	r0, r1, [r4, #56]	@ 0x38
 8005258:	3654      	adds	r6, #84	@ 0x54
 800525a:	2000      	movs	r0, #0
 800525c:	6327      	str	r7, [r4, #48]	@ 0x30
 800525e:	4446      	add	r6, r8
 8005260:	6426      	str	r6, [r4, #64]	@ 0x40
 8005262:	e7c6      	b.n	80051f2 <dir_next+0x5c>
 8005264:	2007      	movs	r0, #7
 8005266:	e7c4      	b.n	80051f2 <dir_next+0x5c>

08005268 <dir_alloc>:
 8005268:	b5f8      	push	{r3, r4, r5, r6, r7, lr}
 800526a:	460e      	mov	r6, r1
 800526c:	2100      	movs	r1, #0
 800526e:	4604      	mov	r4, r0
 8005270:	6807      	ldr	r7, [r0, #0]
 8005272:	f7ff fa45 	bl	8004700 <dir_sdi>
 8005276:	b9f8      	cbnz	r0, 80052b8 <dir_alloc+0x50>
 8005278:	4605      	mov	r5, r0
 800527a:	4638      	mov	r0, r7
 800527c:	e9d4 230e 	ldrd	r2, r3, [r4, #56]	@ 0x38
 8005280:	f7ff f8ce 	bl	8004420 <move_window>
 8005284:	b9c0      	cbnz	r0, 80052b8 <dir_alloc+0x50>
 8005286:	783a      	ldrb	r2, [r7, #0]
 8005288:	6c23      	ldr	r3, [r4, #64]	@ 0x40
 800528a:	2a04      	cmp	r2, #4
 800528c:	781b      	ldrb	r3, [r3, #0]
 800528e:	d10c      	bne.n	80052aa <dir_alloc+0x42>
 8005290:	061b      	lsls	r3, r3, #24
 8005292:	d50e      	bpl.n	80052b2 <dir_alloc+0x4a>
 8005294:	4605      	mov	r5, r0
 8005296:	2101      	movs	r1, #1
 8005298:	4620      	mov	r0, r4
 800529a:	f7ff ff7c 	bl	8005196 <dir_next>
 800529e:	2800      	cmp	r0, #0
 80052a0:	d0eb      	beq.n	800527a <dir_alloc+0x12>
 80052a2:	2804      	cmp	r0, #4
 80052a4:	bf08      	it	eq
 80052a6:	2007      	moveq	r0, #7
 80052a8:	e006      	b.n	80052b8 <dir_alloc+0x50>
 80052aa:	2be5      	cmp	r3, #229	@ 0xe5
 80052ac:	d001      	beq.n	80052b2 <dir_alloc+0x4a>
 80052ae:	2b00      	cmp	r3, #0
 80052b0:	d1f0      	bne.n	8005294 <dir_alloc+0x2c>
 80052b2:	3501      	adds	r5, #1
 80052b4:	42b5      	cmp	r5, r6
 80052b6:	d1ee      	bne.n	8005296 <dir_alloc+0x2e>
 80052b8:	bdf8      	pop	{r3, r4, r5, r6, r7, pc}

080052ba <dir_remove>:
 80052ba:	6d01      	ldr	r1, [r0, #80]	@ 0x50
 80052bc:	b5f8      	push	{r3, r4, r5, r6, r7, lr}
 80052be:	1c4b      	adds	r3, r1, #1
 80052c0:	4604      	mov	r4, r0
 80052c2:	6805      	ldr	r5, [r0, #0]
 80052c4:	6b06      	ldr	r6, [r0, #48]	@ 0x30
 80052c6:	d11d      	bne.n	8005304 <dir_remove+0x4a>
 80052c8:	2701      	movs	r7, #1
 80052ca:	4628      	mov	r0, r5
 80052cc:	e9d4 230e 	ldrd	r2, r3, [r4, #56]	@ 0x38
 80052d0:	f7ff f8a6 	bl	8004420 <move_window>
 80052d4:	b9d0      	cbnz	r0, 800530c <dir_remove+0x52>
 80052d6:	782b      	ldrb	r3, [r5, #0]
 80052d8:	6c22      	ldr	r2, [r4, #64]	@ 0x40
 80052da:	2b04      	cmp	r3, #4
 80052dc:	bf0a      	itet	eq
 80052de:	7813      	ldrbeq	r3, [r2, #0]
 80052e0:	23e5      	movne	r3, #229	@ 0xe5
 80052e2:	f003 037f 	andeq.w	r3, r3, #127	@ 0x7f
 80052e6:	7013      	strb	r3, [r2, #0]
 80052e8:	712f      	strb	r7, [r5, #4]
 80052ea:	6b23      	ldr	r3, [r4, #48]	@ 0x30
 80052ec:	42b3      	cmp	r3, r6
 80052ee:	d20d      	bcs.n	800530c <dir_remove+0x52>
 80052f0:	2100      	movs	r1, #0
 80052f2:	4620      	mov	r0, r4
 80052f4:	f7ff ff4f 	bl	8005196 <dir_next>
 80052f8:	2800      	cmp	r0, #0
 80052fa:	d0e6      	beq.n	80052ca <dir_remove+0x10>
 80052fc:	2804      	cmp	r0, #4
 80052fe:	bf08      	it	eq
 8005300:	2002      	moveq	r0, #2
 8005302:	e003      	b.n	800530c <dir_remove+0x52>
 8005304:	f7ff f9fc 	bl	8004700 <dir_sdi>
 8005308:	2800      	cmp	r0, #0
 800530a:	d0dd      	beq.n	80052c8 <dir_remove+0xe>
 800530c:	bdf8      	pop	{r3, r4, r5, r6, r7, pc}

0800530e <load_xdir>:
 800530e:	b5f8      	push	{r3, r4, r5, r6, r7, lr}
 8005310:	4604      	mov	r4, r0
 8005312:	6800      	ldr	r0, [r0, #0]
 8005314:	e9d4 230e 	ldrd	r2, r3, [r4, #56]	@ 0x38
 8005318:	6d05      	ldr	r5, [r0, #80]	@ 0x50
 800531a:	f7ff f881 	bl	8004420 <move_window>
 800531e:	b108      	cbz	r0, 8005324 <load_xdir+0x16>
 8005320:	2001      	movs	r0, #1
 8005322:	bdf8      	pop	{r3, r4, r5, r6, r7, pc}
 8005324:	6c23      	ldr	r3, [r4, #64]	@ 0x40
 8005326:	781a      	ldrb	r2, [r3, #0]
 8005328:	2a85      	cmp	r2, #133	@ 0x85
 800532a:	d001      	beq.n	8005330 <load_xdir+0x22>
 800532c:	2002      	movs	r0, #2
 800532e:	e7f8      	b.n	8005322 <load_xdir+0x14>
 8005330:	462a      	mov	r2, r5
 8005332:	f103 0120 	add.w	r1, r3, #32
 8005336:	f853 0b04 	ldr.w	r0, [r3], #4
 800533a:	428b      	cmp	r3, r1
 800533c:	f842 0b04 	str.w	r0, [r2], #4
 8005340:	d1f9      	bne.n	8005336 <load_xdir+0x28>
 8005342:	786e      	ldrb	r6, [r5, #1]
 8005344:	3601      	adds	r6, #1
 8005346:	0176      	lsls	r6, r6, #5
 8005348:	f1a6 0360 	sub.w	r3, r6, #96	@ 0x60
 800534c:	f5b3 7f00 	cmp.w	r3, #512	@ 0x200
 8005350:	d8ec      	bhi.n	800532c <load_xdir+0x1e>
 8005352:	2100      	movs	r1, #0
 8005354:	4620      	mov	r0, r4
 8005356:	f7ff ff1e 	bl	8005196 <dir_next>
 800535a:	2804      	cmp	r0, #4
 800535c:	d0e6      	beq.n	800532c <load_xdir+0x1e>
 800535e:	2800      	cmp	r0, #0
 8005360:	d1df      	bne.n	8005322 <load_xdir+0x14>
 8005362:	6820      	ldr	r0, [r4, #0]
 8005364:	e9d4 230e 	ldrd	r2, r3, [r4, #56]	@ 0x38
 8005368:	f7ff f85a 	bl	8004420 <move_window>
 800536c:	2800      	cmp	r0, #0
 800536e:	d1d7      	bne.n	8005320 <load_xdir+0x12>
 8005370:	6c23      	ldr	r3, [r4, #64]	@ 0x40
 8005372:	781a      	ldrb	r2, [r3, #0]
 8005374:	2ac0      	cmp	r2, #192	@ 0xc0
 8005376:	d1d9      	bne.n	800532c <load_xdir+0x1e>
 8005378:	f105 0220 	add.w	r2, r5, #32
 800537c:	f103 0120 	add.w	r1, r3, #32
 8005380:	f853 0b04 	ldr.w	r0, [r3], #4
 8005384:	428b      	cmp	r3, r1
 8005386:	f842 0b04 	str.w	r0, [r2], #4
 800538a:	d1f9      	bne.n	8005380 <load_xdir+0x72>
 800538c:	f895 3023 	ldrb.w	r3, [r5, #35]	@ 0x23
 8005390:	220f      	movs	r2, #15
 8005392:	332c      	adds	r3, #44	@ 0x2c
 8005394:	fbb3 f3f2 	udiv	r3, r3, r2
 8005398:	ebb6 1f43 	cmp.w	r6, r3, lsl #5
 800539c:	d3c6      	bcc.n	800532c <load_xdir+0x1e>
 800539e:	2740      	movs	r7, #64	@ 0x40
 80053a0:	2100      	movs	r1, #0
 80053a2:	4620      	mov	r0, r4
 80053a4:	f7ff fef7 	bl	8005196 <dir_next>
 80053a8:	2804      	cmp	r0, #4
 80053aa:	d0bf      	beq.n	800532c <load_xdir+0x1e>
 80053ac:	2800      	cmp	r0, #0
 80053ae:	d1b8      	bne.n	8005322 <load_xdir+0x14>
 80053b0:	6820      	ldr	r0, [r4, #0]
 80053b2:	e9d4 230e 	ldrd	r2, r3, [r4, #56]	@ 0x38
 80053b6:	f7ff f833 	bl	8004420 <move_window>
 80053ba:	2800      	cmp	r0, #0
 80053bc:	d1b0      	bne.n	8005320 <load_xdir+0x12>
 80053be:	6c23      	ldr	r3, [r4, #64]	@ 0x40
 80053c0:	781a      	ldrb	r2, [r3, #0]
 80053c2:	2ac1      	cmp	r2, #193	@ 0xc1
 80053c4:	d1b2      	bne.n	800532c <load_xdir+0x1e>
 80053c6:	f5b7 7f18 	cmp.w	r7, #608	@ 0x260
 80053ca:	d0aa      	beq.n	8005322 <load_xdir+0x14>
 80053cc:	19ea      	adds	r2, r5, r7
 80053ce:	f103 0120 	add.w	r1, r3, #32
 80053d2:	f853 cb04 	ldr.w	ip, [r3], #4
 80053d6:	428b      	cmp	r3, r1
 80053d8:	f842 cb04 	str.w	ip, [r2], #4
 80053dc:	d1f9      	bne.n	80053d2 <load_xdir+0xc4>
 80053de:	3720      	adds	r7, #32
 80053e0:	42be      	cmp	r6, r7
 80053e2:	d8dd      	bhi.n	80053a0 <load_xdir+0x92>
 80053e4:	f5b7 7f18 	cmp.w	r7, #608	@ 0x260
 80053e8:	d89b      	bhi.n	8005322 <load_xdir+0x14>
 80053ea:	4628      	mov	r0, r5
 80053ec:	f7fe fee1 	bl	80041b2 <xdir_sum>
 80053f0:	886b      	ldrh	r3, [r5, #2]
 80053f2:	1a18      	subs	r0, r3, r0
 80053f4:	bf18      	it	ne
 80053f6:	2001      	movne	r0, #1
 80053f8:	0040      	lsls	r0, r0, #1
 80053fa:	e792      	b.n	8005322 <load_xdir+0x14>

080053fc <store_xdir>:
 80053fc:	b5f8      	push	{r3, r4, r5, r6, r7, lr}
 80053fe:	6803      	ldr	r3, [r0, #0]
 8005400:	4605      	mov	r5, r0
 8005402:	2701      	movs	r7, #1
 8005404:	6d1c      	ldr	r4, [r3, #80]	@ 0x50
 8005406:	4620      	mov	r0, r4
 8005408:	f7fe fed3 	bl	80041b2 <xdir_sum>
 800540c:	70a0      	strb	r0, [r4, #2]
 800540e:	0a00      	lsrs	r0, r0, #8
 8005410:	7866      	ldrb	r6, [r4, #1]
 8005412:	70e0      	strb	r0, [r4, #3]
 8005414:	4628      	mov	r0, r5
 8005416:	6d29      	ldr	r1, [r5, #80]	@ 0x50
 8005418:	f7ff f972 	bl	8004700 <dir_sdi>
 800541c:	b120      	cbz	r0, 8005428 <store_xdir+0x2c>
 800541e:	2802      	cmp	r0, #2
 8005420:	bf28      	it	cs
 8005422:	2002      	movcs	r0, #2
 8005424:	b2c0      	uxtb	r0, r0
 8005426:	bdf8      	pop	{r3, r4, r5, r6, r7, pc}
 8005428:	e9d5 230e 	ldrd	r2, r3, [r5, #56]	@ 0x38
 800542c:	6828      	ldr	r0, [r5, #0]
 800542e:	f7fe fff7 	bl	8004420 <move_window>
 8005432:	2800      	cmp	r0, #0
 8005434:	d1f3      	bne.n	800541e <store_xdir+0x22>
 8005436:	6c2b      	ldr	r3, [r5, #64]	@ 0x40
 8005438:	f104 0220 	add.w	r2, r4, #32
 800543c:	f854 1b04 	ldr.w	r1, [r4], #4
 8005440:	4294      	cmp	r4, r2
 8005442:	f843 1b04 	str.w	r1, [r3], #4
 8005446:	d1f9      	bne.n	800543c <store_xdir+0x40>
 8005448:	682b      	ldr	r3, [r5, #0]
 800544a:	711f      	strb	r7, [r3, #4]
 800544c:	2e00      	cmp	r6, #0
 800544e:	d0e6      	beq.n	800541e <store_xdir+0x22>
 8005450:	2100      	movs	r1, #0
 8005452:	4628      	mov	r0, r5
 8005454:	3e01      	subs	r6, #1
 8005456:	f7ff fe9e 	bl	8005196 <dir_next>
 800545a:	e7df      	b.n	800541c <store_xdir+0x20>

0800545c <dir_read.constprop.0>:
 800545c:	e92d 43f8 	stmdb	sp!, {r3, r4, r5, r6, r7, r8, r9, lr}
 8005460:	27ff      	movs	r7, #255	@ 0xff
 8005462:	4604      	mov	r4, r0
 8005464:	6806      	ldr	r6, [r0, #0]
 8005466:	2004      	movs	r0, #4
 8005468:	463d      	mov	r5, r7
 800546a:	e9d4 230e 	ldrd	r2, r3, [r4, #56]	@ 0x38
 800546e:	ea52 0103 	orrs.w	r1, r2, r3
 8005472:	d102      	bne.n	800547a <dir_read.constprop.0+0x1e>
 8005474:	b1d8      	cbz	r0, 80054ae <dir_read.constprop.0+0x52>
 8005476:	2004      	movs	r0, #4
 8005478:	e062      	b.n	8005540 <dir_read.constprop.0+0xe4>
 800547a:	4630      	mov	r0, r6
 800547c:	f7fe ffd0 	bl	8004420 <move_window>
 8005480:	2800      	cmp	r0, #0
 8005482:	d15d      	bne.n	8005540 <dir_read.constprop.0+0xe4>
 8005484:	6c20      	ldr	r0, [r4, #64]	@ 0x40
 8005486:	7803      	ldrb	r3, [r0, #0]
 8005488:	2b00      	cmp	r3, #0
 800548a:	d0f4      	beq.n	8005476 <dir_read.constprop.0+0x1a>
 800548c:	7832      	ldrb	r2, [r6, #0]
 800548e:	2a04      	cmp	r2, #4
 8005490:	d110      	bne.n	80054b4 <dir_read.constprop.0+0x58>
 8005492:	2b85      	cmp	r3, #133	@ 0x85
 8005494:	d14e      	bne.n	8005534 <dir_read.constprop.0+0xd8>
 8005496:	6b23      	ldr	r3, [r4, #48]	@ 0x30
 8005498:	4620      	mov	r0, r4
 800549a:	6523      	str	r3, [r4, #80]	@ 0x50
 800549c:	f7ff ff37 	bl	800530e <load_xdir>
 80054a0:	2800      	cmp	r0, #0
 80054a2:	d14d      	bne.n	8005540 <dir_read.constprop.0+0xe4>
 80054a4:	6d33      	ldr	r3, [r6, #80]	@ 0x50
 80054a6:	791b      	ldrb	r3, [r3, #4]
 80054a8:	f003 033f 	and.w	r3, r3, #63	@ 0x3f
 80054ac:	71a3      	strb	r3, [r4, #6]
 80054ae:	2000      	movs	r0, #0
 80054b0:	e8bd 83f8 	ldmia.w	sp!, {r3, r4, r5, r6, r7, r8, r9, pc}
 80054b4:	7ac2      	ldrb	r2, [r0, #11]
 80054b6:	2be5      	cmp	r3, #229	@ 0xe5
 80054b8:	f002 023f 	and.w	r2, r2, #63	@ 0x3f
 80054bc:	71a2      	strb	r2, [r4, #6]
 80054be:	d046      	beq.n	800554e <dir_read.constprop.0+0xf2>
 80054c0:	2b2e      	cmp	r3, #46	@ 0x2e
 80054c2:	d044      	beq.n	800554e <dir_read.constprop.0+0xf2>
 80054c4:	f022 0120 	bic.w	r1, r2, #32
 80054c8:	2908      	cmp	r1, #8
 80054ca:	d040      	beq.n	800554e <dir_read.constprop.0+0xf2>
 80054cc:	2a0f      	cmp	r2, #15
 80054ce:	d143      	bne.n	8005558 <dir_read.constprop.0+0xfc>
 80054d0:	0659      	lsls	r1, r3, #25
 80054d2:	d53a      	bpl.n	800554a <dir_read.constprop.0+0xee>
 80054d4:	f003 05bf 	and.w	r5, r3, #191	@ 0xbf
 80054d8:	6b23      	ldr	r3, [r4, #48]	@ 0x30
 80054da:	7b47      	ldrb	r7, [r0, #13]
 80054dc:	6523      	str	r3, [r4, #80]	@ 0x50
 80054de:	7b43      	ldrb	r3, [r0, #13]
 80054e0:	42bb      	cmp	r3, r7
 80054e2:	d134      	bne.n	800554e <dir_read.constprop.0+0xf2>
 80054e4:	8b42      	ldrh	r2, [r0, #26]
 80054e6:	bb92      	cbnz	r2, 800554e <dir_read.constprop.0+0xf2>
 80054e8:	7803      	ldrb	r3, [r0, #0]
 80054ea:	210d      	movs	r1, #13
 80054ec:	f8d6 e00c 	ldr.w	lr, [r6, #12]
 80054f0:	f64f 79ff 	movw	r9, #65535	@ 0xffff
 80054f4:	f023 0340 	bic.w	r3, r3, #64	@ 0x40
 80054f8:	f8df 8070 	ldr.w	r8, [pc, #112]	@ 800556c <dir_read.constprop.0+0x110>
 80054fc:	3b01      	subs	r3, #1
 80054fe:	434b      	muls	r3, r1
 8005500:	2101      	movs	r1, #1
 8005502:	f818 cb01 	ldrb.w	ip, [r8], #1
 8005506:	f830 c00c 	ldrh.w	ip, [r0, ip]
 800550a:	b311      	cbz	r1, 8005552 <dir_read.constprop.0+0xf6>
 800550c:	2bff      	cmp	r3, #255	@ 0xff
 800550e:	d81e      	bhi.n	800554e <dir_read.constprop.0+0xf2>
 8005510:	f82e c013 	strh.w	ip, [lr, r3, lsl #1]
 8005514:	4661      	mov	r1, ip
 8005516:	3301      	adds	r3, #1
 8005518:	3201      	adds	r2, #1
 800551a:	2a0d      	cmp	r2, #13
 800551c:	d1f1      	bne.n	8005502 <dir_read.constprop.0+0xa6>
 800551e:	7802      	ldrb	r2, [r0, #0]
 8005520:	0652      	lsls	r2, r2, #25
 8005522:	d505      	bpl.n	8005530 <dir_read.constprop.0+0xd4>
 8005524:	b121      	cbz	r1, 8005530 <dir_read.constprop.0+0xd4>
 8005526:	2bff      	cmp	r3, #255	@ 0xff
 8005528:	d811      	bhi.n	800554e <dir_read.constprop.0+0xf2>
 800552a:	2200      	movs	r2, #0
 800552c:	f82e 2013 	strh.w	r2, [lr, r3, lsl #1]
 8005530:	3d01      	subs	r5, #1
 8005532:	b2ed      	uxtb	r5, r5
 8005534:	2100      	movs	r1, #0
 8005536:	4620      	mov	r0, r4
 8005538:	f7ff fe2d 	bl	8005196 <dir_next>
 800553c:	2800      	cmp	r0, #0
 800553e:	d094      	beq.n	800546a <dir_read.constprop.0+0xe>
 8005540:	2200      	movs	r2, #0
 8005542:	2300      	movs	r3, #0
 8005544:	e9c4 230e 	strd	r2, r3, [r4, #56]	@ 0x38
 8005548:	e7b2      	b.n	80054b0 <dir_read.constprop.0+0x54>
 800554a:	42ab      	cmp	r3, r5
 800554c:	d0c7      	beq.n	80054de <dir_read.constprop.0+0x82>
 800554e:	25ff      	movs	r5, #255	@ 0xff
 8005550:	e7f0      	b.n	8005534 <dir_read.constprop.0+0xd8>
 8005552:	45cc      	cmp	ip, r9
 8005554:	d0e0      	beq.n	8005518 <dir_read.constprop.0+0xbc>
 8005556:	e7fa      	b.n	800554e <dir_read.constprop.0+0xf2>
 8005558:	b91d      	cbnz	r5, 8005562 <dir_read.constprop.0+0x106>
 800555a:	f7fe fe1b 	bl	8004194 <sum_sfn>
 800555e:	42b8      	cmp	r0, r7
 8005560:	d0a5      	beq.n	80054ae <dir_read.constprop.0+0x52>
 8005562:	f04f 33ff 	mov.w	r3, #4294967295
 8005566:	6523      	str	r3, [r4, #80]	@ 0x50
 8005568:	e7a1      	b.n	80054ae <dir_read.constprop.0+0x52>
 800556a:	bf00      	nop
 800556c:	080090e6 	.word	0x080090e6

08005570 <dir_find>:
 8005570:	e92d 4ff0 	stmdb	sp!, {r4, r5, r6, r7, r8, r9, sl, fp, lr}
 8005574:	2100      	movs	r1, #0
 8005576:	b087      	sub	sp, #28
 8005578:	4604      	mov	r4, r0
 800557a:	f8d0 9000 	ldr.w	r9, [r0]
 800557e:	f7ff f8bf 	bl	8004700 <dir_sdi>
 8005582:	4680      	mov	r8, r0
 8005584:	bb98      	cbnz	r0, 80055ee <dir_find+0x7e>
 8005586:	f899 3000 	ldrb.w	r3, [r9]
 800558a:	2b04      	cmp	r3, #4
 800558c:	d136      	bne.n	80055fc <dir_find+0x8c>
 800558e:	f8d9 000c 	ldr.w	r0, [r9, #12]
 8005592:	f7fe fea1 	bl	80042d8 <xname_sum>
 8005596:	4607      	mov	r7, r0
 8005598:	4620      	mov	r0, r4
 800559a:	f7ff ff5f 	bl	800545c <dir_read.constprop.0>
 800559e:	4605      	mov	r5, r0
 80055a0:	b108      	cbz	r0, 80055a6 <dir_find+0x36>
 80055a2:	4680      	mov	r8, r0
 80055a4:	e023      	b.n	80055ee <dir_find+0x7e>
 80055a6:	f8d9 3050 	ldr.w	r3, [r9, #80]	@ 0x50
 80055aa:	8c9a      	ldrh	r2, [r3, #36]	@ 0x24
 80055ac:	42ba      	cmp	r2, r7
 80055ae:	d1f3      	bne.n	8005598 <dir_find+0x28>
 80055b0:	f893 b023 	ldrb.w	fp, [r3, #35]	@ 0x23
 80055b4:	2640      	movs	r6, #64	@ 0x40
 80055b6:	455d      	cmp	r5, fp
 80055b8:	d010      	beq.n	80055dc <dir_find+0x6c>
 80055ba:	06f1      	lsls	r1, r6, #27
 80055bc:	f8d9 3050 	ldr.w	r3, [r9, #80]	@ 0x50
 80055c0:	bf08      	it	eq
 80055c2:	3602      	addeq	r6, #2
 80055c4:	5b98      	ldrh	r0, [r3, r6]
 80055c6:	f001 f981 	bl	80068cc <ff_wtoupper>
 80055ca:	f8d9 300c 	ldr.w	r3, [r9, #12]
 80055ce:	4682      	mov	sl, r0
 80055d0:	f833 0015 	ldrh.w	r0, [r3, r5, lsl #1]
 80055d4:	f001 f97a 	bl	80068cc <ff_wtoupper>
 80055d8:	4582      	cmp	sl, r0
 80055da:	d00c      	beq.n	80055f6 <dir_find+0x86>
 80055dc:	b2eb      	uxtb	r3, r5
 80055de:	459b      	cmp	fp, r3
 80055e0:	d1da      	bne.n	8005598 <dir_find+0x28>
 80055e2:	f8d9 300c 	ldr.w	r3, [r9, #12]
 80055e6:	f833 3015 	ldrh.w	r3, [r3, r5, lsl #1]
 80055ea:	2b00      	cmp	r3, #0
 80055ec:	d1d4      	bne.n	8005598 <dir_find+0x28>
 80055ee:	4640      	mov	r0, r8
 80055f0:	b007      	add	sp, #28
 80055f2:	e8bd 8ff0 	ldmia.w	sp!, {r4, r5, r6, r7, r8, r9, sl, fp, pc}
 80055f6:	3602      	adds	r6, #2
 80055f8:	3501      	adds	r5, #1
 80055fa:	e7dc      	b.n	80055b6 <dir_find+0x46>
 80055fc:	f04f 33ff 	mov.w	r3, #4294967295
 8005600:	f04f 0aff 	mov.w	sl, #255	@ 0xff
 8005604:	6523      	str	r3, [r4, #80]	@ 0x50
 8005606:	4655      	mov	r5, sl
 8005608:	f104 0344 	add.w	r3, r4, #68	@ 0x44
 800560c:	9302      	str	r3, [sp, #8]
 800560e:	4648      	mov	r0, r9
 8005610:	e9d4 230e 	ldrd	r2, r3, [r4, #56]	@ 0x38
 8005614:	f7fe ff04 	bl	8004420 <move_window>
 8005618:	b9b8      	cbnz	r0, 800564a <dir_find+0xda>
 800561a:	6c26      	ldr	r6, [r4, #64]	@ 0x40
 800561c:	7837      	ldrb	r7, [r6, #0]
 800561e:	2f00      	cmp	r7, #0
 8005620:	d076      	beq.n	8005710 <dir_find+0x1a0>
 8005622:	7af2      	ldrb	r2, [r6, #11]
 8005624:	2fe5      	cmp	r7, #229	@ 0xe5
 8005626:	f002 033f 	and.w	r3, r2, #63	@ 0x3f
 800562a:	71a3      	strb	r3, [r4, #6]
 800562c:	d003      	beq.n	8005636 <dir_find+0xc6>
 800562e:	0712      	lsls	r2, r2, #28
 8005630:	d55b      	bpl.n	80056ea <dir_find+0x17a>
 8005632:	2b0f      	cmp	r3, #15
 8005634:	d00b      	beq.n	800564e <dir_find+0xde>
 8005636:	f04f 33ff 	mov.w	r3, #4294967295
 800563a:	6523      	str	r3, [r4, #80]	@ 0x50
 800563c:	25ff      	movs	r5, #255	@ 0xff
 800563e:	2100      	movs	r1, #0
 8005640:	4620      	mov	r0, r4
 8005642:	f7ff fda8 	bl	8005196 <dir_next>
 8005646:	2800      	cmp	r0, #0
 8005648:	d0e1      	beq.n	800560e <dir_find+0x9e>
 800564a:	4680      	mov	r8, r0
 800564c:	e7cf      	b.n	80055ee <dir_find+0x7e>
 800564e:	f894 304f 	ldrb.w	r3, [r4, #79]	@ 0x4f
 8005652:	065b      	lsls	r3, r3, #25
 8005654:	d4f3      	bmi.n	800563e <dir_find+0xce>
 8005656:	0678      	lsls	r0, r7, #25
 8005658:	d53c      	bpl.n	80056d4 <dir_find+0x164>
 800565a:	6b23      	ldr	r3, [r4, #48]	@ 0x30
 800565c:	f007 07bf 	and.w	r7, r7, #191	@ 0xbf
 8005660:	6523      	str	r3, [r4, #80]	@ 0x50
 8005662:	f896 a00d 	ldrb.w	sl, [r6, #13]
 8005666:	8b73      	ldrh	r3, [r6, #26]
 8005668:	2b00      	cmp	r3, #0
 800566a:	d1e7      	bne.n	800563c <dir_find+0xcc>
 800566c:	7835      	ldrb	r5, [r6, #0]
 800566e:	2201      	movs	r2, #1
 8005670:	f8d9 300c 	ldr.w	r3, [r9, #12]
 8005674:	f005 053f 	and.w	r5, r5, #63	@ 0x3f
 8005678:	f8df b0a0 	ldr.w	fp, [pc, #160]	@ 800571c <dir_find+0x1ac>
 800567c:	9301      	str	r3, [sp, #4]
 800567e:	230d      	movs	r3, #13
 8005680:	3d01      	subs	r5, #1
 8005682:	435d      	muls	r5, r3
 8005684:	f81b 3b01 	ldrb.w	r3, [fp], #1
 8005688:	5af3      	ldrh	r3, [r6, r3]
 800568a:	b34a      	cbz	r2, 80056e0 <dir_find+0x170>
 800568c:	2dff      	cmp	r5, #255	@ 0xff
 800568e:	d8d5      	bhi.n	800563c <dir_find+0xcc>
 8005690:	4618      	mov	r0, r3
 8005692:	9305      	str	r3, [sp, #20]
 8005694:	f001 f91a 	bl	80068cc <ff_wtoupper>
 8005698:	9b01      	ldr	r3, [sp, #4]
 800569a:	1c69      	adds	r1, r5, #1
 800569c:	9004      	str	r0, [sp, #16]
 800569e:	f833 0015 	ldrh.w	r0, [r3, r5, lsl #1]
 80056a2:	9103      	str	r1, [sp, #12]
 80056a4:	f001 f912 	bl	80068cc <ff_wtoupper>
 80056a8:	9a04      	ldr	r2, [sp, #16]
 80056aa:	4282      	cmp	r2, r0
 80056ac:	d1c6      	bne.n	800563c <dir_find+0xcc>
 80056ae:	9b05      	ldr	r3, [sp, #20]
 80056b0:	9903      	ldr	r1, [sp, #12]
 80056b2:	461a      	mov	r2, r3
 80056b4:	460d      	mov	r5, r1
 80056b6:	4b18      	ldr	r3, [pc, #96]	@ (8005718 <dir_find+0x1a8>)
 80056b8:	459b      	cmp	fp, r3
 80056ba:	d1e3      	bne.n	8005684 <dir_find+0x114>
 80056bc:	7833      	ldrb	r3, [r6, #0]
 80056be:	0659      	lsls	r1, r3, #25
 80056c0:	d505      	bpl.n	80056ce <dir_find+0x15e>
 80056c2:	b122      	cbz	r2, 80056ce <dir_find+0x15e>
 80056c4:	9b01      	ldr	r3, [sp, #4]
 80056c6:	f833 3015 	ldrh.w	r3, [r3, r5, lsl #1]
 80056ca:	2b00      	cmp	r3, #0
 80056cc:	d1b6      	bne.n	800563c <dir_find+0xcc>
 80056ce:	3f01      	subs	r7, #1
 80056d0:	b2fd      	uxtb	r5, r7
 80056d2:	e7b4      	b.n	800563e <dir_find+0xce>
 80056d4:	42bd      	cmp	r5, r7
 80056d6:	d1b1      	bne.n	800563c <dir_find+0xcc>
 80056d8:	7b73      	ldrb	r3, [r6, #13]
 80056da:	4553      	cmp	r3, sl
 80056dc:	d1ae      	bne.n	800563c <dir_find+0xcc>
 80056de:	e7c2      	b.n	8005666 <dir_find+0xf6>
 80056e0:	f64f 71ff 	movw	r1, #65535	@ 0xffff
 80056e4:	428b      	cmp	r3, r1
 80056e6:	d0e6      	beq.n	80056b6 <dir_find+0x146>
 80056e8:	e7a8      	b.n	800563c <dir_find+0xcc>
 80056ea:	b92d      	cbnz	r5, 80056f8 <dir_find+0x188>
 80056ec:	4630      	mov	r0, r6
 80056ee:	f7fe fd51 	bl	8004194 <sum_sfn>
 80056f2:	4550      	cmp	r0, sl
 80056f4:	f43f af7b 	beq.w	80055ee <dir_find+0x7e>
 80056f8:	f894 304f 	ldrb.w	r3, [r4, #79]	@ 0x4f
 80056fc:	07db      	lsls	r3, r3, #31
 80056fe:	d49a      	bmi.n	8005636 <dir_find+0xc6>
 8005700:	220b      	movs	r2, #11
 8005702:	9902      	ldr	r1, [sp, #8]
 8005704:	4630      	mov	r0, r6
 8005706:	f003 fa4c 	bl	8008ba2 <memcmp>
 800570a:	2800      	cmp	r0, #0
 800570c:	d193      	bne.n	8005636 <dir_find+0xc6>
 800570e:	e76e      	b.n	80055ee <dir_find+0x7e>
 8005710:	f04f 0804 	mov.w	r8, #4
 8005714:	e76b      	b.n	80055ee <dir_find+0x7e>
 8005716:	bf00      	nop
 8005718:	080090f3 	.word	0x080090f3
 800571c:	080090e6 	.word	0x080090e6

08005720 <dir_register>:
 8005720:	e92d 4ff0 	stmdb	sp!, {r4, r5, r6, r7, r8, r9, sl, fp, lr}
 8005724:	f890 b04f 	ldrb.w	fp, [r0, #79]	@ 0x4f
 8005728:	b09b      	sub	sp, #108	@ 0x6c
 800572a:	4604      	mov	r4, r0
 800572c:	f01b 08a0 	ands.w	r8, fp, #160	@ 0xa0
 8005730:	f040 817e 	bne.w	8005a30 <dir_register+0x310>
 8005734:	6806      	ldr	r6, [r0, #0]
 8005736:	68f2      	ldr	r2, [r6, #12]
 8005738:	f832 3018 	ldrh.w	r3, [r2, r8, lsl #1]
 800573c:	2b00      	cmp	r3, #0
 800573e:	f040 80a1 	bne.w	8005884 <dir_register+0x164>
 8005742:	7833      	ldrb	r3, [r6, #0]
 8005744:	2b04      	cmp	r3, #4
 8005746:	f040 80a2 	bne.w	800588e <dir_register+0x16e>
 800574a:	230f      	movs	r3, #15
 800574c:	f108 080e 	add.w	r8, r8, #14
 8005750:	4620      	mov	r0, r4
 8005752:	fbb8 f8f3 	udiv	r8, r8, r3
 8005756:	f108 0102 	add.w	r1, r8, #2
 800575a:	f7ff fd85 	bl	8005268 <dir_alloc>
 800575e:	4605      	mov	r5, r0
 8005760:	2800      	cmp	r0, #0
 8005762:	f040 8100 	bne.w	8005966 <dir_register+0x246>
 8005766:	f108 0801 	add.w	r8, r8, #1
 800576a:	6b23      	ldr	r3, [r4, #48]	@ 0x30
 800576c:	eba3 1348 	sub.w	r3, r3, r8, lsl #5
 8005770:	6523      	str	r3, [r4, #80]	@ 0x50
 8005772:	79e3      	ldrb	r3, [r4, #7]
 8005774:	075f      	lsls	r7, r3, #29
 8005776:	d54d      	bpl.n	8005814 <dir_register+0xf4>
 8005778:	f023 0304 	bic.w	r3, r3, #4
 800577c:	4620      	mov	r0, r4
 800577e:	71e3      	strb	r3, [r4, #7]
 8005780:	f7ff f8b6 	bl	80048f0 <fill_first_frag>
 8005784:	2800      	cmp	r0, #0
 8005786:	f040 80ee 	bne.w	8005966 <dir_register+0x246>
 800578a:	f04f 32ff 	mov.w	r2, #4294967295
 800578e:	6b61      	ldr	r1, [r4, #52]	@ 0x34
 8005790:	4620      	mov	r0, r4
 8005792:	f7ff f895 	bl	80048c0 <fill_last_frag>
 8005796:	2800      	cmp	r0, #0
 8005798:	f040 80e5 	bne.w	8005966 <dir_register+0x246>
 800579c:	68a3      	ldr	r3, [r4, #8]
 800579e:	2b00      	cmp	r3, #0
 80057a0:	d038      	beq.n	8005814 <dir_register+0xf4>
 80057a2:	6823      	ldr	r3, [r4, #0]
 80057a4:	6aa1      	ldr	r1, [r4, #40]	@ 0x28
 80057a6:	9304      	str	r3, [sp, #16]
 80057a8:	6a23      	ldr	r3, [r4, #32]
 80057aa:	900b      	str	r0, [sp, #44]	@ 0x2c
 80057ac:	9306      	str	r3, [sp, #24]
 80057ae:	6a63      	ldr	r3, [r4, #36]	@ 0x24
 80057b0:	9118      	str	r1, [sp, #96]	@ 0x60
 80057b2:	f88d 3017 	strb.w	r3, [sp, #23]
 80057b6:	f023 03ff 	bic.w	r3, r3, #255	@ 0xff
 80057ba:	e9cd 3008 	strd	r3, r0, [sp, #32]
 80057be:	a804      	add	r0, sp, #16
 80057c0:	f7fe ff9e 	bl	8004700 <dir_sdi>
 80057c4:	2800      	cmp	r0, #0
 80057c6:	f040 80ce 	bne.w	8005966 <dir_register+0x246>
 80057ca:	a804      	add	r0, sp, #16
 80057cc:	f7ff fd9f 	bl	800530e <load_xdir>
 80057d0:	2800      	cmp	r0, #0
 80057d2:	f040 80c8 	bne.w	8005966 <dir_register+0x246>
 80057d6:	8970      	ldrh	r0, [r6, #10]
 80057d8:	f44f 7100 	mov.w	r1, #512	@ 0x200
 80057dc:	e9d4 2304 	ldrd	r2, r3, [r4, #16]
 80057e0:	fbe0 2301 	umlal	r2, r3, r0, r1
 80057e4:	6d30      	ldr	r0, [r6, #80]	@ 0x50
 80057e6:	e9c4 2304 	strd	r2, r3, [r4, #16]
 80057ea:	3038      	adds	r0, #56	@ 0x38
 80057ec:	f7fe fcb3 	bl	8004156 <st_64>
 80057f0:	6d30      	ldr	r0, [r6, #80]	@ 0x50
 80057f2:	e9d4 2304 	ldrd	r2, r3, [r4, #16]
 80057f6:	3028      	adds	r0, #40	@ 0x28
 80057f8:	f7fe fcad 	bl	8004156 <st_64>
 80057fc:	79e3      	ldrb	r3, [r4, #7]
 80057fe:	6d32      	ldr	r2, [r6, #80]	@ 0x50
 8005800:	a804      	add	r0, sp, #16
 8005802:	f043 0301 	orr.w	r3, r3, #1
 8005806:	f882 3021 	strb.w	r3, [r2, #33]	@ 0x21
 800580a:	f7ff fdf7 	bl	80053fc <store_xdir>
 800580e:	2800      	cmp	r0, #0
 8005810:	f040 80a9 	bne.w	8005966 <dir_register+0x246>
 8005814:	6d34      	ldr	r4, [r6, #80]	@ 0x50
 8005816:	223f      	movs	r2, #63	@ 0x3f
 8005818:	2100      	movs	r1, #0
 800581a:	68f6      	ldr	r6, [r6, #12]
 800581c:	1c67      	adds	r7, r4, #1
 800581e:	4638      	mov	r0, r7
 8005820:	f003 f9cf 	bl	8008bc2 <memset>
 8005824:	2385      	movs	r3, #133	@ 0x85
 8005826:	2200      	movs	r2, #0
 8005828:	2101      	movs	r1, #1
 800582a:	7023      	strb	r3, [r4, #0]
 800582c:	23c0      	movs	r3, #192	@ 0xc0
 800582e:	f04f 0ec1 	mov.w	lr, #193	@ 0xc1
 8005832:	4690      	mov	r8, r2
 8005834:	f884 3020 	strb.w	r3, [r4, #32]
 8005838:	2340      	movs	r3, #64	@ 0x40
 800583a:	1c58      	adds	r0, r3, #1
 800583c:	f804 e003 	strb.w	lr, [r4, r3]
 8005840:	3302      	adds	r3, #2
 8005842:	f804 8000 	strb.w	r8, [r4, r0]
 8005846:	b121      	cbz	r1, 8005852 <dir_register+0x132>
 8005848:	f836 1015 	ldrh.w	r1, [r6, r5, lsl #1]
 800584c:	b109      	cbz	r1, 8005852 <dir_register+0x132>
 800584e:	3501      	adds	r5, #1
 8005850:	b2ed      	uxtb	r5, r5
 8005852:	0a08      	lsrs	r0, r1, #8
 8005854:	54e1      	strb	r1, [r4, r3]
 8005856:	54f8      	strb	r0, [r7, r3]
 8005858:	3302      	adds	r3, #2
 800585a:	06d8      	lsls	r0, r3, #27
 800585c:	d1f3      	bne.n	8005846 <dir_register+0x126>
 800585e:	f836 0015 	ldrh.w	r0, [r6, r5, lsl #1]
 8005862:	f102 0c01 	add.w	ip, r2, #1
 8005866:	b980      	cbnz	r0, 800588a <dir_register+0x16a>
 8005868:	3202      	adds	r2, #2
 800586a:	4630      	mov	r0, r6
 800586c:	f884 5023 	strb.w	r5, [r4, #35]	@ 0x23
 8005870:	7062      	strb	r2, [r4, #1]
 8005872:	f7fe fd31 	bl	80042d8 <xname_sum>
 8005876:	f884 0024 	strb.w	r0, [r4, #36]	@ 0x24
 800587a:	0a00      	lsrs	r0, r0, #8
 800587c:	f884 0025 	strb.w	r0, [r4, #37]	@ 0x25
 8005880:	2000      	movs	r0, #0
 8005882:	e070      	b.n	8005966 <dir_register+0x246>
 8005884:	f108 0801 	add.w	r8, r8, #1
 8005888:	e756      	b.n	8005738 <dir_register+0x18>
 800588a:	4662      	mov	r2, ip
 800588c:	e7d5      	b.n	800583a <dir_register+0x11a>
 800588e:	f104 0744 	add.w	r7, r4, #68	@ 0x44
 8005892:	f10d 0910 	add.w	r9, sp, #16
 8005896:	f01b 0f01 	tst.w	fp, #1
 800589a:	e897 0007 	ldmia.w	r7, {r0, r1, r2}
 800589e:	e889 0007 	stmia.w	r9, {r0, r1, r2}
 80058a2:	f000 80cb 	beq.w	8005a3c <dir_register+0x31c>
 80058a6:	2340      	movs	r3, #64	@ 0x40
 80058a8:	f04f 0a01 	mov.w	sl, #1
 80058ac:	4d7c      	ldr	r5, [pc, #496]	@ (8005aa0 <dir_register+0x380>)
 80058ae:	f884 304f 	strb.w	r3, [r4, #79]	@ 0x4f
 80058b2:	463b      	mov	r3, r7
 80058b4:	f8d6 c00c 	ldr.w	ip, [r6, #12]
 80058b8:	f1ba 0f05 	cmp.w	sl, #5
 80058bc:	e899 0007 	ldmia.w	r9, {r0, r1, r2}
 80058c0:	c303      	stmia	r3!, {r0, r1}
 80058c2:	f823 2b02 	strh.w	r2, [r3], #2
 80058c6:	ea4f 4212 	mov.w	r2, r2, lsr #16
 80058ca:	701a      	strb	r2, [r3, #0]
 80058cc:	d908      	bls.n	80058e0 <dir_register+0x1c0>
 80058ce:	f1ac 0102 	sub.w	r1, ip, #2
 80058d2:	4653      	mov	r3, sl
 80058d4:	f831 2f02 	ldrh.w	r2, [r1, #2]!
 80058d8:	2a00      	cmp	r2, #0
 80058da:	d147      	bne.n	800596c <dir_register+0x24c>
 80058dc:	b29b      	uxth	r3, r3
 80058de:	e001      	b.n	80058e4 <dir_register+0x1c4>
 80058e0:	fa1f f38a 	uxth.w	r3, sl
 80058e4:	4648      	mov	r0, r9
 80058e6:	2207      	movs	r2, #7
 80058e8:	f003 0c0f 	and.w	ip, r3, #15
 80058ec:	469e      	mov	lr, r3
 80058ee:	091b      	lsrs	r3, r3, #4
 80058f0:	f10c 0130 	add.w	r1, ip, #48	@ 0x30
 80058f4:	2939      	cmp	r1, #57	@ 0x39
 80058f6:	bf88      	it	hi
 80058f8:	f10c 0137 	addhi.w	r1, ip, #55	@ 0x37
 80058fc:	3a01      	subs	r2, #1
 80058fe:	f800 1d01 	strb.w	r1, [r0, #-1]!
 8005902:	d002      	beq.n	800590a <dir_register+0x1ea>
 8005904:	f1be 0f0f 	cmp.w	lr, #15
 8005908:	d8ee      	bhi.n	80058e8 <dir_register+0x1c8>
 800590a:	f102 0368 	add.w	r3, r2, #104	@ 0x68
 800590e:	217e      	movs	r1, #126	@ 0x7e
 8005910:	446b      	add	r3, sp
 8005912:	f803 1c60 	strb.w	r1, [r3, #-96]
 8005916:	f104 0143 	add.w	r1, r4, #67	@ 0x43
 800591a:	2300      	movs	r3, #0
 800591c:	4293      	cmp	r3, r2
 800591e:	d005      	beq.n	800592c <dir_register+0x20c>
 8005920:	f811 0f01 	ldrb.w	r0, [r1, #1]!
 8005924:	f103 0c01 	add.w	ip, r3, #1
 8005928:	2820      	cmp	r0, #32
 800592a:	d12c      	bne.n	8005986 <dir_register+0x266>
 800592c:	3343      	adds	r3, #67	@ 0x43
 800592e:	f104 004b 	add.w	r0, r4, #75	@ 0x4b
 8005932:	4423      	add	r3, r4
 8005934:	2a07      	cmp	r2, #7
 8005936:	bf97      	itett	ls
 8005938:	f102 0168 	addls.w	r1, r2, #104	@ 0x68
 800593c:	2120      	movhi	r1, #32
 800593e:	3201      	addls	r2, #1
 8005940:	4469      	addls	r1, sp
 8005942:	bf98      	it	ls
 8005944:	f811 1c60 	ldrbls.w	r1, [r1, #-96]
 8005948:	f803 1f01 	strb.w	r1, [r3, #1]!
 800594c:	4298      	cmp	r0, r3
 800594e:	d1f1      	bne.n	8005934 <dir_register+0x214>
 8005950:	4620      	mov	r0, r4
 8005952:	f7ff fe0d 	bl	8005570 <dir_find>
 8005956:	2800      	cmp	r0, #0
 8005958:	d16c      	bne.n	8005a34 <dir_register+0x314>
 800595a:	f10a 0a01 	add.w	sl, sl, #1
 800595e:	f1ba 0f64 	cmp.w	sl, #100	@ 0x64
 8005962:	d1a6      	bne.n	80058b2 <dir_register+0x192>
 8005964:	2007      	movs	r0, #7
 8005966:	b01b      	add	sp, #108	@ 0x6c
 8005968:	e8bd 8ff0 	ldmia.w	sp!, {r4, r5, r6, r7, r8, r9, sl, fp, pc}
 800596c:	2010      	movs	r0, #16
 800596e:	f002 0c01 	and.w	ip, r2, #1
 8005972:	0852      	lsrs	r2, r2, #1
 8005974:	eb0c 0343 	add.w	r3, ip, r3, lsl #1
 8005978:	f413 3f80 	tst.w	r3, #65536	@ 0x10000
 800597c:	bf18      	it	ne
 800597e:	406b      	eorne	r3, r5
 8005980:	3801      	subs	r0, #1
 8005982:	d1f4      	bne.n	800596e <dir_register+0x24e>
 8005984:	e7a6      	b.n	80058d4 <dir_register+0x1b4>
 8005986:	4663      	mov	r3, ip
 8005988:	e7c8      	b.n	800591c <dir_register+0x1fc>
 800598a:	6b21      	ldr	r1, [r4, #48]	@ 0x30
 800598c:	4620      	mov	r0, r4
 800598e:	eba1 1145 	sub.w	r1, r1, r5, lsl #5
 8005992:	f7fe feb5 	bl	8004700 <dir_sdi>
 8005996:	2800      	cmp	r0, #0
 8005998:	d1e5      	bne.n	8005966 <dir_register+0x246>
 800599a:	f64f 78ff 	movw	r8, #65535	@ 0xffff
 800599e:	4638      	mov	r0, r7
 80059a0:	f7fe fbf8 	bl	8004194 <sum_sfn>
 80059a4:	9001      	str	r0, [sp, #4]
 80059a6:	4630      	mov	r0, r6
 80059a8:	e9d4 230e 	ldrd	r2, r3, [r4, #56]	@ 0x38
 80059ac:	f7fe fd38 	bl	8004420 <move_window>
 80059b0:	4684      	mov	ip, r0
 80059b2:	2800      	cmp	r0, #0
 80059b4:	d1d7      	bne.n	8005966 <dir_register+0x246>
 80059b6:	6c23      	ldr	r3, [r4, #64]	@ 0x40
 80059b8:	b2e9      	uxtb	r1, r5
 80059ba:	9a01      	ldr	r2, [sp, #4]
 80059bc:	f8d6 e00c 	ldr.w	lr, [r6, #12]
 80059c0:	735a      	strb	r2, [r3, #13]
 80059c2:	f04f 020f 	mov.w	r2, #15
 80059c6:	7318      	strb	r0, [r3, #12]
 80059c8:	72da      	strb	r2, [r3, #11]
 80059ca:	1e4a      	subs	r2, r1, #1
 80059cc:	7698      	strb	r0, [r3, #26]
 80059ce:	76d8      	strb	r0, [r3, #27]
 80059d0:	200d      	movs	r0, #13
 80059d2:	f8df a0d0 	ldr.w	sl, [pc, #208]	@ 8005aa4 <dir_register+0x384>
 80059d6:	4342      	muls	r2, r0
 80059d8:	4660      	mov	r0, ip
 80059da:	4540      	cmp	r0, r8
 80059dc:	f81a 9b01 	ldrb.w	r9, [sl], #1
 80059e0:	f10c 0c01 	add.w	ip, ip, #1
 80059e4:	bf18      	it	ne
 80059e6:	f83e 0012 	ldrhne.w	r0, [lr, r2, lsl #1]
 80059ea:	eb03 0b09 	add.w	fp, r3, r9
 80059ee:	bf18      	it	ne
 80059f0:	3201      	addne	r2, #1
 80059f2:	f803 0009 	strb.w	r0, [r3, r9]
 80059f6:	ea4f 2910 	mov.w	r9, r0, lsr #8
 80059fa:	2800      	cmp	r0, #0
 80059fc:	bf08      	it	eq
 80059fe:	4640      	moveq	r0, r8
 8005a00:	f1bc 0f0d 	cmp.w	ip, #13
 8005a04:	f88b 9001 	strb.w	r9, [fp, #1]
 8005a08:	d1e7      	bne.n	80059da <dir_register+0x2ba>
 8005a0a:	4540      	cmp	r0, r8
 8005a0c:	d002      	beq.n	8005a14 <dir_register+0x2f4>
 8005a0e:	f83e 2012 	ldrh.w	r2, [lr, r2, lsl #1]
 8005a12:	b90a      	cbnz	r2, 8005a18 <dir_register+0x2f8>
 8005a14:	f041 0140 	orr.w	r1, r1, #64	@ 0x40
 8005a18:	7019      	strb	r1, [r3, #0]
 8005a1a:	2301      	movs	r3, #1
 8005a1c:	2100      	movs	r1, #0
 8005a1e:	4620      	mov	r0, r4
 8005a20:	7133      	strb	r3, [r6, #4]
 8005a22:	f7ff fbb8 	bl	8005196 <dir_next>
 8005a26:	2800      	cmp	r0, #0
 8005a28:	d19d      	bne.n	8005966 <dir_register+0x246>
 8005a2a:	3d01      	subs	r5, #1
 8005a2c:	d1bb      	bne.n	80059a6 <dir_register+0x286>
 8005a2e:	e018      	b.n	8005a62 <dir_register+0x342>
 8005a30:	2006      	movs	r0, #6
 8005a32:	e798      	b.n	8005966 <dir_register+0x246>
 8005a34:	2804      	cmp	r0, #4
 8005a36:	d196      	bne.n	8005966 <dir_register+0x246>
 8005a38:	f884 b04f 	strb.w	fp, [r4, #79]	@ 0x4f
 8005a3c:	f01b 0f02 	tst.w	fp, #2
 8005a40:	4620      	mov	r0, r4
 8005a42:	bf1b      	ittet	ne
 8005a44:	f108 050c 	addne.w	r5, r8, #12
 8005a48:	230d      	movne	r3, #13
 8005a4a:	2501      	moveq	r5, #1
 8005a4c:	fbb5 f5f3 	udivne	r5, r5, r3
 8005a50:	bf18      	it	ne
 8005a52:	3501      	addne	r5, #1
 8005a54:	4629      	mov	r1, r5
 8005a56:	f7ff fc07 	bl	8005268 <dir_alloc>
 8005a5a:	2800      	cmp	r0, #0
 8005a5c:	d183      	bne.n	8005966 <dir_register+0x246>
 8005a5e:	3d01      	subs	r5, #1
 8005a60:	d193      	bne.n	800598a <dir_register+0x26a>
 8005a62:	4630      	mov	r0, r6
 8005a64:	e9d4 230e 	ldrd	r2, r3, [r4, #56]	@ 0x38
 8005a68:	f7fe fcda 	bl	8004420 <move_window>
 8005a6c:	2800      	cmp	r0, #0
 8005a6e:	f47f af7a 	bne.w	8005966 <dir_register+0x246>
 8005a72:	4601      	mov	r1, r0
 8005a74:	2220      	movs	r2, #32
 8005a76:	6c20      	ldr	r0, [r4, #64]	@ 0x40
 8005a78:	f003 f8a3 	bl	8008bc2 <memset>
 8005a7c:	6c23      	ldr	r3, [r4, #64]	@ 0x40
 8005a7e:	cf03      	ldmia	r7!, {r0, r1}
 8005a80:	6018      	str	r0, [r3, #0]
 8005a82:	6059      	str	r1, [r3, #4]
 8005a84:	78ba      	ldrb	r2, [r7, #2]
 8005a86:	8839      	ldrh	r1, [r7, #0]
 8005a88:	729a      	strb	r2, [r3, #10]
 8005a8a:	8119      	strh	r1, [r3, #8]
 8005a8c:	f894 304f 	ldrb.w	r3, [r4, #79]	@ 0x4f
 8005a90:	6c22      	ldr	r2, [r4, #64]	@ 0x40
 8005a92:	f003 0318 	and.w	r3, r3, #24
 8005a96:	7313      	strb	r3, [r2, #12]
 8005a98:	2301      	movs	r3, #1
 8005a9a:	7133      	strb	r3, [r6, #4]
 8005a9c:	e6f0      	b.n	8005880 <dir_register+0x160>
 8005a9e:	bf00      	nop
 8005aa0:	00011021 	.word	0x00011021
 8005aa4:	080090e6 	.word	0x080090e6

08005aa8 <ld_clust.isra.0>:
 8005aa8:	2803      	cmp	r0, #3
 8005aaa:	8b4b      	ldrh	r3, [r1, #26]
 8005aac:	bf04      	itt	eq
 8005aae:	8a8a      	ldrheq	r2, [r1, #20]
 8005ab0:	ea43 4302 	orreq.w	r3, r3, r2, lsl #16
 8005ab4:	4618      	mov	r0, r3
 8005ab6:	4770      	bx	lr

08005ab8 <follow_path>:
 8005ab8:	e92d 4ff0 	stmdb	sp!, {r4, r5, r6, r7, r8, r9, sl, fp, lr}
 8005abc:	6803      	ldr	r3, [r0, #0]
 8005abe:	b085      	sub	sp, #20
 8005ac0:	4606      	mov	r6, r0
 8005ac2:	9301      	str	r3, [sp, #4]
 8005ac4:	468a      	mov	sl, r1
 8005ac6:	f811 3b01 	ldrb.w	r3, [r1], #1
 8005aca:	2b2f      	cmp	r3, #47	@ 0x2f
 8005acc:	d0fa      	beq.n	8005ac4 <follow_path+0xc>
 8005ace:	2b5c      	cmp	r3, #92	@ 0x5c
 8005ad0:	d0f8      	beq.n	8005ac4 <follow_path+0xc>
 8005ad2:	2300      	movs	r3, #0
 8005ad4:	60b3      	str	r3, [r6, #8]
 8005ad6:	61f3      	str	r3, [r6, #28]
 8005ad8:	f89a 3000 	ldrb.w	r3, [sl]
 8005adc:	2b1f      	cmp	r3, #31
 8005ade:	f200 80b2 	bhi.w	8005c46 <follow_path+0x18e>
 8005ae2:	2380      	movs	r3, #128	@ 0x80
 8005ae4:	2100      	movs	r1, #0
 8005ae6:	4630      	mov	r0, r6
 8005ae8:	f886 304f 	strb.w	r3, [r6, #79]	@ 0x4f
 8005aec:	b005      	add	sp, #20
 8005aee:	e8bd 4ff0 	ldmia.w	sp!, {r4, r5, r6, r7, r8, r9, sl, fp, lr}
 8005af2:	f7fe be05 	b.w	8004700 <dir_sdi>
 8005af6:	282f      	cmp	r0, #47	@ 0x2f
 8005af8:	f000 8133 	beq.w	8005d62 <follow_path+0x2aa>
 8005afc:	285c      	cmp	r0, #92	@ 0x5c
 8005afe:	f000 8130 	beq.w	8005d62 <follow_path+0x2aa>
 8005b02:	287f      	cmp	r0, #127	@ 0x7f
 8005b04:	d806      	bhi.n	8005b14 <follow_path+0x5c>
 8005b06:	4601      	mov	r1, r0
 8005b08:	489d      	ldr	r0, [pc, #628]	@ (8005d80 <follow_path+0x2c8>)
 8005b0a:	f003 f862 	bl	8008bd2 <strchr>
 8005b0e:	2800      	cmp	r0, #0
 8005b10:	f040 80ef 	bne.w	8005cf2 <follow_path+0x23a>
 8005b14:	2fff      	cmp	r7, #255	@ 0xff
 8005b16:	f000 80ec 	beq.w	8005cf2 <follow_path+0x23a>
 8005b1a:	f82b 4017 	strh.w	r4, [fp, r7, lsl #1]
 8005b1e:	3701      	adds	r7, #1
 8005b20:	e095      	b.n	8005c4e <follow_path+0x196>
 8005b22:	f833 2d02 	ldrh.w	r2, [r3, #-2]!
 8005b26:	2a20      	cmp	r2, #32
 8005b28:	d002      	beq.n	8005b30 <follow_path+0x78>
 8005b2a:	2a2e      	cmp	r2, #46	@ 0x2e
 8005b2c:	f040 80a2 	bne.w	8005c74 <follow_path+0x1bc>
 8005b30:	3f01      	subs	r7, #1
 8005b32:	e09c      	b.n	8005c6e <follow_path+0x1b6>
 8005b34:	4599      	cmp	r9, r3
 8005b36:	f080 80e3 	bcs.w	8005d00 <follow_path+0x248>
 8005b3a:	42ba      	cmp	r2, r7
 8005b3c:	d112      	bne.n	8005b64 <follow_path+0xac>
 8005b3e:	2b0b      	cmp	r3, #11
 8005b40:	d107      	bne.n	8005b52 <follow_path+0x9a>
 8005b42:	e0e0      	b.n	8005d06 <follow_path+0x24e>
 8005b44:	42ba      	cmp	r2, r7
 8005b46:	d004      	beq.n	8005b52 <follow_path+0x9a>
 8005b48:	f044 0403 	orr.w	r4, r4, #3
 8005b4c:	b2e4      	uxtb	r4, r4
 8005b4e:	f200 80de 	bhi.w	8005d0e <follow_path+0x256>
 8005b52:	ea4f 0888 	mov.w	r8, r8, lsl #2
 8005b56:	463a      	mov	r2, r7
 8005b58:	230b      	movs	r3, #11
 8005b5a:	f04f 0908 	mov.w	r9, #8
 8005b5e:	fa5f f888 	uxtb.w	r8, r8
 8005b62:	e0b9      	b.n	8005cd8 <follow_path+0x220>
 8005b64:	2d7f      	cmp	r5, #127	@ 0x7f
 8005b66:	d93e      	bls.n	8005be6 <follow_path+0x12e>
 8005b68:	f044 0102 	orr.w	r1, r4, #2
 8005b6c:	4628      	mov	r0, r5
 8005b6e:	e9cd 2302 	strd	r2, r3, [sp, #8]
 8005b72:	b2cb      	uxtb	r3, r1
 8005b74:	f240 11b5 	movw	r1, #437	@ 0x1b5
 8005b78:	9300      	str	r3, [sp, #0]
 8005b7a:	f000 fe75 	bl	8006868 <ff_uni2oem>
 8005b7e:	f010 0f80 	tst.w	r0, #128	@ 0x80
 8005b82:	4605      	mov	r5, r0
 8005b84:	e9dd 2302 	ldrd	r2, r3, [sp, #8]
 8005b88:	d014      	beq.n	8005bb4 <follow_path+0xfc>
 8005b8a:	f000 057f 	and.w	r5, r0, #127	@ 0x7f
 8005b8e:	497d      	ldr	r1, [pc, #500]	@ (8005d84 <follow_path+0x2cc>)
 8005b90:	5d4d      	ldrb	r5, [r1, r5]
 8005b92:	b145      	cbz	r5, 8005ba6 <follow_path+0xee>
 8005b94:	4629      	mov	r1, r5
 8005b96:	487c      	ldr	r0, [pc, #496]	@ (8005d88 <follow_path+0x2d0>)
 8005b98:	e9cd 2302 	strd	r2, r3, [sp, #8]
 8005b9c:	f003 f819 	bl	8008bd2 <strchr>
 8005ba0:	e9dd 2302 	ldrd	r2, r3, [sp, #8]
 8005ba4:	b308      	cbz	r0, 8005bea <follow_path+0x132>
 8005ba6:	9900      	ldr	r1, [sp, #0]
 8005ba8:	255f      	movs	r5, #95	@ 0x5f
 8005baa:	f041 0103 	orr.w	r1, r1, #3
 8005bae:	b2c9      	uxtb	r1, r1
 8005bb0:	9100      	str	r1, [sp, #0]
 8005bb2:	e010      	b.n	8005bd6 <follow_path+0x11e>
 8005bb4:	28ff      	cmp	r0, #255	@ 0xff
 8005bb6:	d9ec      	bls.n	8005b92 <follow_path+0xda>
 8005bb8:	1e59      	subs	r1, r3, #1
 8005bba:	4589      	cmp	r9, r1
 8005bbc:	d304      	bcc.n	8005bc8 <follow_path+0x110>
 8005bbe:	f044 0403 	orr.w	r4, r4, #3
 8005bc2:	4699      	mov	r9, r3
 8005bc4:	b2e4      	uxtb	r4, r4
 8005bc6:	e087      	b.n	8005cd8 <follow_path+0x220>
 8005bc8:	eb06 0109 	add.w	r1, r6, r9
 8005bcc:	0a00      	lsrs	r0, r0, #8
 8005bce:	f109 0901 	add.w	r9, r9, #1
 8005bd2:	f881 0044 	strb.w	r0, [r1, #68]	@ 0x44
 8005bd6:	eb06 0109 	add.w	r1, r6, r9
 8005bda:	9c00      	ldr	r4, [sp, #0]
 8005bdc:	f109 0901 	add.w	r9, r9, #1
 8005be0:	f881 5044 	strb.w	r5, [r1, #68]	@ 0x44
 8005be4:	e078      	b.n	8005cd8 <follow_path+0x220>
 8005be6:	9400      	str	r4, [sp, #0]
 8005be8:	e7d4      	b.n	8005b94 <follow_path+0xdc>
 8005bea:	f1a5 0141 	sub.w	r1, r5, #65	@ 0x41
 8005bee:	b289      	uxth	r1, r1
 8005bf0:	2919      	cmp	r1, #25
 8005bf2:	d802      	bhi.n	8005bfa <follow_path+0x142>
 8005bf4:	f048 0802 	orr.w	r8, r8, #2
 8005bf8:	e7ed      	b.n	8005bd6 <follow_path+0x11e>
 8005bfa:	f1a5 0161 	sub.w	r1, r5, #97	@ 0x61
 8005bfe:	b289      	uxth	r1, r1
 8005c00:	2919      	cmp	r1, #25
 8005c02:	bf9e      	ittt	ls
 8005c04:	3d20      	subls	r5, #32
 8005c06:	f048 0801 	orrls.w	r8, r8, #1
 8005c0a:	b2ad      	uxthls	r5, r5
 8005c0c:	e7e3      	b.n	8005bd6 <follow_path+0x11e>
 8005c0e:	07a1      	lsls	r1, r4, #30
 8005c10:	f100 8096 	bmi.w	8005d40 <follow_path+0x288>
 8005c14:	f008 0301 	and.w	r3, r8, #1
 8005c18:	f018 0f04 	tst.w	r8, #4
 8005c1c:	ea44 1303 	orr.w	r3, r4, r3, lsl #4
 8005c20:	b2dc      	uxtb	r4, r3
 8005c22:	bf18      	it	ne
 8005c24:	f044 0408 	orrne.w	r4, r4, #8
 8005c28:	e08a      	b.n	8005d40 <follow_path+0x288>
 8005c2a:	0762      	lsls	r2, r4, #29
 8005c2c:	f100 8096 	bmi.w	8005d5c <follow_path+0x2a4>
 8005c30:	79b3      	ldrb	r3, [r6, #6]
 8005c32:	06db      	lsls	r3, r3, #27
 8005c34:	d55f      	bpl.n	8005cf6 <follow_path+0x23e>
 8005c36:	9b01      	ldr	r3, [sp, #4]
 8005c38:	7818      	ldrb	r0, [r3, #0]
 8005c3a:	2804      	cmp	r0, #4
 8005c3c:	d14e      	bne.n	8005cdc <follow_path+0x224>
 8005c3e:	4631      	mov	r1, r6
 8005c40:	4630      	mov	r0, r6
 8005c42:	f7fe facc 	bl	80041de <init_alloc_info>
 8005c46:	6833      	ldr	r3, [r6, #0]
 8005c48:	2700      	movs	r7, #0
 8005c4a:	f8d3 b00c 	ldr.w	fp, [r3, #12]
 8005c4e:	f81a 0b01 	ldrb.w	r0, [sl], #1
 8005c52:	b148      	cbz	r0, 8005c68 <follow_path+0x1b0>
 8005c54:	f240 11b5 	movw	r1, #437	@ 0x1b5
 8005c58:	f000 fe24 	bl	80068a4 <ff_oem2uni>
 8005c5c:	4604      	mov	r4, r0
 8005c5e:	2800      	cmp	r0, #0
 8005c60:	d047      	beq.n	8005cf2 <follow_path+0x23a>
 8005c62:	281f      	cmp	r0, #31
 8005c64:	f63f af47 	bhi.w	8005af6 <follow_path+0x3e>
 8005c68:	2404      	movs	r4, #4
 8005c6a:	eb0b 0347 	add.w	r3, fp, r7, lsl #1
 8005c6e:	2f00      	cmp	r7, #0
 8005c70:	f47f af57 	bne.w	8005b22 <follow_path+0x6a>
 8005c74:	f04f 0200 	mov.w	r2, #0
 8005c78:	eb0b 0347 	add.w	r3, fp, r7, lsl #1
 8005c7c:	f82b 2017 	strh.w	r2, [fp, r7, lsl #1]
 8005c80:	b3bf      	cbz	r7, 8005cf2 <follow_path+0x23a>
 8005c82:	2200      	movs	r2, #0
 8005c84:	f83b 0012 	ldrh.w	r0, [fp, r2, lsl #1]
 8005c88:	4611      	mov	r1, r2
 8005c8a:	3201      	adds	r2, #1
 8005c8c:	2820      	cmp	r0, #32
 8005c8e:	d0f9      	beq.n	8005c84 <follow_path+0x1cc>
 8005c90:	b909      	cbnz	r1, 8005c96 <follow_path+0x1de>
 8005c92:	282e      	cmp	r0, #46	@ 0x2e
 8005c94:	d102      	bne.n	8005c9c <follow_path+0x1e4>
 8005c96:	f044 0403 	orr.w	r4, r4, #3
 8005c9a:	b2e4      	uxtb	r4, r4
 8005c9c:	f833 2d02 	ldrh.w	r2, [r3, #-2]!
 8005ca0:	2a2e      	cmp	r2, #46	@ 0x2e
 8005ca2:	d001      	beq.n	8005ca8 <follow_path+0x1f0>
 8005ca4:	3f01      	subs	r7, #1
 8005ca6:	d1f9      	bne.n	8005c9c <follow_path+0x1e4>
 8005ca8:	f04f 3320 	mov.w	r3, #538976288	@ 0x20202020
 8005cac:	f04f 0900 	mov.w	r9, #0
 8005cb0:	64b3      	str	r3, [r6, #72]	@ 0x48
 8005cb2:	46c8      	mov	r8, r9
 8005cb4:	6473      	str	r3, [r6, #68]	@ 0x44
 8005cb6:	f8c6 304b 	str.w	r3, [r6, #75]	@ 0x4b
 8005cba:	2308      	movs	r3, #8
 8005cbc:	f83b 5011 	ldrh.w	r5, [fp, r1, lsl #1]
 8005cc0:	1c4a      	adds	r2, r1, #1
 8005cc2:	b325      	cbz	r5, 8005d0e <follow_path+0x256>
 8005cc4:	2d20      	cmp	r5, #32
 8005cc6:	d004      	beq.n	8005cd2 <follow_path+0x21a>
 8005cc8:	2d2e      	cmp	r5, #46	@ 0x2e
 8005cca:	f47f af33 	bne.w	8005b34 <follow_path+0x7c>
 8005cce:	42ba      	cmp	r2, r7
 8005cd0:	d013      	beq.n	8005cfa <follow_path+0x242>
 8005cd2:	f044 0403 	orr.w	r4, r4, #3
 8005cd6:	b2e4      	uxtb	r4, r4
 8005cd8:	4611      	mov	r1, r2
 8005cda:	e7ef      	b.n	8005cbc <follow_path+0x204>
 8005cdc:	9b01      	ldr	r3, [sp, #4]
 8005cde:	f103 0154 	add.w	r1, r3, #84	@ 0x54
 8005ce2:	6b33      	ldr	r3, [r6, #48]	@ 0x30
 8005ce4:	f3c3 0308 	ubfx	r3, r3, #0, #9
 8005ce8:	4419      	add	r1, r3
 8005cea:	f7ff fedd 	bl	8005aa8 <ld_clust.isra.0>
 8005cee:	60b0      	str	r0, [r6, #8]
 8005cf0:	e7a9      	b.n	8005c46 <follow_path+0x18e>
 8005cf2:	2006      	movs	r0, #6
 8005cf4:	e032      	b.n	8005d5c <follow_path+0x2a4>
 8005cf6:	2005      	movs	r0, #5
 8005cf8:	e030      	b.n	8005d5c <follow_path+0x2a4>
 8005cfa:	4599      	cmp	r9, r3
 8005cfc:	f4ff af1f 	bcc.w	8005b3e <follow_path+0x86>
 8005d00:	2b0b      	cmp	r3, #11
 8005d02:	f47f af1f 	bne.w	8005b44 <follow_path+0x8c>
 8005d06:	f044 0403 	orr.w	r4, r4, #3
 8005d0a:	230b      	movs	r3, #11
 8005d0c:	b2e4      	uxtb	r4, r4
 8005d0e:	f896 2044 	ldrb.w	r2, [r6, #68]	@ 0x44
 8005d12:	2ae5      	cmp	r2, #229	@ 0xe5
 8005d14:	bf04      	itt	eq
 8005d16:	2205      	moveq	r2, #5
 8005d18:	f886 2044 	strbeq.w	r2, [r6, #68]	@ 0x44
 8005d1c:	2b08      	cmp	r3, #8
 8005d1e:	bf04      	itt	eq
 8005d20:	ea4f 0888 	moveq.w	r8, r8, lsl #2
 8005d24:	fa5f f888 	uxtbeq.w	r8, r8
 8005d28:	f008 030c 	and.w	r3, r8, #12
 8005d2c:	2b0c      	cmp	r3, #12
 8005d2e:	d004      	beq.n	8005d3a <follow_path+0x282>
 8005d30:	f008 0303 	and.w	r3, r8, #3
 8005d34:	2b03      	cmp	r3, #3
 8005d36:	f47f af6a 	bne.w	8005c0e <follow_path+0x156>
 8005d3a:	f044 0402 	orr.w	r4, r4, #2
 8005d3e:	b2e4      	uxtb	r4, r4
 8005d40:	4630      	mov	r0, r6
 8005d42:	f886 404f 	strb.w	r4, [r6, #79]	@ 0x4f
 8005d46:	f7ff fc13 	bl	8005570 <dir_find>
 8005d4a:	2800      	cmp	r0, #0
 8005d4c:	f43f af6d 	beq.w	8005c2a <follow_path+0x172>
 8005d50:	2804      	cmp	r0, #4
 8005d52:	d103      	bne.n	8005d5c <follow_path+0x2a4>
 8005d54:	f014 0f04 	tst.w	r4, #4
 8005d58:	bf08      	it	eq
 8005d5a:	2005      	moveq	r0, #5
 8005d5c:	b005      	add	sp, #20
 8005d5e:	e8bd 8ff0 	ldmia.w	sp!, {r4, r5, r6, r7, r8, r9, sl, fp, pc}
 8005d62:	4653      	mov	r3, sl
 8005d64:	781c      	ldrb	r4, [r3, #0]
 8005d66:	469a      	mov	sl, r3
 8005d68:	3301      	adds	r3, #1
 8005d6a:	2c2f      	cmp	r4, #47	@ 0x2f
 8005d6c:	d0fa      	beq.n	8005d64 <follow_path+0x2ac>
 8005d6e:	2c5c      	cmp	r4, #92	@ 0x5c
 8005d70:	d0f8      	beq.n	8005d64 <follow_path+0x2ac>
 8005d72:	2c1f      	cmp	r4, #31
 8005d74:	bf8c      	ite	hi
 8005d76:	2400      	movhi	r4, #0
 8005d78:	2401      	movls	r4, #1
 8005d7a:	00a4      	lsls	r4, r4, #2
 8005d7c:	e775      	b.n	8005c6a <follow_path+0x1b2>
 8005d7e:	bf00      	nop
 8005d80:	0800901e 	.word	0x0800901e
 8005d84:	08009066 	.word	0x08009066
 8005d88:	08009027 	.word	0x08009027

08005d8c <f_mount>:
 8005d8c:	b51f      	push	{r0, r1, r2, r3, r4, lr}
 8005d8e:	e9cd 1000 	strd	r1, r0, [sp]
 8005d92:	a803      	add	r0, sp, #12
 8005d94:	4614      	mov	r4, r2
 8005d96:	9103      	str	r1, [sp, #12]
 8005d98:	f7fe fa43 	bl	8004222 <get_ldnumber>
 8005d9c:	3001      	adds	r0, #1
 8005d9e:	d014      	beq.n	8005dca <f_mount+0x3e>
 8005da0:	4b0b      	ldr	r3, [pc, #44]	@ (8005dd0 <f_mount+0x44>)
 8005da2:	681a      	ldr	r2, [r3, #0]
 8005da4:	b112      	cbz	r2, 8005dac <f_mount+0x20>
 8005da6:	2100      	movs	r1, #0
 8005da8:	6019      	str	r1, [r3, #0]
 8005daa:	7011      	strb	r1, [r2, #0]
 8005dac:	9a01      	ldr	r2, [sp, #4]
 8005dae:	b112      	cbz	r2, 8005db6 <f_mount+0x2a>
 8005db0:	2100      	movs	r1, #0
 8005db2:	601a      	str	r2, [r3, #0]
 8005db4:	8011      	strh	r1, [r2, #0]
 8005db6:	b12c      	cbz	r4, 8005dc4 <f_mount+0x38>
 8005db8:	2200      	movs	r2, #0
 8005dba:	a901      	add	r1, sp, #4
 8005dbc:	4668      	mov	r0, sp
 8005dbe:	f7fe fe63 	bl	8004a88 <mount_volume>
 8005dc2:	4604      	mov	r4, r0
 8005dc4:	4620      	mov	r0, r4
 8005dc6:	b004      	add	sp, #16
 8005dc8:	bd10      	pop	{r4, pc}
 8005dca:	240b      	movs	r4, #11
 8005dcc:	e7fa      	b.n	8005dc4 <f_mount+0x38>
 8005dce:	bf00      	nop
 8005dd0:	24001b30 	.word	0x24001b30

08005dd4 <f_open>:
 8005dd4:	e92d 4ff0 	stmdb	sp!, {r4, r5, r6, r7, r8, r9, sl, fp, lr}
 8005dd8:	b09d      	sub	sp, #116	@ 0x74
 8005dda:	4616      	mov	r6, r2
 8005ddc:	4604      	mov	r4, r0
 8005dde:	9103      	str	r1, [sp, #12]
 8005de0:	2800      	cmp	r0, #0
 8005de2:	f000 8136 	beq.w	8006052 <f_open+0x27e>
 8005de6:	f002 093f 	and.w	r9, r2, #63	@ 0x3f
 8005dea:	a905      	add	r1, sp, #20
 8005dec:	a803      	add	r0, sp, #12
 8005dee:	464a      	mov	r2, r9
 8005df0:	f7fe fe4a 	bl	8004a88 <mount_volume>
 8005df4:	4680      	mov	r8, r0
 8005df6:	2800      	cmp	r0, #0
 8005df8:	f040 80b7 	bne.w	8005f6a <f_open+0x196>
 8005dfc:	9d05      	ldr	r5, [sp, #20]
 8005dfe:	a806      	add	r0, sp, #24
 8005e00:	9903      	ldr	r1, [sp, #12]
 8005e02:	6025      	str	r5, [r4, #0]
 8005e04:	9506      	str	r5, [sp, #24]
 8005e06:	f7ff fe57 	bl	8005ab8 <follow_path>
 8005e0a:	b920      	cbnz	r0, 8005e16 <f_open+0x42>
 8005e0c:	f99d 3067 	ldrsb.w	r3, [sp, #103]	@ 0x67
 8005e10:	2b00      	cmp	r3, #0
 8005e12:	bfb8      	it	lt
 8005e14:	2006      	movlt	r0, #6
 8005e16:	f016 0f1c 	tst.w	r6, #28
 8005e1a:	f000 80ea 	beq.w	8005ff2 <f_open+0x21e>
 8005e1e:	2800      	cmp	r0, #0
 8005e20:	d044      	beq.n	8005eac <f_open+0xd8>
 8005e22:	2804      	cmp	r0, #4
 8005e24:	f040 80a1 	bne.w	8005f6a <f_open+0x196>
 8005e28:	a806      	add	r0, sp, #24
 8005e2a:	f7ff fc79 	bl	8005720 <dir_register>
 8005e2e:	2800      	cmp	r0, #0
 8005e30:	f040 809b 	bne.w	8005f6a <f_open+0x196>
 8005e34:	f049 0908 	orr.w	r9, r9, #8
 8005e38:	782b      	ldrb	r3, [r5, #0]
 8005e3a:	2b04      	cmp	r3, #4
 8005e3c:	f040 809c 	bne.w	8005f78 <f_open+0x1a4>
 8005e40:	2100      	movs	r1, #0
 8005e42:	4620      	mov	r0, r4
 8005e44:	f7fe f9cb 	bl	80041de <init_alloc_info>
 8005e48:	6d28      	ldr	r0, [r5, #80]	@ 0x50
 8005e4a:	221e      	movs	r2, #30
 8005e4c:	2100      	movs	r1, #0
 8005e4e:	3002      	adds	r0, #2
 8005e50:	f002 feb7 	bl	8008bc2 <memset>
 8005e54:	6d28      	ldr	r0, [r5, #80]	@ 0x50
 8005e56:	221a      	movs	r2, #26
 8005e58:	2100      	movs	r1, #0
 8005e5a:	3026      	adds	r0, #38	@ 0x26
 8005e5c:	f002 feb1 	bl	8008bc2 <memset>
 8005e60:	6d2b      	ldr	r3, [r5, #80]	@ 0x50
 8005e62:	2220      	movs	r2, #32
 8005e64:	2101      	movs	r1, #1
 8005e66:	205b      	movs	r0, #91	@ 0x5b
 8005e68:	711a      	strb	r2, [r3, #4]
 8005e6a:	2200      	movs	r2, #0
 8005e6c:	6d2b      	ldr	r3, [r5, #80]	@ 0x50
 8005e6e:	72d8      	strb	r0, [r3, #11]
 8005e70:	721a      	strb	r2, [r3, #8]
 8005e72:	725a      	strb	r2, [r3, #9]
 8005e74:	7299      	strb	r1, [r3, #10]
 8005e76:	6d2b      	ldr	r3, [r5, #80]	@ 0x50
 8005e78:	73d8      	strb	r0, [r3, #15]
 8005e7a:	a806      	add	r0, sp, #24
 8005e7c:	731a      	strb	r2, [r3, #12]
 8005e7e:	735a      	strb	r2, [r3, #13]
 8005e80:	7399      	strb	r1, [r3, #14]
 8005e82:	6d2b      	ldr	r3, [r5, #80]	@ 0x50
 8005e84:	f883 1021 	strb.w	r1, [r3, #33]	@ 0x21
 8005e88:	f7ff fab8 	bl	80053fc <store_xdir>
 8005e8c:	2800      	cmp	r0, #0
 8005e8e:	d16c      	bne.n	8005f6a <f_open+0x196>
 8005e90:	68a1      	ldr	r1, [r4, #8]
 8005e92:	b141      	cbz	r1, 8005ea6 <f_open+0xd2>
 8005e94:	4602      	mov	r2, r0
 8005e96:	4620      	mov	r0, r4
 8005e98:	f7fe fd42 	bl	8004920 <remove_chain>
 8005e9c:	68a3      	ldr	r3, [r4, #8]
 8005e9e:	3b01      	subs	r3, #1
 8005ea0:	612b      	str	r3, [r5, #16]
 8005ea2:	2800      	cmp	r0, #0
 8005ea4:	d161      	bne.n	8005f6a <f_open+0x196>
 8005ea6:	f049 0940 	orr.w	r9, r9, #64	@ 0x40
 8005eaa:	e00a      	b.n	8005ec2 <f_open+0xee>
 8005eac:	0777      	lsls	r7, r6, #29
 8005eae:	f100 80ca 	bmi.w	8006046 <f_open+0x272>
 8005eb2:	f89d 301e 	ldrb.w	r3, [sp, #30]
 8005eb6:	f013 0f11 	tst.w	r3, #17
 8005eba:	f040 80a6 	bne.w	800600a <f_open+0x236>
 8005ebe:	0736      	lsls	r6, r6, #28
 8005ec0:	d4ba      	bmi.n	8005e38 <f_open+0x64>
 8005ec2:	9916      	ldr	r1, [sp, #88]	@ 0x58
 8005ec4:	e9d5 2308 	ldrd	r2, r3, [r5, #32]
 8005ec8:	65a1      	str	r1, [r4, #88]	@ 0x58
 8005eca:	e9c4 2314 	strd	r2, r3, [r4, #80]	@ 0x50
 8005ece:	7828      	ldrb	r0, [r5, #0]
 8005ed0:	2804      	cmp	r0, #4
 8005ed2:	f040 809c 	bne.w	800600e <f_open+0x23a>
 8005ed6:	a906      	add	r1, sp, #24
 8005ed8:	4620      	mov	r0, r4
 8005eda:	f7fe f980 	bl	80041de <init_alloc_info>
 8005ede:	88eb      	ldrh	r3, [r5, #6]
 8005ee0:	2200      	movs	r2, #0
 8005ee2:	f04f 0a00 	mov.w	sl, #0
 8005ee6:	f104 075c 	add.w	r7, r4, #92	@ 0x5c
 8005eea:	80a3      	strh	r3, [r4, #4]
 8005eec:	2300      	movs	r3, #0
 8005eee:	4651      	mov	r1, sl
 8005ef0:	4638      	mov	r0, r7
 8005ef2:	f884 9030 	strb.w	r9, [r4, #48]	@ 0x30
 8005ef6:	f884 a031 	strb.w	sl, [r4, #49]	@ 0x31
 8005efa:	e9c4 2312 	strd	r2, r3, [r4, #72]	@ 0x48
 8005efe:	e9c4 230e 	strd	r2, r3, [r4, #56]	@ 0x38
 8005f02:	f44f 7200 	mov.w	r2, #512	@ 0x200
 8005f06:	f002 fe5c 	bl	8008bc2 <memset>
 8005f0a:	f019 0f20 	tst.w	r9, #32
 8005f0e:	d02f      	beq.n	8005f70 <f_open+0x19c>
 8005f10:	e9d4 6904 	ldrd	r6, r9, [r4, #16]
 8005f14:	ea56 0309 	orrs.w	r3, r6, r9
 8005f18:	d02a      	beq.n	8005f70 <f_open+0x19c>
 8005f1a:	f8b5 b00a 	ldrh.w	fp, [r5, #10]
 8005f1e:	68a1      	ldr	r1, [r4, #8]
 8005f20:	ea4f 2b4b 	mov.w	fp, fp, lsl #9
 8005f24:	e9c4 690e 	strd	r6, r9, [r4, #56]	@ 0x38
 8005f28:	45b3      	cmp	fp, r6
 8005f2a:	eb7a 0309 	sbcs.w	r3, sl, r9
 8005f2e:	d379      	bcc.n	8006024 <f_open+0x250>
 8005f30:	2000      	movs	r0, #0
 8005f32:	6421      	str	r1, [r4, #64]	@ 0x40
 8005f34:	b9c8      	cbnz	r0, 8005f6a <f_open+0x196>
 8005f36:	f3c6 0308 	ubfx	r3, r6, #0, #9
 8005f3a:	b1cb      	cbz	r3, 8005f70 <f_open+0x19c>
 8005f3c:	4628      	mov	r0, r5
 8005f3e:	f7fe f919 	bl	8004174 <clst2sect>
 8005f42:	ea50 0301 	orrs.w	r3, r0, r1
 8005f46:	f000 8082 	beq.w	800604e <f_open+0x27a>
 8005f4a:	0a76      	lsrs	r6, r6, #9
 8005f4c:	ea46 56c9 	orr.w	r6, r6, r9, lsl #23
 8005f50:	1832      	adds	r2, r6, r0
 8005f52:	f141 0300 	adc.w	r3, r1, #0
 8005f56:	4639      	mov	r1, r7
 8005f58:	e9c4 2312 	strd	r2, r3, [r4, #72]	@ 0x48
 8005f5c:	7868      	ldrb	r0, [r5, #1]
 8005f5e:	2501      	movs	r5, #1
 8005f60:	9500      	str	r5, [sp, #0]
 8005f62:	f7fa ff9f 	bl	8000ea4 <disk_read>
 8005f66:	b118      	cbz	r0, 8005f70 <f_open+0x19c>
 8005f68:	4628      	mov	r0, r5
 8005f6a:	2300      	movs	r3, #0
 8005f6c:	4680      	mov	r8, r0
 8005f6e:	6023      	str	r3, [r4, #0]
 8005f70:	4640      	mov	r0, r8
 8005f72:	b01d      	add	sp, #116	@ 0x74
 8005f74:	e8bd 8ff0 	ldmia.w	sp!, {r4, r5, r6, r7, r8, r9, sl, fp, pc}
 8005f78:	9b16      	ldr	r3, [sp, #88]	@ 0x58
 8005f7a:	f04f 0b00 	mov.w	fp, #0
 8005f7e:	225b      	movs	r2, #91	@ 0x5b
 8005f80:	2601      	movs	r6, #1
 8005f82:	f883 b00e 	strb.w	fp, [r3, #14]
 8005f86:	745a      	strb	r2, [r3, #17]
 8005f88:	f883 b00f 	strb.w	fp, [r3, #15]
 8005f8c:	741e      	strb	r6, [r3, #16]
 8005f8e:	9b16      	ldr	r3, [sp, #88]	@ 0x58
 8005f90:	765a      	strb	r2, [r3, #25]
 8005f92:	f883 b016 	strb.w	fp, [r3, #22]
 8005f96:	f883 b017 	strb.w	fp, [r3, #23]
 8005f9a:	761e      	strb	r6, [r3, #24]
 8005f9c:	9916      	ldr	r1, [sp, #88]	@ 0x58
 8005f9e:	7828      	ldrb	r0, [r5, #0]
 8005fa0:	f7ff fd82 	bl	8005aa8 <ld_clust.isra.0>
 8005fa4:	2320      	movs	r3, #32
 8005fa6:	4682      	mov	sl, r0
 8005fa8:	465a      	mov	r2, fp
 8005faa:	72cb      	strb	r3, [r1, #11]
 8005fac:	4628      	mov	r0, r5
 8005fae:	9916      	ldr	r1, [sp, #88]	@ 0x58
 8005fb0:	f7fe fa2a 	bl	8004408 <st_clust>
 8005fb4:	9b16      	ldr	r3, [sp, #88]	@ 0x58
 8005fb6:	f883 b01c 	strb.w	fp, [r3, #28]
 8005fba:	f883 b01d 	strb.w	fp, [r3, #29]
 8005fbe:	f883 b01e 	strb.w	fp, [r3, #30]
 8005fc2:	f883 b01f 	strb.w	fp, [r3, #31]
 8005fc6:	712e      	strb	r6, [r5, #4]
 8005fc8:	f1ba 0f00 	cmp.w	sl, #0
 8005fcc:	f43f af6b 	beq.w	8005ea6 <f_open+0xd2>
 8005fd0:	465a      	mov	r2, fp
 8005fd2:	4651      	mov	r1, sl
 8005fd4:	a806      	add	r0, sp, #24
 8005fd6:	e9d5 6708 	ldrd	r6, r7, [r5, #32]
 8005fda:	f7fe fca1 	bl	8004920 <remove_chain>
 8005fde:	2800      	cmp	r0, #0
 8005fe0:	d1c3      	bne.n	8005f6a <f_open+0x196>
 8005fe2:	463b      	mov	r3, r7
 8005fe4:	4632      	mov	r2, r6
 8005fe6:	4628      	mov	r0, r5
 8005fe8:	f7fe fa1a 	bl	8004420 <move_window>
 8005fec:	f10a 33ff 	add.w	r3, sl, #4294967295
 8005ff0:	e756      	b.n	8005ea0 <f_open+0xcc>
 8005ff2:	2800      	cmp	r0, #0
 8005ff4:	d1b9      	bne.n	8005f6a <f_open+0x196>
 8005ff6:	f89d 301e 	ldrb.w	r3, [sp, #30]
 8005ffa:	06d8      	lsls	r0, r3, #27
 8005ffc:	d425      	bmi.n	800604a <f_open+0x276>
 8005ffe:	07b1      	lsls	r1, r6, #30
 8006000:	f57f af5f 	bpl.w	8005ec2 <f_open+0xee>
 8006004:	07da      	lsls	r2, r3, #31
 8006006:	f57f af5c 	bpl.w	8005ec2 <f_open+0xee>
 800600a:	2007      	movs	r0, #7
 800600c:	e7ad      	b.n	8005f6a <f_open+0x196>
 800600e:	f7ff fd4b 	bl	8005aa8 <ld_clust.isra.0>
 8006012:	2300      	movs	r3, #0
 8006014:	60a0      	str	r0, [r4, #8]
 8006016:	f101 001c 	add.w	r0, r1, #28
 800601a:	f7fe f88e 	bl	800413a <ld_32>
 800601e:	6163      	str	r3, [r4, #20]
 8006020:	6120      	str	r0, [r4, #16]
 8006022:	e75c      	b.n	8005ede <f_open+0x10a>
 8006024:	4620      	mov	r0, r4
 8006026:	f7fe fac3 	bl	80045b0 <get_fat>
 800602a:	ebb6 060b 	subs.w	r6, r6, fp
 800602e:	4601      	mov	r1, r0
 8006030:	f169 0900 	sbc.w	r9, r9, #0
 8006034:	2801      	cmp	r0, #1
 8006036:	d904      	bls.n	8006042 <f_open+0x26e>
 8006038:	1c43      	adds	r3, r0, #1
 800603a:	f47f af75 	bne.w	8005f28 <f_open+0x154>
 800603e:	2001      	movs	r0, #1
 8006040:	e777      	b.n	8005f32 <f_open+0x15e>
 8006042:	2002      	movs	r0, #2
 8006044:	e775      	b.n	8005f32 <f_open+0x15e>
 8006046:	2008      	movs	r0, #8
 8006048:	e78f      	b.n	8005f6a <f_open+0x196>
 800604a:	2004      	movs	r0, #4
 800604c:	e78d      	b.n	8005f6a <f_open+0x196>
 800604e:	2002      	movs	r0, #2
 8006050:	e78b      	b.n	8005f6a <f_open+0x196>
 8006052:	f04f 0809 	mov.w	r8, #9
 8006056:	e78b      	b.n	8005f70 <f_open+0x19c>

08006058 <f_read>:
 8006058:	e92d 4ff0 	stmdb	sp!, {r4, r5, r6, r7, r8, r9, sl, fp, lr}
 800605c:	b089      	sub	sp, #36	@ 0x24
 800605e:	4617      	mov	r7, r2
 8006060:	468a      	mov	sl, r1
 8006062:	4604      	mov	r4, r0
 8006064:	9302      	str	r3, [sp, #8]
 8006066:	2300      	movs	r3, #0
 8006068:	9a02      	ldr	r2, [sp, #8]
 800606a:	a907      	add	r1, sp, #28
 800606c:	6013      	str	r3, [r2, #0]
 800606e:	f7fe f8ed 	bl	800424c <validate>
 8006072:	2800      	cmp	r0, #0
 8006074:	f040 80c7 	bne.w	8006206 <f_read+0x1ae>
 8006078:	f894 9031 	ldrb.w	r9, [r4, #49]	@ 0x31
 800607c:	f1b9 0f00 	cmp.w	r9, #0
 8006080:	d130      	bne.n	80060e4 <f_read+0x8c>
 8006082:	f894 3030 	ldrb.w	r3, [r4, #48]	@ 0x30
 8006086:	f013 0301 	ands.w	r3, r3, #1
 800608a:	9303      	str	r3, [sp, #12]
 800608c:	f000 80be 	beq.w	800620c <f_read+0x1b4>
 8006090:	e9d4 3204 	ldrd	r3, r2, [r4, #16]
 8006094:	e9d4 010e 	ldrd	r0, r1, [r4, #56]	@ 0x38
 8006098:	1a1b      	subs	r3, r3, r0
 800609a:	eb62 0201 	sbc.w	r2, r2, r1
 800609e:	42bb      	cmp	r3, r7
 80060a0:	f172 0200 	sbcs.w	r2, r2, #0
 80060a4:	bf38      	it	cc
 80060a6:	461f      	movcc	r7, r3
 80060a8:	f104 035c 	add.w	r3, r4, #92	@ 0x5c
 80060ac:	9304      	str	r3, [sp, #16]
 80060ae:	b1cf      	cbz	r7, 80060e4 <f_read+0x8c>
 80060b0:	e9d4 010e 	ldrd	r0, r1, [r4, #56]	@ 0x38
 80060b4:	f3c0 0308 	ubfx	r3, r0, #0, #9
 80060b8:	2b00      	cmp	r3, #0
 80060ba:	f040 8095 	bne.w	80061e8 <f_read+0x190>
 80060be:	f8dd b01c 	ldr.w	fp, [sp, #28]
 80060c2:	0a42      	lsrs	r2, r0, #9
 80060c4:	f8bb 300a 	ldrh.w	r3, [fp, #10]
 80060c8:	ea42 52c1 	orr.w	r2, r2, r1, lsl #23
 80060cc:	3b01      	subs	r3, #1
 80060ce:	4013      	ands	r3, r2
 80060d0:	d11c      	bne.n	800610c <f_read+0xb4>
 80060d2:	4301      	orrs	r1, r0
 80060d4:	d10a      	bne.n	80060ec <f_read+0x94>
 80060d6:	68a0      	ldr	r0, [r4, #8]
 80060d8:	2801      	cmp	r0, #1
 80060da:	d80e      	bhi.n	80060fa <f_read+0xa2>
 80060dc:	f04f 0902 	mov.w	r9, #2
 80060e0:	f884 9031 	strb.w	r9, [r4, #49]	@ 0x31
 80060e4:	4648      	mov	r0, r9
 80060e6:	b009      	add	sp, #36	@ 0x24
 80060e8:	e8bd 8ff0 	ldmia.w	sp!, {r4, r5, r6, r7, r8, r9, sl, fp, pc}
 80060ec:	6c21      	ldr	r1, [r4, #64]	@ 0x40
 80060ee:	4620      	mov	r0, r4
 80060f0:	9305      	str	r3, [sp, #20]
 80060f2:	f7fe fa5d 	bl	80045b0 <get_fat>
 80060f6:	9b05      	ldr	r3, [sp, #20]
 80060f8:	e7ee      	b.n	80060d8 <f_read+0x80>
 80060fa:	1c42      	adds	r2, r0, #1
 80060fc:	d105      	bne.n	800610a <f_read+0xb2>
 80060fe:	2301      	movs	r3, #1
 8006100:	f8dd 900c 	ldr.w	r9, [sp, #12]
 8006104:	f884 3031 	strb.w	r3, [r4, #49]	@ 0x31
 8006108:	e7ec      	b.n	80060e4 <f_read+0x8c>
 800610a:	6420      	str	r0, [r4, #64]	@ 0x40
 800610c:	6c21      	ldr	r1, [r4, #64]	@ 0x40
 800610e:	4658      	mov	r0, fp
 8006110:	9305      	str	r3, [sp, #20]
 8006112:	f7fe f82f 	bl	8004174 <clst2sect>
 8006116:	ea50 0201 	orrs.w	r2, r0, r1
 800611a:	d0df      	beq.n	80060dc <f_read+0x84>
 800611c:	9b05      	ldr	r3, [sp, #20]
 800611e:	181e      	adds	r6, r3, r0
 8006120:	f141 0800 	adc.w	r8, r1, #0
 8006124:	f5b7 7f00 	cmp.w	r7, #512	@ 0x200
 8006128:	d336      	bcc.n	8006198 <f_read+0x140>
 800612a:	f8bb 200a 	ldrh.w	r2, [fp, #10]
 800612e:	eb03 2157 	add.w	r1, r3, r7, lsr #9
 8006132:	0a7d      	lsrs	r5, r7, #9
 8006134:	f89b 0001 	ldrb.w	r0, [fp, #1]
 8006138:	4291      	cmp	r1, r2
 800613a:	4651      	mov	r1, sl
 800613c:	bf88      	it	hi
 800613e:	1ad5      	subhi	r5, r2, r3
 8006140:	4632      	mov	r2, r6
 8006142:	4643      	mov	r3, r8
 8006144:	9500      	str	r5, [sp, #0]
 8006146:	f7fa fead 	bl	8000ea4 <disk_read>
 800614a:	2800      	cmp	r0, #0
 800614c:	d1d7      	bne.n	80060fe <f_read+0xa6>
 800614e:	f994 3030 	ldrsb.w	r3, [r4, #48]	@ 0x30
 8006152:	2b00      	cmp	r3, #0
 8006154:	da10      	bge.n	8006178 <f_read+0x120>
 8006156:	e9d4 0312 	ldrd	r0, r3, [r4, #72]	@ 0x48
 800615a:	1b80      	subs	r0, r0, r6
 800615c:	eb63 0308 	sbc.w	r3, r3, r8
 8006160:	42a8      	cmp	r0, r5
 8006162:	f173 0300 	sbcs.w	r3, r3, #0
 8006166:	d207      	bcs.n	8006178 <f_read+0x120>
 8006168:	f44f 7200 	mov.w	r2, #512	@ 0x200
 800616c:	f104 015c 	add.w	r1, r4, #92	@ 0x5c
 8006170:	eb0a 2040 	add.w	r0, sl, r0, lsl #9
 8006174:	f002 fd5e 	bl	8008c34 <memcpy>
 8006178:	026d      	lsls	r5, r5, #9
 800617a:	9b02      	ldr	r3, [sp, #8]
 800617c:	1b7f      	subs	r7, r7, r5
 800617e:	9a02      	ldr	r2, [sp, #8]
 8006180:	44aa      	add	sl, r5
 8006182:	681b      	ldr	r3, [r3, #0]
 8006184:	442b      	add	r3, r5
 8006186:	6013      	str	r3, [r2, #0]
 8006188:	e9d4 320e 	ldrd	r3, r2, [r4, #56]	@ 0x38
 800618c:	195b      	adds	r3, r3, r5
 800618e:	f142 0200 	adc.w	r2, r2, #0
 8006192:	e9c4 320e 	strd	r3, r2, [r4, #56]	@ 0x38
 8006196:	e78a      	b.n	80060ae <f_read+0x56>
 8006198:	e9d4 2312 	ldrd	r2, r3, [r4, #72]	@ 0x48
 800619c:	4543      	cmp	r3, r8
 800619e:	bf08      	it	eq
 80061a0:	42b2      	cmpeq	r2, r6
 80061a2:	d01f      	beq.n	80061e4 <f_read+0x18c>
 80061a4:	f994 1030 	ldrsb.w	r1, [r4, #48]	@ 0x30
 80061a8:	f104 055c 	add.w	r5, r4, #92	@ 0x5c
 80061ac:	2900      	cmp	r1, #0
 80061ae:	da0e      	bge.n	80061ce <f_read+0x176>
 80061b0:	2101      	movs	r1, #1
 80061b2:	f89b 0001 	ldrb.w	r0, [fp, #1]
 80061b6:	9100      	str	r1, [sp, #0]
 80061b8:	4629      	mov	r1, r5
 80061ba:	f7fa fe99 	bl	8000ef0 <disk_write>
 80061be:	2800      	cmp	r0, #0
 80061c0:	d19d      	bne.n	80060fe <f_read+0xa6>
 80061c2:	f894 3030 	ldrb.w	r3, [r4, #48]	@ 0x30
 80061c6:	f003 037f 	and.w	r3, r3, #127	@ 0x7f
 80061ca:	f884 3030 	strb.w	r3, [r4, #48]	@ 0x30
 80061ce:	2301      	movs	r3, #1
 80061d0:	f89b 0001 	ldrb.w	r0, [fp, #1]
 80061d4:	4632      	mov	r2, r6
 80061d6:	4629      	mov	r1, r5
 80061d8:	9300      	str	r3, [sp, #0]
 80061da:	4643      	mov	r3, r8
 80061dc:	f7fa fe62 	bl	8000ea4 <disk_read>
 80061e0:	2800      	cmp	r0, #0
 80061e2:	d18c      	bne.n	80060fe <f_read+0xa6>
 80061e4:	e9c4 6812 	strd	r6, r8, [r4, #72]	@ 0x48
 80061e8:	6ba1      	ldr	r1, [r4, #56]	@ 0x38
 80061ea:	4650      	mov	r0, sl
 80061ec:	9b04      	ldr	r3, [sp, #16]
 80061ee:	f3c1 0108 	ubfx	r1, r1, #0, #9
 80061f2:	f5c1 7500 	rsb	r5, r1, #512	@ 0x200
 80061f6:	4419      	add	r1, r3
 80061f8:	42bd      	cmp	r5, r7
 80061fa:	bf28      	it	cs
 80061fc:	463d      	movcs	r5, r7
 80061fe:	462a      	mov	r2, r5
 8006200:	f002 fd18 	bl	8008c34 <memcpy>
 8006204:	e7b9      	b.n	800617a <f_read+0x122>
 8006206:	f04f 0909 	mov.w	r9, #9
 800620a:	e76b      	b.n	80060e4 <f_read+0x8c>
 800620c:	f04f 0907 	mov.w	r9, #7
 8006210:	e768      	b.n	80060e4 <f_read+0x8c>

08006212 <f_sync>:
 8006212:	b5f0      	push	{r4, r5, r6, r7, lr}
 8006214:	b09b      	sub	sp, #108	@ 0x6c
 8006216:	4605      	mov	r5, r0
 8006218:	a903      	add	r1, sp, #12
 800621a:	f7fe f817 	bl	800424c <validate>
 800621e:	2800      	cmp	r0, #0
 8006220:	f040 80a8 	bne.w	8006374 <f_sync+0x162>
 8006224:	f895 3030 	ldrb.w	r3, [r5, #48]	@ 0x30
 8006228:	f013 0440 	ands.w	r4, r3, #64	@ 0x40
 800622c:	d00d      	beq.n	800624a <f_sync+0x38>
 800622e:	061b      	lsls	r3, r3, #24
 8006230:	9e03      	ldr	r6, [sp, #12]
 8006232:	d513      	bpl.n	800625c <f_sync+0x4a>
 8006234:	2301      	movs	r3, #1
 8006236:	7870      	ldrb	r0, [r6, #1]
 8006238:	f105 015c 	add.w	r1, r5, #92	@ 0x5c
 800623c:	9300      	str	r3, [sp, #0]
 800623e:	e9d5 2312 	ldrd	r2, r3, [r5, #72]	@ 0x48
 8006242:	f7fa fe55 	bl	8000ef0 <disk_write>
 8006246:	b118      	cbz	r0, 8006250 <f_sync+0x3e>
 8006248:	2401      	movs	r4, #1
 800624a:	4620      	mov	r0, r4
 800624c:	b01b      	add	sp, #108	@ 0x6c
 800624e:	bdf0      	pop	{r4, r5, r6, r7, pc}
 8006250:	f895 3030 	ldrb.w	r3, [r5, #48]	@ 0x30
 8006254:	f003 037f 	and.w	r3, r3, #127	@ 0x7f
 8006258:	f885 3030 	strb.w	r3, [r5, #48]	@ 0x30
 800625c:	7833      	ldrb	r3, [r6, #0]
 800625e:	2b04      	cmp	r3, #4
 8006260:	d167      	bne.n	8006332 <f_sync+0x120>
 8006262:	4628      	mov	r0, r5
 8006264:	f7fe fb44 	bl	80048f0 <fill_first_frag>
 8006268:	4604      	mov	r4, r0
 800626a:	2800      	cmp	r0, #0
 800626c:	d1ed      	bne.n	800624a <f_sync+0x38>
 800626e:	f04f 32ff 	mov.w	r2, #4294967295
 8006272:	6c29      	ldr	r1, [r5, #64]	@ 0x40
 8006274:	4628      	mov	r0, r5
 8006276:	f7fe fb23 	bl	80048c0 <fill_last_frag>
 800627a:	4604      	mov	r4, r0
 800627c:	2800      	cmp	r0, #0
 800627e:	d1e4      	bne.n	800624a <f_sync+0x38>
 8006280:	682b      	ldr	r3, [r5, #0]
 8006282:	6aa9      	ldr	r1, [r5, #40]	@ 0x28
 8006284:	9304      	str	r3, [sp, #16]
 8006286:	6a2b      	ldr	r3, [r5, #32]
 8006288:	900b      	str	r0, [sp, #44]	@ 0x2c
 800628a:	9306      	str	r3, [sp, #24]
 800628c:	6a6b      	ldr	r3, [r5, #36]	@ 0x24
 800628e:	9118      	str	r1, [sp, #96]	@ 0x60
 8006290:	f88d 3017 	strb.w	r3, [sp, #23]
 8006294:	f023 03ff 	bic.w	r3, r3, #255	@ 0xff
 8006298:	e9cd 3008 	strd	r3, r0, [sp, #32]
 800629c:	a804      	add	r0, sp, #16
 800629e:	f7fe fa2f 	bl	8004700 <dir_sdi>
 80062a2:	4604      	mov	r4, r0
 80062a4:	2800      	cmp	r0, #0
 80062a6:	d1d0      	bne.n	800624a <f_sync+0x38>
 80062a8:	a804      	add	r0, sp, #16
 80062aa:	f7ff f830 	bl	800530e <load_xdir>
 80062ae:	4604      	mov	r4, r0
 80062b0:	2800      	cmp	r0, #0
 80062b2:	d1ca      	bne.n	800624a <f_sync+0x38>
 80062b4:	6d32      	ldr	r2, [r6, #80]	@ 0x50
 80062b6:	7913      	ldrb	r3, [r2, #4]
 80062b8:	f043 0320 	orr.w	r3, r3, #32
 80062bc:	7113      	strb	r3, [r2, #4]
 80062be:	79eb      	ldrb	r3, [r5, #7]
 80062c0:	6d32      	ldr	r2, [r6, #80]	@ 0x50
 80062c2:	f043 0301 	orr.w	r3, r3, #1
 80062c6:	f882 3021 	strb.w	r3, [r2, #33]	@ 0x21
 80062ca:	6d30      	ldr	r0, [r6, #80]	@ 0x50
 80062cc:	68a9      	ldr	r1, [r5, #8]
 80062ce:	3034      	adds	r0, #52	@ 0x34
 80062d0:	f7fd ff39 	bl	8004146 <st_32>
 80062d4:	6d30      	ldr	r0, [r6, #80]	@ 0x50
 80062d6:	e9d5 2304 	ldrd	r2, r3, [r5, #16]
 80062da:	3038      	adds	r0, #56	@ 0x38
 80062dc:	f7fd ff3b 	bl	8004156 <st_64>
 80062e0:	6d30      	ldr	r0, [r6, #80]	@ 0x50
 80062e2:	e9d5 2304 	ldrd	r2, r3, [r5, #16]
 80062e6:	3028      	adds	r0, #40	@ 0x28
 80062e8:	f7fd ff35 	bl	8004156 <st_64>
 80062ec:	6d33      	ldr	r3, [r6, #80]	@ 0x50
 80062ee:	2201      	movs	r2, #1
 80062f0:	a804      	add	r0, sp, #16
 80062f2:	731c      	strb	r4, [r3, #12]
 80062f4:	739a      	strb	r2, [r3, #14]
 80062f6:	225b      	movs	r2, #91	@ 0x5b
 80062f8:	735c      	strb	r4, [r3, #13]
 80062fa:	73da      	strb	r2, [r3, #15]
 80062fc:	6d33      	ldr	r3, [r6, #80]	@ 0x50
 80062fe:	755c      	strb	r4, [r3, #21]
 8006300:	6d33      	ldr	r3, [r6, #80]	@ 0x50
 8006302:	75dc      	strb	r4, [r3, #23]
 8006304:	6d33      	ldr	r3, [r6, #80]	@ 0x50
 8006306:	741c      	strb	r4, [r3, #16]
 8006308:	745c      	strb	r4, [r3, #17]
 800630a:	749c      	strb	r4, [r3, #18]
 800630c:	74dc      	strb	r4, [r3, #19]
 800630e:	6d33      	ldr	r3, [r6, #80]	@ 0x50
 8006310:	761c      	strb	r4, [r3, #24]
 8006312:	f7ff f873 	bl	80053fc <store_xdir>
 8006316:	4604      	mov	r4, r0
 8006318:	2800      	cmp	r0, #0
 800631a:	d196      	bne.n	800624a <f_sync+0x38>
 800631c:	4630      	mov	r0, r6
 800631e:	f7fd fff5 	bl	800430c <sync_fs>
 8006322:	f895 3030 	ldrb.w	r3, [r5, #48]	@ 0x30
 8006326:	4604      	mov	r4, r0
 8006328:	f023 0340 	bic.w	r3, r3, #64	@ 0x40
 800632c:	f885 3030 	strb.w	r3, [r5, #48]	@ 0x30
 8006330:	e78b      	b.n	800624a <f_sync+0x38>
 8006332:	e9d5 2314 	ldrd	r2, r3, [r5, #80]	@ 0x50
 8006336:	4630      	mov	r0, r6
 8006338:	f7fe f872 	bl	8004420 <move_window>
 800633c:	4607      	mov	r7, r0
 800633e:	2800      	cmp	r0, #0
 8006340:	d182      	bne.n	8006248 <f_sync+0x36>
 8006342:	6dac      	ldr	r4, [r5, #88]	@ 0x58
 8006344:	7ae3      	ldrb	r3, [r4, #11]
 8006346:	4621      	mov	r1, r4
 8006348:	f043 0320 	orr.w	r3, r3, #32
 800634c:	72e3      	strb	r3, [r4, #11]
 800634e:	68aa      	ldr	r2, [r5, #8]
 8006350:	6828      	ldr	r0, [r5, #0]
 8006352:	f7fe f859 	bl	8004408 <st_clust>
 8006356:	6929      	ldr	r1, [r5, #16]
 8006358:	f104 001c 	add.w	r0, r4, #28
 800635c:	225b      	movs	r2, #91	@ 0x5b
 800635e:	f7fd fef2 	bl	8004146 <st_32>
 8006362:	2301      	movs	r3, #1
 8006364:	75a7      	strb	r7, [r4, #22]
 8006366:	75e7      	strb	r7, [r4, #23]
 8006368:	7623      	strb	r3, [r4, #24]
 800636a:	7662      	strb	r2, [r4, #25]
 800636c:	74a7      	strb	r7, [r4, #18]
 800636e:	74e7      	strb	r7, [r4, #19]
 8006370:	7133      	strb	r3, [r6, #4]
 8006372:	e7d3      	b.n	800631c <f_sync+0x10a>
 8006374:	2409      	movs	r4, #9
 8006376:	e768      	b.n	800624a <f_sync+0x38>

08006378 <f_close>:
 8006378:	b513      	push	{r0, r1, r4, lr}
 800637a:	4604      	mov	r4, r0
 800637c:	f7ff ff49 	bl	8006212 <f_sync>
 8006380:	b928      	cbnz	r0, 800638e <f_close+0x16>
 8006382:	a901      	add	r1, sp, #4
 8006384:	4620      	mov	r0, r4
 8006386:	f7fd ff61 	bl	800424c <validate>
 800638a:	b910      	cbnz	r0, 8006392 <f_close+0x1a>
 800638c:	6020      	str	r0, [r4, #0]
 800638e:	b002      	add	sp, #8
 8006390:	bd10      	pop	{r4, pc}
 8006392:	2009      	movs	r0, #9
 8006394:	e7fb      	b.n	800638e <f_close+0x16>

08006396 <f_lseek>:
 8006396:	e92d 4ff0 	stmdb	sp!, {r4, r5, r6, r7, r8, r9, sl, fp, lr}
 800639a:	b087      	sub	sp, #28
 800639c:	4604      	mov	r4, r0
 800639e:	4615      	mov	r5, r2
 80063a0:	461e      	mov	r6, r3
 80063a2:	a905      	add	r1, sp, #20
 80063a4:	f7fd ff52 	bl	800424c <validate>
 80063a8:	2800      	cmp	r0, #0
 80063aa:	f040 810c 	bne.w	80065c6 <f_lseek+0x230>
 80063ae:	f894 7031 	ldrb.w	r7, [r4, #49]	@ 0x31
 80063b2:	2f00      	cmp	r7, #0
 80063b4:	f040 80ca 	bne.w	800654c <f_lseek+0x1b6>
 80063b8:	f8dd 9014 	ldr.w	r9, [sp, #20]
 80063bc:	f899 3000 	ldrb.w	r3, [r9]
 80063c0:	2b04      	cmp	r3, #4
 80063c2:	d10c      	bne.n	80063de <f_lseek+0x48>
 80063c4:	f04f 32ff 	mov.w	r2, #4294967295
 80063c8:	6c21      	ldr	r1, [r4, #64]	@ 0x40
 80063ca:	4620      	mov	r0, r4
 80063cc:	f7fe fa78 	bl	80048c0 <fill_last_frag>
 80063d0:	2800      	cmp	r0, #0
 80063d2:	f040 80fa 	bne.w	80065ca <f_lseek+0x234>
 80063d6:	f899 3000 	ldrb.w	r3, [r9]
 80063da:	2b04      	cmp	r3, #4
 80063dc:	d004      	beq.n	80063e8 <f_lseek+0x52>
 80063de:	2e00      	cmp	r6, #0
 80063e0:	bf1c      	itt	ne
 80063e2:	f04f 35ff 	movne.w	r5, #4294967295
 80063e6:	2600      	movne	r6, #0
 80063e8:	e9d4 1204 	ldrd	r1, r2, [r4, #16]
 80063ec:	42a9      	cmp	r1, r5
 80063ee:	eb72 0306 	sbcs.w	r3, r2, r6
 80063f2:	d207      	bcs.n	8006404 <f_lseek+0x6e>
 80063f4:	f894 3030 	ldrb.w	r3, [r4, #48]	@ 0x30
 80063f8:	f003 0302 	and.w	r3, r3, #2
 80063fc:	2b00      	cmp	r3, #0
 80063fe:	bf04      	itt	eq
 8006400:	460d      	moveq	r5, r1
 8006402:	4616      	moveq	r6, r2
 8006404:	2100      	movs	r1, #0
 8006406:	2000      	movs	r0, #0
 8006408:	e9d4 320e 	ldrd	r3, r2, [r4, #56]	@ 0x38
 800640c:	e9c4 010e 	strd	r0, r1, [r4, #56]	@ 0x38
 8006410:	ea55 0106 	orrs.w	r1, r5, r6
 8006414:	d13f      	bne.n	8006496 <f_lseek+0x100>
 8006416:	2500      	movs	r5, #0
 8006418:	462e      	mov	r6, r5
 800641a:	e9d4 320e 	ldrd	r3, r2, [r4, #56]	@ 0x38
 800641e:	e9d4 0104 	ldrd	r0, r1, [r4, #16]
 8006422:	4298      	cmp	r0, r3
 8006424:	4191      	sbcs	r1, r2
 8006426:	bf3c      	itt	cc
 8006428:	e9c4 3204 	strdcc	r3, r2, [r4, #16]
 800642c:	f894 2030 	ldrbcc.w	r2, [r4, #48]	@ 0x30
 8006430:	f3c3 0308 	ubfx	r3, r3, #0, #9
 8006434:	bf3c      	itt	cc
 8006436:	f042 0240 	orrcc.w	r2, r2, #64	@ 0x40
 800643a:	f884 2030 	strbcc.w	r2, [r4, #48]	@ 0x30
 800643e:	2b00      	cmp	r3, #0
 8006440:	f000 8084 	beq.w	800654c <f_lseek+0x1b6>
 8006444:	e9d4 2312 	ldrd	r2, r3, [r4, #72]	@ 0x48
 8006448:	42b3      	cmp	r3, r6
 800644a:	bf08      	it	eq
 800644c:	42aa      	cmpeq	r2, r5
 800644e:	d07d      	beq.n	800654c <f_lseek+0x1b6>
 8006450:	f994 1030 	ldrsb.w	r1, [r4, #48]	@ 0x30
 8006454:	f104 085c 	add.w	r8, r4, #92	@ 0x5c
 8006458:	2900      	cmp	r1, #0
 800645a:	da0e      	bge.n	800647a <f_lseek+0xe4>
 800645c:	2101      	movs	r1, #1
 800645e:	f899 0001 	ldrb.w	r0, [r9, #1]
 8006462:	9100      	str	r1, [sp, #0]
 8006464:	4641      	mov	r1, r8
 8006466:	f7fa fd43 	bl	8000ef0 <disk_write>
 800646a:	2800      	cmp	r0, #0
 800646c:	d174      	bne.n	8006558 <f_lseek+0x1c2>
 800646e:	f894 3030 	ldrb.w	r3, [r4, #48]	@ 0x30
 8006472:	f003 037f 	and.w	r3, r3, #127	@ 0x7f
 8006476:	f884 3030 	strb.w	r3, [r4, #48]	@ 0x30
 800647a:	2301      	movs	r3, #1
 800647c:	f899 0001 	ldrb.w	r0, [r9, #1]
 8006480:	462a      	mov	r2, r5
 8006482:	4641      	mov	r1, r8
 8006484:	9300      	str	r3, [sp, #0]
 8006486:	4633      	mov	r3, r6
 8006488:	f7fa fd0c 	bl	8000ea4 <disk_read>
 800648c:	2800      	cmp	r0, #0
 800648e:	d163      	bne.n	8006558 <f_lseek+0x1c2>
 8006490:	e9c4 5612 	strd	r5, r6, [r4, #72]	@ 0x48
 8006494:	e05a      	b.n	800654c <f_lseek+0x1b6>
 8006496:	f8b9 800a 	ldrh.w	r8, [r9, #10]
 800649a:	ea53 0102 	orrs.w	r1, r3, r2
 800649e:	ea4f 2848 	mov.w	r8, r8, lsl #9
 80064a2:	d026      	beq.n	80064f2 <f_lseek+0x15c>
 80064a4:	f113 3bff 	adds.w	fp, r3, #4294967295
 80064a8:	f04f 0300 	mov.w	r3, #0
 80064ac:	f142 3aff 	adc.w	sl, r2, #4294967295
 80064b0:	1e68      	subs	r0, r5, #1
 80064b2:	4642      	mov	r2, r8
 80064b4:	f166 0100 	sbc.w	r1, r6, #0
 80064b8:	f7f9 ff28 	bl	800030c <__aeabi_uldivmod>
 80064bc:	2300      	movs	r3, #0
 80064be:	4642      	mov	r2, r8
 80064c0:	e9cd 0102 	strd	r0, r1, [sp, #8]
 80064c4:	4658      	mov	r0, fp
 80064c6:	4651      	mov	r1, sl
 80064c8:	f7f9 ff20 	bl	800030c <__aeabi_uldivmod>
 80064cc:	9b02      	ldr	r3, [sp, #8]
 80064ce:	4283      	cmp	r3, r0
 80064d0:	9b03      	ldr	r3, [sp, #12]
 80064d2:	418b      	sbcs	r3, r1
 80064d4:	d30d      	bcc.n	80064f2 <f_lseek+0x15c>
 80064d6:	f1c8 0300 	rsb	r3, r8, #0
 80064da:	6c21      	ldr	r1, [r4, #64]	@ 0x40
 80064dc:	ea03 030b 	and.w	r3, r3, fp
 80064e0:	e9c4 3a0e 	strd	r3, sl, [r4, #56]	@ 0x38
 80064e4:	1aeb      	subs	r3, r5, r3
 80064e6:	461d      	mov	r5, r3
 80064e8:	eb66 060a 	sbc.w	r6, r6, sl
 80064ec:	2900      	cmp	r1, #0
 80064ee:	d092      	beq.n	8006416 <f_lseek+0x80>
 80064f0:	e002      	b.n	80064f8 <f_lseek+0x162>
 80064f2:	68a1      	ldr	r1, [r4, #8]
 80064f4:	b309      	cbz	r1, 800653a <f_lseek+0x1a4>
 80064f6:	6421      	str	r1, [r4, #64]	@ 0x40
 80064f8:	f04f 0a00 	mov.w	sl, #0
 80064fc:	45a8      	cmp	r8, r5
 80064fe:	eb7a 0006 	sbcs.w	r0, sl, r6
 8006502:	e9d4 320e 	ldrd	r3, r2, [r4, #56]	@ 0x38
 8006506:	d32c      	bcc.n	8006562 <f_lseek+0x1cc>
 8006508:	e9d4 320e 	ldrd	r3, r2, [r4, #56]	@ 0x38
 800650c:	195b      	adds	r3, r3, r5
 800650e:	eb46 0202 	adc.w	r2, r6, r2
 8006512:	e9c4 320e 	strd	r3, r2, [r4, #56]	@ 0x38
 8006516:	f3c5 0308 	ubfx	r3, r5, #0, #9
 800651a:	2b00      	cmp	r3, #0
 800651c:	f43f af7b 	beq.w	8006416 <f_lseek+0x80>
 8006520:	4648      	mov	r0, r9
 8006522:	f7fd fe27 	bl	8004174 <clst2sect>
 8006526:	ea50 0301 	orrs.w	r3, r0, r1
 800652a:	d00c      	beq.n	8006546 <f_lseek+0x1b0>
 800652c:	0a6d      	lsrs	r5, r5, #9
 800652e:	ea45 55c6 	orr.w	r5, r5, r6, lsl #23
 8006532:	182d      	adds	r5, r5, r0
 8006534:	eb41 2656 	adc.w	r6, r1, r6, lsr #9
 8006538:	e76f      	b.n	800641a <f_lseek+0x84>
 800653a:	4620      	mov	r0, r4
 800653c:	f7fe fd36 	bl	8004fac <create_chain>
 8006540:	2801      	cmp	r0, #1
 8006542:	4601      	mov	r1, r0
 8006544:	d106      	bne.n	8006554 <f_lseek+0x1be>
 8006546:	2702      	movs	r7, #2
 8006548:	f884 7031 	strb.w	r7, [r4, #49]	@ 0x31
 800654c:	4638      	mov	r0, r7
 800654e:	b007      	add	sp, #28
 8006550:	e8bd 8ff0 	ldmia.w	sp!, {r4, r5, r6, r7, r8, r9, sl, fp, pc}
 8006554:	1c42      	adds	r2, r0, #1
 8006556:	d101      	bne.n	800655c <f_lseek+0x1c6>
 8006558:	2701      	movs	r7, #1
 800655a:	e7f5      	b.n	8006548 <f_lseek+0x1b2>
 800655c:	60a0      	str	r0, [r4, #8]
 800655e:	6420      	str	r0, [r4, #64]	@ 0x40
 8006560:	e7c4      	b.n	80064ec <f_lseek+0x156>
 8006562:	ebb5 0508 	subs.w	r5, r5, r8
 8006566:	f894 e030 	ldrb.w	lr, [r4, #48]	@ 0x30
 800656a:	f166 0600 	sbc.w	r6, r6, #0
 800656e:	eb18 0303 	adds.w	r3, r8, r3
 8006572:	f142 0000 	adc.w	r0, r2, #0
 8006576:	f01e 0f02 	tst.w	lr, #2
 800657a:	e9c4 300e 	strd	r3, r0, [r4, #56]	@ 0x38
 800657e:	d014      	beq.n	80065aa <f_lseek+0x214>
 8006580:	6962      	ldr	r2, [r4, #20]
 8006582:	9202      	str	r2, [sp, #8]
 8006584:	6922      	ldr	r2, [r4, #16]
 8006586:	429a      	cmp	r2, r3
 8006588:	9a02      	ldr	r2, [sp, #8]
 800658a:	4182      	sbcs	r2, r0
 800658c:	bf3e      	ittt	cc
 800658e:	f04e 0e40 	orrcc.w	lr, lr, #64	@ 0x40
 8006592:	e9c4 3004 	strdcc	r3, r0, [r4, #16]
 8006596:	f884 e030 	strbcc.w	lr, [r4, #48]	@ 0x30
 800659a:	4620      	mov	r0, r4
 800659c:	f7fe fd06 	bl	8004fac <create_chain>
 80065a0:	4601      	mov	r1, r0
 80065a2:	b930      	cbnz	r0, 80065b2 <f_lseek+0x21c>
 80065a4:	4605      	mov	r5, r0
 80065a6:	4606      	mov	r6, r0
 80065a8:	e7ae      	b.n	8006508 <f_lseek+0x172>
 80065aa:	4620      	mov	r0, r4
 80065ac:	f7fe f800 	bl	80045b0 <get_fat>
 80065b0:	4601      	mov	r1, r0
 80065b2:	1c4b      	adds	r3, r1, #1
 80065b4:	d0d0      	beq.n	8006558 <f_lseek+0x1c2>
 80065b6:	2901      	cmp	r1, #1
 80065b8:	d9c5      	bls.n	8006546 <f_lseek+0x1b0>
 80065ba:	f8d9 3018 	ldr.w	r3, [r9, #24]
 80065be:	428b      	cmp	r3, r1
 80065c0:	d9c1      	bls.n	8006546 <f_lseek+0x1b0>
 80065c2:	6421      	str	r1, [r4, #64]	@ 0x40
 80065c4:	e79a      	b.n	80064fc <f_lseek+0x166>
 80065c6:	2709      	movs	r7, #9
 80065c8:	e7c0      	b.n	800654c <f_lseek+0x1b6>
 80065ca:	4607      	mov	r7, r0
 80065cc:	e7be      	b.n	800654c <f_lseek+0x1b6>

080065ce <f_unlink>:
 80065ce:	b5f0      	push	{r4, r5, r6, r7, lr}
 80065d0:	b0bd      	sub	sp, #244	@ 0xf4
 80065d2:	2202      	movs	r2, #2
 80065d4:	9001      	str	r0, [sp, #4]
 80065d6:	a903      	add	r1, sp, #12
 80065d8:	a801      	add	r0, sp, #4
 80065da:	f7fe fa55 	bl	8004a88 <mount_volume>
 80065de:	b988      	cbnz	r0, 8006604 <f_unlink+0x36>
 80065e0:	9d03      	ldr	r5, [sp, #12]
 80065e2:	a810      	add	r0, sp, #64	@ 0x40
 80065e4:	9901      	ldr	r1, [sp, #4]
 80065e6:	9510      	str	r5, [sp, #64]	@ 0x40
 80065e8:	f7ff fa66 	bl	8005ab8 <follow_path>
 80065ec:	b950      	cbnz	r0, 8006604 <f_unlink+0x36>
 80065ee:	f89d 308f 	ldrb.w	r3, [sp, #143]	@ 0x8f
 80065f2:	f013 0fa0 	tst.w	r3, #160	@ 0xa0
 80065f6:	d144      	bne.n	8006682 <f_unlink+0xb4>
 80065f8:	f89d 7046 	ldrb.w	r7, [sp, #70]	@ 0x46
 80065fc:	f017 0101 	ands.w	r1, r7, #1
 8006600:	d002      	beq.n	8006608 <f_unlink+0x3a>
 8006602:	2007      	movs	r0, #7
 8006604:	b03d      	add	sp, #244	@ 0xf4
 8006606:	bdf0      	pop	{r4, r5, r6, r7, pc}
 8006608:	782e      	ldrb	r6, [r5, #0]
 800660a:	9504      	str	r5, [sp, #16]
 800660c:	2e04      	cmp	r6, #4
 800660e:	d10f      	bne.n	8006630 <f_unlink+0x62>
 8006610:	a804      	add	r0, sp, #16
 8006612:	f7fd fde4 	bl	80041de <init_alloc_info>
 8006616:	9c06      	ldr	r4, [sp, #24]
 8006618:	06fb      	lsls	r3, r7, #27
 800661a:	d40f      	bmi.n	800663c <f_unlink+0x6e>
 800661c:	a810      	add	r0, sp, #64	@ 0x40
 800661e:	f7fe fe4c 	bl	80052ba <dir_remove>
 8006622:	2800      	cmp	r0, #0
 8006624:	d1ee      	bne.n	8006604 <f_unlink+0x36>
 8006626:	bb24      	cbnz	r4, 8006672 <f_unlink+0xa4>
 8006628:	4628      	mov	r0, r5
 800662a:	f7fd fe6f 	bl	800430c <sync_fs>
 800662e:	e7e9      	b.n	8006604 <f_unlink+0x36>
 8006630:	9920      	ldr	r1, [sp, #128]	@ 0x80
 8006632:	4630      	mov	r0, r6
 8006634:	f7ff fa38 	bl	8005aa8 <ld_clust.isra.0>
 8006638:	4604      	mov	r4, r0
 800663a:	e7ed      	b.n	8006618 <f_unlink+0x4a>
 800663c:	2e04      	cmp	r6, #4
 800663e:	f04f 0100 	mov.w	r1, #0
 8006642:	a826      	add	r0, sp, #152	@ 0x98
 8006644:	9526      	str	r5, [sp, #152]	@ 0x98
 8006646:	9428      	str	r4, [sp, #160]	@ 0xa0
 8006648:	bf01      	itttt	eq
 800664a:	e9dd 2308 	ldrdeq	r2, r3, [sp, #32]
 800664e:	e9cd 232a 	strdeq	r2, r3, [sp, #168]	@ 0xa8
 8006652:	f89d 3017 	ldrbeq.w	r3, [sp, #23]
 8006656:	f88d 309f 	strbeq.w	r3, [sp, #159]	@ 0x9f
 800665a:	f7fe f851 	bl	8004700 <dir_sdi>
 800665e:	2800      	cmp	r0, #0
 8006660:	d1d0      	bne.n	8006604 <f_unlink+0x36>
 8006662:	a826      	add	r0, sp, #152	@ 0x98
 8006664:	f7fe fefa 	bl	800545c <dir_read.constprop.0>
 8006668:	2800      	cmp	r0, #0
 800666a:	d0ca      	beq.n	8006602 <f_unlink+0x34>
 800666c:	2804      	cmp	r0, #4
 800666e:	d1c9      	bne.n	8006604 <f_unlink+0x36>
 8006670:	e7d4      	b.n	800661c <f_unlink+0x4e>
 8006672:	4602      	mov	r2, r0
 8006674:	4621      	mov	r1, r4
 8006676:	a804      	add	r0, sp, #16
 8006678:	f7fe f952 	bl	8004920 <remove_chain>
 800667c:	2800      	cmp	r0, #0
 800667e:	d1c1      	bne.n	8006604 <f_unlink+0x36>
 8006680:	e7d2      	b.n	8006628 <f_unlink+0x5a>
 8006682:	2006      	movs	r0, #6
 8006684:	e7be      	b.n	8006604 <f_unlink+0x36>

08006686 <f_rename>:
 8006686:	e92d 43f0 	stmdb	sp!, {r4, r5, r6, r7, r8, r9, lr}
 800668a:	b0c1      	sub	sp, #260	@ 0x104
 800668c:	9001      	str	r0, [sp, #4]
 800668e:	4668      	mov	r0, sp
 8006690:	9100      	str	r1, [sp, #0]
 8006692:	f7fd fdc6 	bl	8004222 <get_ldnumber>
 8006696:	2202      	movs	r2, #2
 8006698:	a903      	add	r1, sp, #12
 800669a:	a801      	add	r0, sp, #4
 800669c:	f7fe f9f4 	bl	8004a88 <mount_volume>
 80066a0:	2800      	cmp	r0, #0
 80066a2:	d134      	bne.n	800670e <f_rename+0x88>
 80066a4:	ad14      	add	r5, sp, #80	@ 0x50
 80066a6:	2300      	movs	r3, #0
 80066a8:	9c03      	ldr	r4, [sp, #12]
 80066aa:	9901      	ldr	r1, [sp, #4]
 80066ac:	4628      	mov	r0, r5
 80066ae:	9414      	str	r4, [sp, #80]	@ 0x50
 80066b0:	9316      	str	r3, [sp, #88]	@ 0x58
 80066b2:	9320      	str	r3, [sp, #128]	@ 0x80
 80066b4:	f7ff fa00 	bl	8005ab8 <follow_path>
 80066b8:	bb48      	cbnz	r0, 800670e <f_rename+0x88>
 80066ba:	f89d 309f 	ldrb.w	r3, [sp, #159]	@ 0x9f
 80066be:	f013 0fa0 	tst.w	r3, #160	@ 0xa0
 80066c2:	f040 80cd 	bne.w	8006860 <f_rename+0x1da>
 80066c6:	7823      	ldrb	r3, [r4, #0]
 80066c8:	9e16      	ldr	r6, [sp, #88]	@ 0x58
 80066ca:	2b04      	cmp	r3, #4
 80066cc:	9f20      	ldr	r7, [sp, #128]	@ 0x80
 80066ce:	f8dd 8000 	ldr.w	r8, [sp]
 80066d2:	d15c      	bne.n	800678e <f_rename+0x108>
 80066d4:	6d23      	ldr	r3, [r4, #80]	@ 0x50
 80066d6:	f10d 0c10 	add.w	ip, sp, #16
 80066da:	f103 0e40 	add.w	lr, r3, #64	@ 0x40
 80066de:	6818      	ldr	r0, [r3, #0]
 80066e0:	3308      	adds	r3, #8
 80066e2:	f853 1c04 	ldr.w	r1, [r3, #-4]
 80066e6:	4662      	mov	r2, ip
 80066e8:	4573      	cmp	r3, lr
 80066ea:	c203      	stmia	r2!, {r0, r1}
 80066ec:	4694      	mov	ip, r2
 80066ee:	d1f6      	bne.n	80066de <f_rename+0x58>
 80066f0:	4629      	mov	r1, r5
 80066f2:	2258      	movs	r2, #88	@ 0x58
 80066f4:	a82a      	add	r0, sp, #168	@ 0xa8
 80066f6:	f002 fa9d 	bl	8008c34 <memcpy>
 80066fa:	4641      	mov	r1, r8
 80066fc:	a82a      	add	r0, sp, #168	@ 0xa8
 80066fe:	f7ff f9db 	bl	8005ab8 <follow_path>
 8006702:	2800      	cmp	r0, #0
 8006704:	d140      	bne.n	8006788 <f_rename+0x102>
 8006706:	9b2c      	ldr	r3, [sp, #176]	@ 0xb0
 8006708:	42b3      	cmp	r3, r6
 800670a:	d003      	beq.n	8006714 <f_rename+0x8e>
 800670c:	2008      	movs	r0, #8
 800670e:	b041      	add	sp, #260	@ 0x104
 8006710:	e8bd 83f0 	ldmia.w	sp!, {r4, r5, r6, r7, r8, r9, pc}
 8006714:	9b36      	ldr	r3, [sp, #216]	@ 0xd8
 8006716:	42bb      	cmp	r3, r7
 8006718:	d1f8      	bne.n	800670c <f_rename+0x86>
 800671a:	a82a      	add	r0, sp, #168	@ 0xa8
 800671c:	f7ff f800 	bl	8005720 <dir_register>
 8006720:	2800      	cmp	r0, #0
 8006722:	d1f4      	bne.n	800670e <f_rename+0x88>
 8006724:	6d23      	ldr	r3, [r4, #80]	@ 0x50
 8006726:	af04      	add	r7, sp, #16
 8006728:	f893 e001 	ldrb.w	lr, [r3, #1]
 800672c:	f893 c023 	ldrb.w	ip, [r3, #35]	@ 0x23
 8006730:	8c9e      	ldrh	r6, [r3, #36]	@ 0x24
 8006732:	463a      	mov	r2, r7
 8006734:	3308      	adds	r3, #8
 8006736:	ca03      	ldmia	r2!, {r0, r1}
 8006738:	42aa      	cmp	r2, r5
 800673a:	f843 0c08 	str.w	r0, [r3, #-8]
 800673e:	f843 1c04 	str.w	r1, [r3, #-4]
 8006742:	4617      	mov	r7, r2
 8006744:	d1f5      	bne.n	8006732 <f_rename+0xac>
 8006746:	6d23      	ldr	r3, [r4, #80]	@ 0x50
 8006748:	a82a      	add	r0, sp, #168	@ 0xa8
 800674a:	f883 e001 	strb.w	lr, [r3, #1]
 800674e:	6d23      	ldr	r3, [r4, #80]	@ 0x50
 8006750:	f883 c023 	strb.w	ip, [r3, #35]	@ 0x23
 8006754:	6d23      	ldr	r3, [r4, #80]	@ 0x50
 8006756:	f883 6024 	strb.w	r6, [r3, #36]	@ 0x24
 800675a:	0a36      	lsrs	r6, r6, #8
 800675c:	f883 6025 	strb.w	r6, [r3, #37]	@ 0x25
 8006760:	6d22      	ldr	r2, [r4, #80]	@ 0x50
 8006762:	7913      	ldrb	r3, [r2, #4]
 8006764:	06d9      	lsls	r1, r3, #27
 8006766:	bf5c      	itt	pl
 8006768:	f043 0320 	orrpl.w	r3, r3, #32
 800676c:	7113      	strbpl	r3, [r2, #4]
 800676e:	f7fe fe45 	bl	80053fc <store_xdir>
 8006772:	2800      	cmp	r0, #0
 8006774:	d1cb      	bne.n	800670e <f_rename+0x88>
 8006776:	4628      	mov	r0, r5
 8006778:	f7fe fd9f 	bl	80052ba <dir_remove>
 800677c:	2800      	cmp	r0, #0
 800677e:	d1c6      	bne.n	800670e <f_rename+0x88>
 8006780:	4620      	mov	r0, r4
 8006782:	f7fd fdc3 	bl	800430c <sync_fs>
 8006786:	e7c2      	b.n	800670e <f_rename+0x88>
 8006788:	2804      	cmp	r0, #4
 800678a:	d1c0      	bne.n	800670e <f_rename+0x88>
 800678c:	e7c5      	b.n	800671a <f_rename+0x94>
 800678e:	9a24      	ldr	r2, [sp, #144]	@ 0x90
 8006790:	ab04      	add	r3, sp, #16
 8006792:	f102 0e20 	add.w	lr, r2, #32
 8006796:	6810      	ldr	r0, [r2, #0]
 8006798:	3208      	adds	r2, #8
 800679a:	f852 1c04 	ldr.w	r1, [r2, #-4]
 800679e:	469c      	mov	ip, r3
 80067a0:	4572      	cmp	r2, lr
 80067a2:	e8ac 0003 	stmia.w	ip!, {r0, r1}
 80067a6:	4663      	mov	r3, ip
 80067a8:	d1f5      	bne.n	8006796 <f_rename+0x110>
 80067aa:	4629      	mov	r1, r5
 80067ac:	2258      	movs	r2, #88	@ 0x58
 80067ae:	a82a      	add	r0, sp, #168	@ 0xa8
 80067b0:	f89d 901b 	ldrb.w	r9, [sp, #27]
 80067b4:	f002 fa3e 	bl	8008c34 <memcpy>
 80067b8:	4641      	mov	r1, r8
 80067ba:	a82a      	add	r0, sp, #168	@ 0xa8
 80067bc:	f7ff f97c 	bl	8005ab8 <follow_path>
 80067c0:	2800      	cmp	r0, #0
 80067c2:	d149      	bne.n	8006858 <f_rename+0x1d2>
 80067c4:	9b2c      	ldr	r3, [sp, #176]	@ 0xb0
 80067c6:	42b3      	cmp	r3, r6
 80067c8:	d1a0      	bne.n	800670c <f_rename+0x86>
 80067ca:	9b36      	ldr	r3, [sp, #216]	@ 0xd8
 80067cc:	42bb      	cmp	r3, r7
 80067ce:	d19d      	bne.n	800670c <f_rename+0x86>
 80067d0:	a82a      	add	r0, sp, #168	@ 0xa8
 80067d2:	f7fe ffa5 	bl	8005720 <dir_register>
 80067d6:	2800      	cmp	r0, #0
 80067d8:	d199      	bne.n	800670e <f_rename+0x88>
 80067da:	993a      	ldr	r1, [sp, #232]	@ 0xe8
 80067dc:	f10d 031d 	add.w	r3, sp, #29
 80067e0:	f10d 002d 	add.w	r0, sp, #45	@ 0x2d
 80067e4:	f101 020d 	add.w	r2, r1, #13
 80067e8:	f853 7b04 	ldr.w	r7, [r3], #4
 80067ec:	4283      	cmp	r3, r0
 80067ee:	f842 7b04 	str.w	r7, [r2], #4
 80067f2:	d1f9      	bne.n	80067e8 <f_rename+0x162>
 80067f4:	8818      	ldrh	r0, [r3, #0]
 80067f6:	f019 0f10 	tst.w	r9, #16
 80067fa:	f04f 0701 	mov.w	r7, #1
 80067fe:	8010      	strh	r0, [r2, #0]
 8006800:	bf08      	it	eq
 8006802:	f049 0920 	orreq.w	r9, r9, #32
 8006806:	789b      	ldrb	r3, [r3, #2]
 8006808:	7093      	strb	r3, [r2, #2]
 800680a:	f881 900b 	strb.w	r9, [r1, #11]
 800680e:	7127      	strb	r7, [r4, #4]
 8006810:	7acb      	ldrb	r3, [r1, #11]
 8006812:	06db      	lsls	r3, r3, #27
 8006814:	d5af      	bpl.n	8006776 <f_rename+0xf0>
 8006816:	9b2c      	ldr	r3, [sp, #176]	@ 0xb0
 8006818:	42b3      	cmp	r3, r6
 800681a:	d0ac      	beq.n	8006776 <f_rename+0xf0>
 800681c:	7820      	ldrb	r0, [r4, #0]
 800681e:	f7ff f943 	bl	8005aa8 <ld_clust.isra.0>
 8006822:	4601      	mov	r1, r0
 8006824:	4620      	mov	r0, r4
 8006826:	f7fd fca5 	bl	8004174 <clst2sect>
 800682a:	4602      	mov	r2, r0
 800682c:	460b      	mov	r3, r1
 800682e:	ea52 0103 	orrs.w	r1, r2, r3
 8006832:	d017      	beq.n	8006864 <f_rename+0x1de>
 8006834:	4620      	mov	r0, r4
 8006836:	f7fd fdf3 	bl	8004420 <move_window>
 800683a:	2800      	cmp	r0, #0
 800683c:	f47f af67 	bne.w	800670e <f_rename+0x88>
 8006840:	f894 3075 	ldrb.w	r3, [r4, #117]	@ 0x75
 8006844:	2b2e      	cmp	r3, #46	@ 0x2e
 8006846:	d196      	bne.n	8006776 <f_rename+0xf0>
 8006848:	9a2c      	ldr	r2, [sp, #176]	@ 0xb0
 800684a:	f104 0174 	add.w	r1, r4, #116	@ 0x74
 800684e:	4620      	mov	r0, r4
 8006850:	f7fd fdda 	bl	8004408 <st_clust>
 8006854:	7127      	strb	r7, [r4, #4]
 8006856:	e78e      	b.n	8006776 <f_rename+0xf0>
 8006858:	2804      	cmp	r0, #4
 800685a:	f47f af58 	bne.w	800670e <f_rename+0x88>
 800685e:	e7b7      	b.n	80067d0 <f_rename+0x14a>
 8006860:	2006      	movs	r0, #6
 8006862:	e754      	b.n	800670e <f_rename+0x88>
 8006864:	2002      	movs	r0, #2
 8006866:	e752      	b.n	800670e <f_rename+0x88>

08006868 <ff_uni2oem>:
 8006868:	287f      	cmp	r0, #127	@ 0x7f
 800686a:	d801      	bhi.n	8006870 <ff_uni2oem+0x8>
 800686c:	b280      	uxth	r0, r0
 800686e:	4770      	bx	lr
 8006870:	f5b0 3f80 	cmp.w	r0, #65536	@ 0x10000
 8006874:	d211      	bcs.n	800689a <ff_uni2oem+0x32>
 8006876:	f240 13b5 	movw	r3, #437	@ 0x1b5
 800687a:	4299      	cmp	r1, r3
 800687c:	d10d      	bne.n	800689a <ff_uni2oem+0x32>
 800687e:	4a08      	ldr	r2, [pc, #32]	@ (80068a0 <ff_uni2oem+0x38>)
 8006880:	2300      	movs	r3, #0
 8006882:	f832 1b02 	ldrh.w	r1, [r2], #2
 8006886:	4281      	cmp	r1, r0
 8006888:	d101      	bne.n	800688e <ff_uni2oem+0x26>
 800688a:	b29b      	uxth	r3, r3
 800688c:	e002      	b.n	8006894 <ff_uni2oem+0x2c>
 800688e:	3301      	adds	r3, #1
 8006890:	2b80      	cmp	r3, #128	@ 0x80
 8006892:	d1f6      	bne.n	8006882 <ff_uni2oem+0x1a>
 8006894:	3380      	adds	r3, #128	@ 0x80
 8006896:	b2d8      	uxtb	r0, r3
 8006898:	4770      	bx	lr
 800689a:	2000      	movs	r0, #0
 800689c:	4770      	bx	lr
 800689e:	bf00      	nop
 80068a0:	080093b2 	.word	0x080093b2

080068a4 <ff_oem2uni>:
 80068a4:	287f      	cmp	r0, #127	@ 0x7f
 80068a6:	d90d      	bls.n	80068c4 <ff_oem2uni+0x20>
 80068a8:	f240 13b5 	movw	r3, #437	@ 0x1b5
 80068ac:	4299      	cmp	r1, r3
 80068ae:	d108      	bne.n	80068c2 <ff_oem2uni+0x1e>
 80068b0:	28ff      	cmp	r0, #255	@ 0xff
 80068b2:	d806      	bhi.n	80068c2 <ff_oem2uni+0x1e>
 80068b4:	f100 4000 	add.w	r0, r0, #2147483648	@ 0x80000000
 80068b8:	4b03      	ldr	r3, [pc, #12]	@ (80068c8 <ff_oem2uni+0x24>)
 80068ba:	3880      	subs	r0, #128	@ 0x80
 80068bc:	f833 0010 	ldrh.w	r0, [r3, r0, lsl #1]
 80068c0:	4770      	bx	lr
 80068c2:	2000      	movs	r0, #0
 80068c4:	4770      	bx	lr
 80068c6:	bf00      	nop
 80068c8:	080093b2 	.word	0x080093b2

080068cc <ff_wtoupper>:
 80068cc:	f5b0 3f80 	cmp.w	r0, #65536	@ 0x10000
 80068d0:	b5f0      	push	{r4, r5, r6, r7, lr}
 80068d2:	d222      	bcs.n	800691a <ff_wtoupper+0x4e>
 80068d4:	b283      	uxth	r3, r0
 80068d6:	4a1f      	ldr	r2, [pc, #124]	@ (8006954 <ff_wtoupper+0x88>)
 80068d8:	491f      	ldr	r1, [pc, #124]	@ (8006958 <ff_wtoupper+0x8c>)
 80068da:	f5b3 5f80 	cmp.w	r3, #4096	@ 0x1000
 80068de:	bf38      	it	cc
 80068e0:	460a      	movcc	r2, r1
 80068e2:	1d14      	adds	r4, r2, #4
 80068e4:	f834 2c04 	ldrh.w	r2, [r4, #-4]
 80068e8:	4621      	mov	r1, r4
 80068ea:	b1aa      	cbz	r2, 8006918 <ff_wtoupper+0x4c>
 80068ec:	4293      	cmp	r3, r2
 80068ee:	d313      	bcc.n	8006918 <ff_wtoupper+0x4c>
 80068f0:	f834 5c02 	ldrh.w	r5, [r4, #-2]
 80068f4:	0a2e      	lsrs	r6, r5, #8
 80068f6:	b2ef      	uxtb	r7, r5
 80068f8:	fa52 f585 	uxtab	r5, r2, r5
 80068fc:	42a8      	cmp	r0, r5
 80068fe:	da23      	bge.n	8006948 <ff_wtoupper+0x7c>
 8006900:	2e08      	cmp	r6, #8
 8006902:	d809      	bhi.n	8006918 <ff_wtoupper+0x4c>
 8006904:	e8df f006 	tbb	[pc, r6]
 8006908:	13100a05 	.word	0x13100a05
 800690c:	1b191715 	.word	0x1b191715
 8006910:	1d          	.byte	0x1d
 8006911:	00          	.byte	0x00
 8006912:	1a80      	subs	r0, r0, r2
 8006914:	f834 3010 	ldrh.w	r3, [r4, r0, lsl #1]
 8006918:	4618      	mov	r0, r3
 800691a:	bdf0      	pop	{r4, r5, r6, r7, pc}
 800691c:	1a9a      	subs	r2, r3, r2
 800691e:	f002 0201 	and.w	r2, r2, #1
 8006922:	1a9a      	subs	r2, r3, r2
 8006924:	b293      	uxth	r3, r2
 8006926:	e7f7      	b.n	8006918 <ff_wtoupper+0x4c>
 8006928:	3b10      	subs	r3, #16
 800692a:	b29b      	uxth	r3, r3
 800692c:	e7f4      	b.n	8006918 <ff_wtoupper+0x4c>
 800692e:	3b20      	subs	r3, #32
 8006930:	e7fb      	b.n	800692a <ff_wtoupper+0x5e>
 8006932:	3b30      	subs	r3, #48	@ 0x30
 8006934:	e7f9      	b.n	800692a <ff_wtoupper+0x5e>
 8006936:	3b1a      	subs	r3, #26
 8006938:	e7f7      	b.n	800692a <ff_wtoupper+0x5e>
 800693a:	3308      	adds	r3, #8
 800693c:	e7f5      	b.n	800692a <ff_wtoupper+0x5e>
 800693e:	3b50      	subs	r3, #80	@ 0x50
 8006940:	e7f3      	b.n	800692a <ff_wtoupper+0x5e>
 8006942:	f5a3 53e3 	sub.w	r3, r3, #7264	@ 0x1c60
 8006946:	e7f0      	b.n	800692a <ff_wtoupper+0x5e>
 8006948:	3404      	adds	r4, #4
 800694a:	2e00      	cmp	r6, #0
 800694c:	d1ca      	bne.n	80068e4 <ff_wtoupper+0x18>
 800694e:	eb01 0247 	add.w	r2, r1, r7, lsl #1
 8006952:	e7c6      	b.n	80068e2 <ff_wtoupper+0x16>
 8006954:	08009104 	.word	0x08009104
 8006958:	080091c0 	.word	0x080091c0

0800695c <config_read_capacity_complete>:
 800695c:	b5f8      	push	{r3, r4, r5, r6, r7, lr}
 800695e:	684b      	ldr	r3, [r1, #4]
 8006960:	4604      	mov	r4, r0
 8006962:	7b1b      	ldrb	r3, [r3, #12]
 8006964:	b143      	cbz	r3, 8006978 <config_read_capacity_complete+0x1c>
 8006966:	f04f 23e0 	mov.w	r3, #3758153728	@ 0xe000e000
 800696a:	f8d3 3df0 	ldr.w	r3, [r3, #3568]	@ 0xdf0
 800696e:	07db      	lsls	r3, r3, #31
 8006970:	d500      	bpl.n	8006974 <config_read_capacity_complete+0x18>
 8006972:	be00      	bkpt	0x0000
 8006974:	2000      	movs	r0, #0
 8006976:	bdf8      	pop	{r3, r4, r5, r6, r7, pc}
 8006978:	680e      	ldr	r6, [r1, #0]
 800697a:	1e45      	subs	r5, r0, #1
 800697c:	f000 fd3c 	bl	80073f8 <usbh_get_enum_buf>
 8006980:	6803      	ldr	r3, [r0, #0]
 8006982:	271c      	movs	r7, #28
 8006984:	ba1a      	rev	r2, r3
 8006986:	7b73      	ldrb	r3, [r6, #13]
 8006988:	fb07 f105 	mul.w	r1, r7, r5
 800698c:	4e0c      	ldr	r6, [pc, #48]	@ (80069c0 <config_read_capacity_complete+0x64>)
 800698e:	3302      	adds	r3, #2
 8006990:	3201      	adds	r2, #1
 8006992:	eb01 03c3 	add.w	r3, r1, r3, lsl #3
 8006996:	4431      	add	r1, r6
 8006998:	4433      	add	r3, r6
 800699a:	609a      	str	r2, [r3, #8]
 800699c:	6842      	ldr	r2, [r0, #4]
 800699e:	ba12      	rev	r2, r2
 80069a0:	605a      	str	r2, [r3, #4]
 80069a2:	2301      	movs	r3, #1
 80069a4:	714b      	strb	r3, [r1, #5]
 80069a6:	4b07      	ldr	r3, [pc, #28]	@ (80069c4 <config_read_capacity_complete+0x68>)
 80069a8:	b113      	cbz	r3, 80069b0 <config_read_capacity_complete+0x54>
 80069aa:	4620      	mov	r0, r4
 80069ac:	f7fa fa5e 	bl	8000e6c <tuh_msc_mount_cb>
 80069b0:	437d      	muls	r5, r7
 80069b2:	4620      	mov	r0, r4
 80069b4:	5d71      	ldrb	r1, [r6, r5]
 80069b6:	f000 fecb 	bl	8007750 <usbh_driver_set_config_complete>
 80069ba:	2001      	movs	r0, #1
 80069bc:	e7db      	b.n	8006976 <config_read_capacity_complete+0x1a>
 80069be:	bf00      	nop
 80069c0:	24001b64 	.word	0x24001b64
 80069c4:	08000e6d 	.word	0x08000e6d

080069c8 <tuh_msc_get_block_count>:
 80069c8:	231c      	movs	r3, #28
 80069ca:	3801      	subs	r0, #1
 80069cc:	3102      	adds	r1, #2
 80069ce:	4358      	muls	r0, r3
 80069d0:	4b02      	ldr	r3, [pc, #8]	@ (80069dc <tuh_msc_get_block_count+0x14>)
 80069d2:	eb00 00c1 	add.w	r0, r0, r1, lsl #3
 80069d6:	4403      	add	r3, r0
 80069d8:	6898      	ldr	r0, [r3, #8]
 80069da:	4770      	bx	lr
 80069dc:	24001b64 	.word	0x24001b64

080069e0 <tuh_msc_get_block_size>:
 80069e0:	231c      	movs	r3, #28
 80069e2:	3801      	subs	r0, #1
 80069e4:	3102      	adds	r1, #2
 80069e6:	4358      	muls	r0, r3
 80069e8:	4b02      	ldr	r3, [pc, #8]	@ (80069f4 <tuh_msc_get_block_size+0x14>)
 80069ea:	eb00 00c1 	add.w	r0, r0, r1, lsl #3
 80069ee:	4403      	add	r3, r0
 80069f0:	6858      	ldr	r0, [r3, #4]
 80069f2:	4770      	bx	lr
 80069f4:	24001b64 	.word	0x24001b64

080069f8 <tuh_msc_mounted>:
 80069f8:	3801      	subs	r0, #1
 80069fa:	221c      	movs	r2, #28
 80069fc:	4b02      	ldr	r3, [pc, #8]	@ (8006a08 <tuh_msc_mounted+0x10>)
 80069fe:	fb02 3300 	mla	r3, r2, r0, r3
 8006a02:	7958      	ldrb	r0, [r3, #5]
 8006a04:	4770      	bx	lr
 8006a06:	bf00      	nop
 8006a08:	24001b64 	.word	0x24001b64

08006a0c <tuh_msc_scsi_command>:
 8006a0c:	e92d 47f3 	stmdb	sp!, {r0, r1, r4, r5, r6, r7, r8, r9, sl, lr}
 8006a10:	4698      	mov	r8, r3
 8006a12:	1e47      	subs	r7, r0, #1
 8006a14:	f8df a080 	ldr.w	sl, [pc, #128]	@ 8006a98 <tuh_msc_scsi_command+0x8c>
 8006a18:	231c      	movs	r3, #28
 8006a1a:	4691      	mov	r9, r2
 8006a1c:	4606      	mov	r6, r0
 8006a1e:	fb03 a307 	mla	r3, r3, r7, sl
 8006a22:	460c      	mov	r4, r1
 8006a24:	791a      	ldrb	r2, [r3, #4]
 8006a26:	b38a      	cbz	r2, 8006a8c <tuh_msc_scsi_command+0x80>
 8006a28:	7899      	ldrb	r1, [r3, #2]
 8006a2a:	f000 fcf3 	bl	8007414 <usbh_edpt_claim>
 8006a2e:	b368      	cbz	r0, 8006a8c <tuh_msc_scsi_command+0x80>
 8006a30:	4a18      	ldr	r2, [pc, #96]	@ (8006a94 <tuh_msc_scsi_command+0x88>)
 8006a32:	2530      	movs	r5, #48	@ 0x30
 8006a34:	f104 0c18 	add.w	ip, r4, #24
 8006a38:	fb05 2507 	mla	r5, r5, r7, r2
 8006a3c:	6820      	ldr	r0, [r4, #0]
 8006a3e:	3408      	adds	r4, #8
 8006a40:	f854 1c04 	ldr.w	r1, [r4, #-4]
 8006a44:	462b      	mov	r3, r5
 8006a46:	4564      	cmp	r4, ip
 8006a48:	c303      	stmia	r3!, {r0, r1}
 8006a4a:	461d      	mov	r5, r3
 8006a4c:	d1f6      	bne.n	8006a3c <tuh_msc_scsi_command+0x30>
 8006a4e:	6820      	ldr	r0, [r4, #0]
 8006a50:	6018      	str	r0, [r3, #0]
 8006a52:	2030      	movs	r0, #48	@ 0x30
 8006a54:	79a3      	ldrb	r3, [r4, #6]
 8006a56:	88a1      	ldrh	r1, [r4, #4]
 8006a58:	241c      	movs	r4, #28
 8006a5a:	71ab      	strb	r3, [r5, #6]
 8006a5c:	fb04 a407 	mla	r4, r4, r7, sl
 8006a60:	9b0a      	ldr	r3, [sp, #40]	@ 0x28
 8006a62:	80a9      	strh	r1, [r5, #4]
 8006a64:	6123      	str	r3, [r4, #16]
 8006a66:	2301      	movs	r3, #1
 8006a68:	78a1      	ldrb	r1, [r4, #2]
 8006a6a:	fb00 2207 	mla	r2, r0, r7, r2
 8006a6e:	71a3      	strb	r3, [r4, #6]
 8006a70:	2300      	movs	r3, #0
 8006a72:	4630      	mov	r0, r6
 8006a74:	e9c4 9802 	strd	r9, r8, [r4, #8]
 8006a78:	e9cd 3300 	strd	r3, r3, [sp]
 8006a7c:	231f      	movs	r3, #31
 8006a7e:	f000 fcf9 	bl	8007474 <usbh_edpt_xfer_with_callback>
 8006a82:	b920      	cbnz	r0, 8006a8e <tuh_msc_scsi_command+0x82>
 8006a84:	78a1      	ldrb	r1, [r4, #2]
 8006a86:	4630      	mov	r0, r6
 8006a88:	f000 fce0 	bl	800744c <usbh_edpt_release>
 8006a8c:	2000      	movs	r0, #0
 8006a8e:	b002      	add	sp, #8
 8006a90:	e8bd 87f0 	ldmia.w	sp!, {r4, r5, r6, r7, r8, r9, sl, pc}
 8006a94:	24001b34 	.word	0x24001b34
 8006a98:	24001b64 	.word	0x24001b64

08006a9c <tuh_msc_read_capacity>:
 8006a9c:	b5f0      	push	{r4, r5, r6, r7, lr}
 8006a9e:	460f      	mov	r7, r1
 8006aa0:	4615      	mov	r5, r2
 8006aa2:	461e      	mov	r6, r3
 8006aa4:	1e42      	subs	r2, r0, #1
 8006aa6:	4b16      	ldr	r3, [pc, #88]	@ (8006b00 <tuh_msc_read_capacity+0x64>)
 8006aa8:	211c      	movs	r1, #28
 8006aaa:	4604      	mov	r4, r0
 8006aac:	b08b      	sub	sp, #44	@ 0x2c
 8006aae:	fb01 3302 	mla	r3, r1, r2, r3
 8006ab2:	791b      	ldrb	r3, [r3, #4]
 8006ab4:	f003 00ff 	and.w	r0, r3, #255	@ 0xff
 8006ab8:	b1fb      	cbz	r3, 8006afa <tuh_msc_read_capacity+0x5e>
 8006aba:	220f      	movs	r2, #15
 8006abc:	2100      	movs	r1, #0
 8006abe:	a806      	add	r0, sp, #24
 8006ac0:	f002 f87f 	bl	8008bc2 <memset>
 8006ac4:	4b0f      	ldr	r3, [pc, #60]	@ (8006b04 <tuh_msc_read_capacity+0x68>)
 8006ac6:	462a      	mov	r2, r5
 8006ac8:	a902      	add	r1, sp, #8
 8006aca:	9302      	str	r3, [sp, #8]
 8006acc:	f103 5390 	add.w	r3, r3, #301989888	@ 0x12000000
 8006ad0:	4620      	mov	r0, r4
 8006ad2:	f88d 7015 	strb.w	r7, [sp, #21]
 8006ad6:	f5a3 036d 	sub.w	r3, r3, #15532032	@ 0xed0000
 8006ada:	3b13      	subs	r3, #19
 8006adc:	9303      	str	r3, [sp, #12]
 8006ade:	2308      	movs	r3, #8
 8006ae0:	9304      	str	r3, [sp, #16]
 8006ae2:	2380      	movs	r3, #128	@ 0x80
 8006ae4:	f88d 3014 	strb.w	r3, [sp, #20]
 8006ae8:	f242 530a 	movw	r3, #9482	@ 0x250a
 8006aec:	f8ad 3016 	strh.w	r3, [sp, #22]
 8006af0:	9b10      	ldr	r3, [sp, #64]	@ 0x40
 8006af2:	9300      	str	r3, [sp, #0]
 8006af4:	4633      	mov	r3, r6
 8006af6:	f7ff ff89 	bl	8006a0c <tuh_msc_scsi_command>
 8006afa:	b00b      	add	sp, #44	@ 0x2c
 8006afc:	bdf0      	pop	{r4, r5, r6, r7, pc}
 8006afe:	bf00      	nop
 8006b00:	24001b64 	.word	0x24001b64
 8006b04:	43425355 	.word	0x43425355

08006b08 <tuh_msc_inquiry>:
 8006b08:	b570      	push	{r4, r5, r6, lr}
 8006b0a:	1e45      	subs	r5, r0, #1
 8006b0c:	4c18      	ldr	r4, [pc, #96]	@ (8006b70 <tuh_msc_inquiry+0x68>)
 8006b0e:	261c      	movs	r6, #28
 8006b10:	b08c      	sub	sp, #48	@ 0x30
 8006b12:	fb06 4405 	mla	r4, r6, r5, r4
 8006b16:	7965      	ldrb	r5, [r4, #5]
 8006b18:	f005 04ff 	and.w	r4, r5, #255	@ 0xff
 8006b1c:	b32d      	cbz	r5, 8006b6a <tuh_msc_inquiry+0x62>
 8006b1e:	2400      	movs	r4, #0
 8006b20:	f88d 101d 	strb.w	r1, [sp, #29]
 8006b24:	2124      	movs	r1, #36	@ 0x24
 8006b26:	e9cd 4409 	strd	r4, r4, [sp, #36]	@ 0x24
 8006b2a:	f8cd 402b 	str.w	r4, [sp, #43]	@ 0x2b
 8006b2e:	4c11      	ldr	r4, [pc, #68]	@ (8006b74 <tuh_msc_inquiry+0x6c>)
 8006b30:	f8ad 100c 	strh.w	r1, [sp, #12]
 8006b34:	9404      	str	r4, [sp, #16]
 8006b36:	f104 5490 	add.w	r4, r4, #301989888	@ 0x12000000
 8006b3a:	9106      	str	r1, [sp, #24]
 8006b3c:	2112      	movs	r1, #18
 8006b3e:	f5a4 046d 	sub.w	r4, r4, #15532032	@ 0xed0000
 8006b42:	f8cd 101f 	str.w	r1, [sp, #31]
 8006b46:	3c13      	subs	r4, #19
 8006b48:	f8bd 100c 	ldrh.w	r1, [sp, #12]
 8006b4c:	9405      	str	r4, [sp, #20]
 8006b4e:	2480      	movs	r4, #128	@ 0x80
 8006b50:	f8ad 1023 	strh.w	r1, [sp, #35]	@ 0x23
 8006b54:	9910      	ldr	r1, [sp, #64]	@ 0x40
 8006b56:	f88d 401c 	strb.w	r4, [sp, #28]
 8006b5a:	2406      	movs	r4, #6
 8006b5c:	9100      	str	r1, [sp, #0]
 8006b5e:	a904      	add	r1, sp, #16
 8006b60:	f88d 401e 	strb.w	r4, [sp, #30]
 8006b64:	f7ff ff52 	bl	8006a0c <tuh_msc_scsi_command>
 8006b68:	4604      	mov	r4, r0
 8006b6a:	4620      	mov	r0, r4
 8006b6c:	b00c      	add	sp, #48	@ 0x30
 8006b6e:	bd70      	pop	{r4, r5, r6, pc}
 8006b70:	24001b64 	.word	0x24001b64
 8006b74:	43425355 	.word	0x43425355

08006b78 <tuh_msc_test_unit_ready>:
 8006b78:	b5f0      	push	{r4, r5, r6, r7, lr}
 8006b7a:	460d      	mov	r5, r1
 8006b7c:	4616      	mov	r6, r2
 8006b7e:	461f      	mov	r7, r3
 8006b80:	1e42      	subs	r2, r0, #1
 8006b82:	4b13      	ldr	r3, [pc, #76]	@ (8006bd0 <tuh_msc_test_unit_ready+0x58>)
 8006b84:	211c      	movs	r1, #28
 8006b86:	4604      	mov	r4, r0
 8006b88:	b08b      	sub	sp, #44	@ 0x2c
 8006b8a:	fb01 3302 	mla	r3, r1, r2, r3
 8006b8e:	791b      	ldrb	r3, [r3, #4]
 8006b90:	f003 00ff 	and.w	r0, r3, #255	@ 0xff
 8006b94:	b1d3      	cbz	r3, 8006bcc <tuh_msc_test_unit_ready+0x54>
 8006b96:	2217      	movs	r2, #23
 8006b98:	2100      	movs	r1, #0
 8006b9a:	a804      	add	r0, sp, #16
 8006b9c:	f002 f811 	bl	8008bc2 <memset>
 8006ba0:	4b0c      	ldr	r3, [pc, #48]	@ (8006bd4 <tuh_msc_test_unit_ready+0x5c>)
 8006ba2:	2200      	movs	r2, #0
 8006ba4:	a902      	add	r1, sp, #8
 8006ba6:	9302      	str	r3, [sp, #8]
 8006ba8:	f103 5390 	add.w	r3, r3, #301989888	@ 0x12000000
 8006bac:	4620      	mov	r0, r4
 8006bae:	9700      	str	r7, [sp, #0]
 8006bb0:	f5a3 036d 	sub.w	r3, r3, #15532032	@ 0xed0000
 8006bb4:	f88d 5015 	strb.w	r5, [sp, #21]
 8006bb8:	f88d 5018 	strb.w	r5, [sp, #24]
 8006bbc:	3b13      	subs	r3, #19
 8006bbe:	9303      	str	r3, [sp, #12]
 8006bc0:	2306      	movs	r3, #6
 8006bc2:	f88d 3016 	strb.w	r3, [sp, #22]
 8006bc6:	4633      	mov	r3, r6
 8006bc8:	f7ff ff20 	bl	8006a0c <tuh_msc_scsi_command>
 8006bcc:	b00b      	add	sp, #44	@ 0x2c
 8006bce:	bdf0      	pop	{r4, r5, r6, r7, pc}
 8006bd0:	24001b64 	.word	0x24001b64
 8006bd4:	43425355 	.word	0x43425355

08006bd8 <config_get_maxlun_complete>:
 8006bd8:	b570      	push	{r4, r5, r6, lr}
 8006bda:	7804      	ldrb	r4, [r0, #0]
 8006bdc:	78c3      	ldrb	r3, [r0, #3]
 8006bde:	1e65      	subs	r5, r4, #1
 8006be0:	b98b      	cbnz	r3, 8006c06 <config_get_maxlun_complete+0x2e>
 8006be2:	f000 fc09 	bl	80073f8 <usbh_get_enum_buf>
 8006be6:	7803      	ldrb	r3, [r0, #0]
 8006be8:	3301      	adds	r3, #1
 8006bea:	b2db      	uxtb	r3, r3
 8006bec:	211c      	movs	r1, #28
 8006bee:	4a07      	ldr	r2, [pc, #28]	@ (8006c0c <config_get_maxlun_complete+0x34>)
 8006bf0:	4620      	mov	r0, r4
 8006bf2:	fb01 2205 	mla	r2, r1, r5, r2
 8006bf6:	70d3      	strb	r3, [r2, #3]
 8006bf8:	2300      	movs	r3, #0
 8006bfa:	4a05      	ldr	r2, [pc, #20]	@ (8006c10 <config_get_maxlun_complete+0x38>)
 8006bfc:	4619      	mov	r1, r3
 8006bfe:	e8bd 4070 	ldmia.w	sp!, {r4, r5, r6, lr}
 8006c02:	f7ff bfb9 	b.w	8006b78 <tuh_msc_test_unit_ready>
 8006c06:	2301      	movs	r3, #1
 8006c08:	e7f0      	b.n	8006bec <config_get_maxlun_complete+0x14>
 8006c0a:	bf00      	nop
 8006c0c:	24001b64 	.word	0x24001b64
 8006c10:	08006ca1 	.word	0x08006ca1

08006c14 <config_request_sense_complete>:
 8006c14:	b508      	push	{r3, lr}
 8006c16:	684b      	ldr	r3, [r1, #4]
 8006c18:	7b1b      	ldrb	r3, [r3, #12]
 8006c1a:	b143      	cbz	r3, 8006c2e <config_request_sense_complete+0x1a>
 8006c1c:	f04f 23e0 	mov.w	r3, #3758153728	@ 0xe000e000
 8006c20:	f8d3 3df0 	ldr.w	r3, [r3, #3568]	@ 0xdf0
 8006c24:	07db      	lsls	r3, r3, #31
 8006c26:	d500      	bpl.n	8006c2a <config_request_sense_complete+0x16>
 8006c28:	be00      	bkpt	0x0000
 8006c2a:	2000      	movs	r0, #0
 8006c2c:	e006      	b.n	8006c3c <config_request_sense_complete+0x28>
 8006c2e:	6809      	ldr	r1, [r1, #0]
 8006c30:	4a03      	ldr	r2, [pc, #12]	@ (8006c40 <config_request_sense_complete+0x2c>)
 8006c32:	7b49      	ldrb	r1, [r1, #13]
 8006c34:	f7ff ffa0 	bl	8006b78 <tuh_msc_test_unit_ready>
 8006c38:	2800      	cmp	r0, #0
 8006c3a:	d0ef      	beq.n	8006c1c <config_request_sense_complete+0x8>
 8006c3c:	bd08      	pop	{r3, pc}
 8006c3e:	bf00      	nop
 8006c40:	08006ca1 	.word	0x08006ca1

08006c44 <tuh_msc_request_sense>:
 8006c44:	b510      	push	{r4, lr}
 8006c46:	4604      	mov	r4, r0
 8006c48:	b08c      	sub	sp, #48	@ 0x30
 8006c4a:	2000      	movs	r0, #0
 8006c4c:	f88d 101d 	strb.w	r1, [sp, #29]
 8006c50:	2112      	movs	r1, #18
 8006c52:	e9cd 0009 	strd	r0, r0, [sp, #36]	@ 0x24
 8006c56:	f8cd 002b 	str.w	r0, [sp, #43]	@ 0x2b
 8006c5a:	4810      	ldr	r0, [pc, #64]	@ (8006c9c <tuh_msc_request_sense+0x58>)
 8006c5c:	9106      	str	r1, [sp, #24]
 8006c5e:	9004      	str	r0, [sp, #16]
 8006c60:	f100 5090 	add.w	r0, r0, #301989888	@ 0x12000000
 8006c64:	f8ad 100c 	strh.w	r1, [sp, #12]
 8006c68:	f5a0 006d 	sub.w	r0, r0, #15532032	@ 0xed0000
 8006c6c:	f8bd 100c 	ldrh.w	r1, [sp, #12]
 8006c70:	3813      	subs	r0, #19
 8006c72:	f8ad 1023 	strh.w	r1, [sp, #35]	@ 0x23
 8006c76:	990e      	ldr	r1, [sp, #56]	@ 0x38
 8006c78:	9005      	str	r0, [sp, #20]
 8006c7a:	2080      	movs	r0, #128	@ 0x80
 8006c7c:	9100      	str	r1, [sp, #0]
 8006c7e:	a904      	add	r1, sp, #16
 8006c80:	f88d 001c 	strb.w	r0, [sp, #28]
 8006c84:	2006      	movs	r0, #6
 8006c86:	f88d 001e 	strb.w	r0, [sp, #30]
 8006c8a:	2003      	movs	r0, #3
 8006c8c:	f8cd 001f 	str.w	r0, [sp, #31]
 8006c90:	4620      	mov	r0, r4
 8006c92:	f7ff febb 	bl	8006a0c <tuh_msc_scsi_command>
 8006c96:	b00c      	add	sp, #48	@ 0x30
 8006c98:	bd10      	pop	{r4, pc}
 8006c9a:	bf00      	nop
 8006c9c:	43425355 	.word	0x43425355

08006ca0 <config_test_unit_ready_complete>:
 8006ca0:	b573      	push	{r0, r1, r4, r5, r6, lr}
 8006ca2:	e9d1 6500 	ldrd	r6, r5, [r1]
 8006ca6:	4604      	mov	r4, r0
 8006ca8:	f000 fba6 	bl	80073f8 <usbh_get_enum_buf>
 8006cac:	7b2b      	ldrb	r3, [r5, #12]
 8006cae:	4602      	mov	r2, r0
 8006cb0:	7b71      	ldrb	r1, [r6, #13]
 8006cb2:	b93b      	cbnz	r3, 8006cc4 <config_test_unit_ready_complete+0x24>
 8006cb4:	9300      	str	r3, [sp, #0]
 8006cb6:	4620      	mov	r0, r4
 8006cb8:	4b0a      	ldr	r3, [pc, #40]	@ (8006ce4 <config_test_unit_ready_complete+0x44>)
 8006cba:	f7ff feef 	bl	8006a9c <tuh_msc_read_capacity>
 8006cbe:	2001      	movs	r0, #1
 8006cc0:	b002      	add	sp, #8
 8006cc2:	bd70      	pop	{r4, r5, r6, pc}
 8006cc4:	2300      	movs	r3, #0
 8006cc6:	4620      	mov	r0, r4
 8006cc8:	9300      	str	r3, [sp, #0]
 8006cca:	4b07      	ldr	r3, [pc, #28]	@ (8006ce8 <config_test_unit_ready_complete+0x48>)
 8006ccc:	f7ff ffba 	bl	8006c44 <tuh_msc_request_sense>
 8006cd0:	2800      	cmp	r0, #0
 8006cd2:	d1f4      	bne.n	8006cbe <config_test_unit_ready_complete+0x1e>
 8006cd4:	f04f 23e0 	mov.w	r3, #3758153728	@ 0xe000e000
 8006cd8:	f8d3 3df0 	ldr.w	r3, [r3, #3568]	@ 0xdf0
 8006cdc:	07db      	lsls	r3, r3, #31
 8006cde:	d5ef      	bpl.n	8006cc0 <config_test_unit_ready_complete+0x20>
 8006ce0:	be00      	bkpt	0x0000
 8006ce2:	e7ed      	b.n	8006cc0 <config_test_unit_ready_complete+0x20>
 8006ce4:	0800695d 	.word	0x0800695d
 8006ce8:	08006c15 	.word	0x08006c15

08006cec <tuh_msc_read10>:
 8006cec:	b5f0      	push	{r4, r5, r6, r7, lr}
 8006cee:	1e44      	subs	r4, r0, #1
 8006cf0:	4605      	mov	r5, r0
 8006cf2:	201c      	movs	r0, #28
 8006cf4:	4e26      	ldr	r6, [pc, #152]	@ (8006d90 <tuh_msc_read10+0xa4>)
 8006cf6:	b08f      	sub	sp, #60	@ 0x3c
 8006cf8:	4344      	muls	r4, r0
 8006cfa:	f8bd 7050 	ldrh.w	r7, [sp, #80]	@ 0x50
 8006cfe:	1930      	adds	r0, r6, r4
 8006d00:	f890 c005 	ldrb.w	ip, [r0, #5]
 8006d04:	f00c 00ff 	and.w	r0, ip, #255	@ 0xff
 8006d08:	f1bc 0f00 	cmp.w	ip, #0
 8006d0c:	d03d      	beq.n	8006d8a <tuh_msc_read10+0x9e>
 8006d0e:	f88d 1025 	strb.w	r1, [sp, #37]	@ 0x25
 8006d12:	3102      	adds	r1, #2
 8006d14:	2000      	movs	r0, #0
 8006d16:	ba1b      	rev	r3, r3
 8006d18:	eb04 04c1 	add.w	r4, r4, r1, lsl #3
 8006d1c:	f8df c074 	ldr.w	ip, [pc, #116]	@ 8006d94 <tuh_msc_read10+0xa8>
 8006d20:	f8cd 0011 	str.w	r0, [sp, #17]
 8006d24:	4434      	add	r4, r6
 8006d26:	f8cd 000d 	str.w	r0, [sp, #13]
 8006d2a:	900c      	str	r0, [sp, #48]	@ 0x30
 8006d2c:	6861      	ldr	r1, [r4, #4]
 8006d2e:	f88d 0015 	strb.w	r0, [sp, #21]
 8006d32:	4379      	muls	r1, r7
 8006d34:	f8cd 300e 	str.w	r3, [sp, #14]
 8006d38:	ab03      	add	r3, sp, #12
 8006d3a:	9108      	str	r1, [sp, #32]
 8006d3c:	2180      	movs	r1, #128	@ 0x80
 8006d3e:	f8cd 0033 	str.w	r0, [sp, #51]	@ 0x33
 8006d42:	2028      	movs	r0, #40	@ 0x28
 8006d44:	f88d 1024 	strb.w	r1, [sp, #36]	@ 0x24
 8006d48:	210a      	movs	r1, #10
 8006d4a:	f88d 000c 	strb.w	r0, [sp, #12]
 8006d4e:	f88d 1026 	strb.w	r1, [sp, #38]	@ 0x26
 8006d52:	ba79      	rev16	r1, r7
 8006d54:	f8cd c018 	str.w	ip, [sp, #24]
 8006d58:	f10c 5c90 	add.w	ip, ip, #301989888	@ 0x12000000
 8006d5c:	f8ad 1013 	strh.w	r1, [sp, #19]
 8006d60:	f5ac 0c6d 	sub.w	ip, ip, #15532032	@ 0xed0000
 8006d64:	cb03      	ldmia	r3!, {r0, r1}
 8006d66:	f1ac 0c13 	sub.w	ip, ip, #19
 8006d6a:	881b      	ldrh	r3, [r3, #0]
 8006d6c:	f8cd 0027 	str.w	r0, [sp, #39]	@ 0x27
 8006d70:	4628      	mov	r0, r5
 8006d72:	f8ad 302f 	strh.w	r3, [sp, #47]	@ 0x2f
 8006d76:	9b16      	ldr	r3, [sp, #88]	@ 0x58
 8006d78:	f8cd 102b 	str.w	r1, [sp, #43]	@ 0x2b
 8006d7c:	a906      	add	r1, sp, #24
 8006d7e:	9300      	str	r3, [sp, #0]
 8006d80:	9b15      	ldr	r3, [sp, #84]	@ 0x54
 8006d82:	f8cd c01c 	str.w	ip, [sp, #28]
 8006d86:	f7ff fe41 	bl	8006a0c <tuh_msc_scsi_command>
 8006d8a:	b00f      	add	sp, #60	@ 0x3c
 8006d8c:	bdf0      	pop	{r4, r5, r6, r7, pc}
 8006d8e:	bf00      	nop
 8006d90:	24001b64 	.word	0x24001b64
 8006d94:	43425355 	.word	0x43425355

08006d98 <tuh_msc_write10>:
 8006d98:	e92d 47f0 	stmdb	sp!, {r4, r5, r6, r7, r8, r9, sl, lr}
 8006d9c:	1e44      	subs	r4, r0, #1
 8006d9e:	4698      	mov	r8, r3
 8006da0:	231c      	movs	r3, #28
 8006da2:	f8df a0a4 	ldr.w	sl, [pc, #164]	@ 8006e48 <tuh_msc_write10+0xb0>
 8006da6:	b08e      	sub	sp, #56	@ 0x38
 8006da8:	4605      	mov	r5, r0
 8006daa:	435c      	muls	r4, r3
 8006dac:	460f      	mov	r7, r1
 8006dae:	4616      	mov	r6, r2
 8006db0:	f8bd 9058 	ldrh.w	r9, [sp, #88]	@ 0x58
 8006db4:	eb0a 0304 	add.w	r3, sl, r4
 8006db8:	795b      	ldrb	r3, [r3, #5]
 8006dba:	f003 00ff 	and.w	r0, r3, #255	@ 0xff
 8006dbe:	2b00      	cmp	r3, #0
 8006dc0:	d03d      	beq.n	8006e3e <tuh_msc_write10+0xa6>
 8006dc2:	2213      	movs	r2, #19
 8006dc4:	2100      	movs	r1, #0
 8006dc6:	a809      	add	r0, sp, #36	@ 0x24
 8006dc8:	fa98 f888 	rev.w	r8, r8
 8006dcc:	f001 fef9 	bl	8008bc2 <memset>
 8006dd0:	4b1c      	ldr	r3, [pc, #112]	@ (8006e44 <tuh_msc_write10+0xac>)
 8006dd2:	f88d 7025 	strb.w	r7, [sp, #37]	@ 0x25
 8006dd6:	3702      	adds	r7, #2
 8006dd8:	9306      	str	r3, [sp, #24]
 8006dda:	f103 5390 	add.w	r3, r3, #301989888	@ 0x12000000
 8006dde:	eb04 04c7 	add.w	r4, r4, r7, lsl #3
 8006de2:	4632      	mov	r2, r6
 8006de4:	f5a3 036d 	sub.w	r3, r3, #15532032	@ 0xed0000
 8006de8:	eb0a 0104 	add.w	r1, sl, r4
 8006dec:	3b13      	subs	r3, #19
 8006dee:	9307      	str	r3, [sp, #28]
 8006df0:	684b      	ldr	r3, [r1, #4]
 8006df2:	fa99 f199 	rev16.w	r1, r9
 8006df6:	fb09 f303 	mul.w	r3, r9, r3
 8006dfa:	9308      	str	r3, [sp, #32]
 8006dfc:	230a      	movs	r3, #10
 8006dfe:	f88d 3026 	strb.w	r3, [sp, #38]	@ 0x26
 8006e02:	2300      	movs	r3, #0
 8006e04:	f8cd 3011 	str.w	r3, [sp, #17]
 8006e08:	f8cd 300d 	str.w	r3, [sp, #13]
 8006e0c:	f88d 3015 	strb.w	r3, [sp, #21]
 8006e10:	232a      	movs	r3, #42	@ 0x2a
 8006e12:	f8ad 1013 	strh.w	r1, [sp, #19]
 8006e16:	f88d 300c 	strb.w	r3, [sp, #12]
 8006e1a:	ab03      	add	r3, sp, #12
 8006e1c:	f8cd 800e 	str.w	r8, [sp, #14]
 8006e20:	cb03      	ldmia	r3!, {r0, r1}
 8006e22:	881b      	ldrh	r3, [r3, #0]
 8006e24:	f8cd 0027 	str.w	r0, [sp, #39]	@ 0x27
 8006e28:	4628      	mov	r0, r5
 8006e2a:	f8ad 302f 	strh.w	r3, [sp, #47]	@ 0x2f
 8006e2e:	9b18      	ldr	r3, [sp, #96]	@ 0x60
 8006e30:	f8cd 102b 	str.w	r1, [sp, #43]	@ 0x2b
 8006e34:	a906      	add	r1, sp, #24
 8006e36:	9300      	str	r3, [sp, #0]
 8006e38:	9b17      	ldr	r3, [sp, #92]	@ 0x5c
 8006e3a:	f7ff fde7 	bl	8006a0c <tuh_msc_scsi_command>
 8006e3e:	b00e      	add	sp, #56	@ 0x38
 8006e40:	e8bd 87f0 	ldmia.w	sp!, {r4, r5, r6, r7, r8, r9, sl, pc}
 8006e44:	43425355 	.word	0x43425355
 8006e48:	24001b64 	.word	0x24001b64

08006e4c <msch_init>:
 8006e4c:	221c      	movs	r2, #28
 8006e4e:	2100      	movs	r1, #0
 8006e50:	4802      	ldr	r0, [pc, #8]	@ (8006e5c <msch_init+0x10>)
 8006e52:	b508      	push	{r3, lr}
 8006e54:	f001 feb5 	bl	8008bc2 <memset>
 8006e58:	2001      	movs	r0, #1
 8006e5a:	bd08      	pop	{r3, pc}
 8006e5c:	24001b64 	.word	0x24001b64

08006e60 <msch_deinit>:
 8006e60:	2001      	movs	r0, #1
 8006e62:	4770      	bx	lr

08006e64 <msch_close>:
 8006e64:	2801      	cmp	r0, #1
 8006e66:	b538      	push	{r3, r4, r5, lr}
 8006e68:	d814      	bhi.n	8006e94 <msch_close+0x30>
 8006e6a:	1e44      	subs	r4, r0, #1
 8006e6c:	4d0a      	ldr	r5, [pc, #40]	@ (8006e98 <msch_close+0x34>)
 8006e6e:	231c      	movs	r3, #28
 8006e70:	fb03 5304 	mla	r3, r3, r4, r5
 8006e74:	791a      	ldrb	r2, [r3, #4]
 8006e76:	b16a      	cbz	r2, 8006e94 <msch_close+0x30>
 8006e78:	795b      	ldrb	r3, [r3, #5]
 8006e7a:	b11b      	cbz	r3, 8006e84 <msch_close+0x20>
 8006e7c:	4b07      	ldr	r3, [pc, #28]	@ (8006e9c <msch_close+0x38>)
 8006e7e:	b10b      	cbz	r3, 8006e84 <msch_close+0x20>
 8006e80:	f3af 8000 	nop.w
 8006e84:	221c      	movs	r2, #28
 8006e86:	2100      	movs	r1, #0
 8006e88:	fb02 5004 	mla	r0, r2, r4, r5
 8006e8c:	e8bd 4038 	ldmia.w	sp!, {r3, r4, r5, lr}
 8006e90:	f001 be97 	b.w	8008bc2 <memset>
 8006e94:	bd38      	pop	{r3, r4, r5, pc}
 8006e96:	bf00      	nop
 8006e98:	24001b64 	.word	0x24001b64
 8006e9c:	00000000 	.word	0x00000000

08006ea0 <msch_xfer_cb>:
 8006ea0:	e92d 43f0 	stmdb	sp!, {r4, r5, r6, r7, r8, r9, lr}
 8006ea4:	f100 3cff 	add.w	ip, r0, #4294967295
 8006ea8:	469e      	mov	lr, r3
 8006eaa:	241c      	movs	r4, #28
 8006eac:	4b2d      	ldr	r3, [pc, #180]	@ (8006f64 <msch_xfer_cb+0xc4>)
 8006eae:	2530      	movs	r5, #48	@ 0x30
 8006eb0:	4689      	mov	r9, r1
 8006eb2:	fb04 340c 	mla	r4, r4, ip, r3
 8006eb6:	4690      	mov	r8, r2
 8006eb8:	fb05 f50c 	mul.w	r5, r5, ip
 8006ebc:	4e2a      	ldr	r6, [pc, #168]	@ (8006f68 <msch_xfer_cb+0xc8>)
 8006ebe:	79a1      	ldrb	r1, [r4, #6]
 8006ec0:	b087      	sub	sp, #28
 8006ec2:	f105 0220 	add.w	r2, r5, #32
 8006ec6:	4607      	mov	r7, r0
 8006ec8:	2902      	cmp	r1, #2
 8006eca:	4432      	add	r2, r6
 8006ecc:	d030      	beq.n	8006f30 <msch_xfer_cb+0x90>
 8006ece:	2903      	cmp	r1, #3
 8006ed0:	d039      	beq.n	8006f46 <msch_xfer_cb+0xa6>
 8006ed2:	2901      	cmp	r1, #1
 8006ed4:	d128      	bne.n	8006f28 <msch_xfer_cb+0x88>
 8006ed6:	78a1      	ldrb	r1, [r4, #2]
 8006ed8:	4549      	cmp	r1, r9
 8006eda:	d105      	bne.n	8006ee8 <msch_xfer_cb+0x48>
 8006edc:	f1b8 0f00 	cmp.w	r8, #0
 8006ee0:	d102      	bne.n	8006ee8 <msch_xfer_cb+0x48>
 8006ee2:	f1be 0f1f 	cmp.w	lr, #31
 8006ee6:	d008      	beq.n	8006efa <msch_xfer_cb+0x5a>
 8006ee8:	f04f 23e0 	mov.w	r3, #3758153728	@ 0xe000e000
 8006eec:	f8d3 3df0 	ldr.w	r3, [r3, #3568]	@ 0xdf0
 8006ef0:	07db      	lsls	r3, r3, #31
 8006ef2:	d500      	bpl.n	8006ef6 <msch_xfer_cb+0x56>
 8006ef4:	be00      	bkpt	0x0000
 8006ef6:	2000      	movs	r0, #0
 8006ef8:	e017      	b.n	8006f2a <msch_xfer_cb+0x8a>
 8006efa:	442e      	add	r6, r5
 8006efc:	68b5      	ldr	r5, [r6, #8]
 8006efe:	b1bd      	cbz	r5, 8006f30 <msch_xfer_cb+0x90>
 8006f00:	68a0      	ldr	r0, [r4, #8]
 8006f02:	b1a8      	cbz	r0, 8006f30 <msch_xfer_cb+0x90>
 8006f04:	2302      	movs	r3, #2
 8006f06:	4602      	mov	r2, r0
 8006f08:	71a3      	strb	r3, [r4, #6]
 8006f0a:	f996 300c 	ldrsb.w	r3, [r6, #12]
 8006f0e:	2b00      	cmp	r3, #0
 8006f10:	f04f 0300 	mov.w	r3, #0
 8006f14:	bfb8      	it	lt
 8006f16:	7861      	ldrblt	r1, [r4, #1]
 8006f18:	e9cd 3300 	strd	r3, r3, [sp]
 8006f1c:	b2ab      	uxth	r3, r5
 8006f1e:	4638      	mov	r0, r7
 8006f20:	f000 faa8 	bl	8007474 <usbh_edpt_xfer_with_callback>
 8006f24:	2800      	cmp	r0, #0
 8006f26:	d0df      	beq.n	8006ee8 <msch_xfer_cb+0x48>
 8006f28:	2001      	movs	r0, #1
 8006f2a:	b007      	add	sp, #28
 8006f2c:	e8bd 83f0 	ldmia.w	sp!, {r4, r5, r6, r7, r8, r9, pc}
 8006f30:	211c      	movs	r1, #28
 8006f32:	fb01 330c 	mla	r3, r1, ip, r3
 8006f36:	2103      	movs	r1, #3
 8006f38:	7199      	strb	r1, [r3, #6]
 8006f3a:	7859      	ldrb	r1, [r3, #1]
 8006f3c:	2300      	movs	r3, #0
 8006f3e:	e9cd 3300 	strd	r3, r3, [sp]
 8006f42:	230d      	movs	r3, #13
 8006f44:	e7eb      	b.n	8006f1e <msch_xfer_cb+0x7e>
 8006f46:	2300      	movs	r3, #0
 8006f48:	71a3      	strb	r3, [r4, #6]
 8006f4a:	68e3      	ldr	r3, [r4, #12]
 8006f4c:	2b00      	cmp	r3, #0
 8006f4e:	d0eb      	beq.n	8006f28 <msch_xfer_cb+0x88>
 8006f50:	4435      	add	r5, r6
 8006f52:	a902      	add	r1, sp, #8
 8006f54:	e9cd 5202 	strd	r5, r2, [sp, #8]
 8006f58:	68a2      	ldr	r2, [r4, #8]
 8006f5a:	9204      	str	r2, [sp, #16]
 8006f5c:	6922      	ldr	r2, [r4, #16]
 8006f5e:	9205      	str	r2, [sp, #20]
 8006f60:	4798      	blx	r3
 8006f62:	e7e1      	b.n	8006f28 <msch_xfer_cb+0x88>
 8006f64:	24001b64 	.word	0x24001b64
 8006f68:	24001b34 	.word	0x24001b34

08006f6c <msch_open>:
 8006f6c:	e92d 4ff8 	stmdb	sp!, {r3, r4, r5, r6, r7, r8, r9, sl, fp, lr}
 8006f70:	4615      	mov	r5, r2
 8006f72:	7992      	ldrb	r2, [r2, #6]
 8006f74:	460e      	mov	r6, r1
 8006f76:	2a06      	cmp	r2, #6
 8006f78:	d110      	bne.n	8006f9c <msch_open+0x30>
 8006f7a:	79ea      	ldrb	r2, [r5, #7]
 8006f7c:	2a50      	cmp	r2, #80	@ 0x50
 8006f7e:	d10d      	bne.n	8006f9c <msch_open+0x30>
 8006f80:	792a      	ldrb	r2, [r5, #4]
 8006f82:	ebc2 02c2 	rsb	r2, r2, r2, lsl #3
 8006f86:	3209      	adds	r2, #9
 8006f88:	b292      	uxth	r2, r2
 8006f8a:	429a      	cmp	r2, r3
 8006f8c:	d909      	bls.n	8006fa2 <msch_open+0x36>
 8006f8e:	f04f 23e0 	mov.w	r3, #3758153728	@ 0xe000e000
 8006f92:	f8d3 3df0 	ldr.w	r3, [r3, #3568]	@ 0xdf0
 8006f96:	07db      	lsls	r3, r3, #31
 8006f98:	d500      	bpl.n	8006f9c <msch_open+0x30>
 8006f9a:	be00      	bkpt	0x0000
 8006f9c:	2000      	movs	r0, #0
 8006f9e:	e8bd 8ff8 	ldmia.w	sp!, {r3, r4, r5, r6, r7, r8, r9, sl, fp, pc}
 8006fa2:	1e4f      	subs	r7, r1, #1
 8006fa4:	782c      	ldrb	r4, [r5, #0]
 8006fa6:	f04f 0a1c 	mov.w	sl, #28
 8006faa:	f04f 0902 	mov.w	r9, #2
 8006fae:	442c      	add	r4, r5
 8006fb0:	f8df 8050 	ldr.w	r8, [pc, #80]	@ 8007004 <msch_open+0x98>
 8006fb4:	fb0a fb07 	mul.w	fp, sl, r7
 8006fb8:	7863      	ldrb	r3, [r4, #1]
 8006fba:	2b05      	cmp	r3, #5
 8006fbc:	d1e7      	bne.n	8006f8e <msch_open+0x22>
 8006fbe:	78e3      	ldrb	r3, [r4, #3]
 8006fc0:	f003 0303 	and.w	r3, r3, #3
 8006fc4:	2b02      	cmp	r3, #2
 8006fc6:	d1e2      	bne.n	8006f8e <msch_open+0x22>
 8006fc8:	4621      	mov	r1, r4
 8006fca:	4630      	mov	r0, r6
 8006fcc:	f000 faf6 	bl	80075bc <tuh_edpt_open>
 8006fd0:	2800      	cmp	r0, #0
 8006fd2:	d0dc      	beq.n	8006f8e <msch_open+0x22>
 8006fd4:	78a3      	ldrb	r3, [r4, #2]
 8006fd6:	09da      	lsrs	r2, r3, #7
 8006fd8:	bf15      	itete	ne
 8006fda:	fb0a 8207 	mlane	r2, sl, r7, r8
 8006fde:	eb08 020b 	addeq.w	r2, r8, fp
 8006fe2:	7053      	strbne	r3, [r2, #1]
 8006fe4:	7093      	strbeq	r3, [r2, #2]
 8006fe6:	f1b9 0f01 	cmp.w	r9, #1
 8006fea:	7823      	ldrb	r3, [r4, #0]
 8006fec:	441c      	add	r4, r3
 8006fee:	d105      	bne.n	8006ffc <msch_open+0x90>
 8006ff0:	231c      	movs	r3, #28
 8006ff2:	435f      	muls	r7, r3
 8006ff4:	78ab      	ldrb	r3, [r5, #2]
 8006ff6:	f808 3007 	strb.w	r3, [r8, r7]
 8006ffa:	e7d0      	b.n	8006f9e <msch_open+0x32>
 8006ffc:	f04f 0901 	mov.w	r9, #1
 8007000:	e7da      	b.n	8006fb8 <msch_open+0x4c>
 8007002:	bf00      	nop
 8007004:	24001b64 	.word	0x24001b64

08007008 <msch_set_config>:
 8007008:	b530      	push	{r4, r5, lr}
 800700a:	1e43      	subs	r3, r0, #1
 800700c:	4604      	mov	r4, r0
 800700e:	201c      	movs	r0, #28
 8007010:	4a17      	ldr	r2, [pc, #92]	@ (8007070 <msch_set_config+0x68>)
 8007012:	b089      	sub	sp, #36	@ 0x24
 8007014:	4343      	muls	r3, r0
 8007016:	18d0      	adds	r0, r2, r3
 8007018:	5cd2      	ldrb	r2, [r2, r3]
 800701a:	428a      	cmp	r2, r1
 800701c:	d008      	beq.n	8007030 <msch_set_config+0x28>
 800701e:	f04f 23e0 	mov.w	r3, #3758153728	@ 0xe000e000
 8007022:	f8d3 3df0 	ldr.w	r3, [r3, #3568]	@ 0xdf0
 8007026:	07db      	lsls	r3, r3, #31
 8007028:	d500      	bpl.n	800702c <msch_set_config+0x24>
 800702a:	be00      	bkpt	0x0000
 800702c:	2000      	movs	r0, #0
 800702e:	e01c      	b.n	800706a <msch_set_config+0x62>
 8007030:	2301      	movs	r3, #1
 8007032:	f64f 61a1 	movw	r1, #65185	@ 0xfea1
 8007036:	f8ad 2004 	strh.w	r2, [sp, #4]
 800703a:	7103      	strb	r3, [r0, #4]
 800703c:	f8ad 3006 	strh.w	r3, [sp, #6]
 8007040:	9100      	str	r1, [sp, #0]
 8007042:	f000 f9d9 	bl	80073f8 <usbh_get_enum_buf>
 8007046:	2218      	movs	r2, #24
 8007048:	4605      	mov	r5, r0
 800704a:	2100      	movs	r1, #0
 800704c:	a802      	add	r0, sp, #8
 800704e:	f001 fdb8 	bl	8008bc2 <memset>
 8007052:	466b      	mov	r3, sp
 8007054:	a802      	add	r0, sp, #8
 8007056:	f88d 4008 	strb.w	r4, [sp, #8]
 800705a:	e9cd 3504 	strd	r3, r5, [sp, #16]
 800705e:	4b05      	ldr	r3, [pc, #20]	@ (8007074 <msch_set_config+0x6c>)
 8007060:	9306      	str	r3, [sp, #24]
 8007062:	f000 fe6d 	bl	8007d40 <tuh_control_xfer>
 8007066:	2800      	cmp	r0, #0
 8007068:	d0d9      	beq.n	800701e <msch_set_config+0x16>
 800706a:	b009      	add	sp, #36	@ 0x24
 800706c:	bd30      	pop	{r4, r5, pc}
 800706e:	bf00      	nop
 8007070:	24001b64 	.word	0x24001b64
 8007074:	08006bd9 	.word	0x08006bd9

08007078 <advance_index>:
 8007078:	440a      	add	r2, r1
 800707a:	0040      	lsls	r0, r0, #1
 800707c:	b292      	uxth	r2, r2
 800707e:	4291      	cmp	r1, r2
 8007080:	d801      	bhi.n	8007086 <advance_index+0xe>
 8007082:	4282      	cmp	r2, r0
 8007084:	db01      	blt.n	800708a <advance_index+0x12>
 8007086:	1a12      	subs	r2, r2, r0
 8007088:	b292      	uxth	r2, r2
 800708a:	4610      	mov	r0, r2
 800708c:	4770      	bx	lr

0800708e <_tu_fifo_peek>:
 800708e:	b538      	push	{r3, r4, r5, lr}
 8007090:	4605      	mov	r5, r0
 8007092:	1ad4      	subs	r4, r2, r3
 8007094:	429a      	cmp	r2, r3
 8007096:	4608      	mov	r0, r1
 8007098:	b2a4      	uxth	r4, r4
 800709a:	88a9      	ldrh	r1, [r5, #4]
 800709c:	bf3c      	itt	cc
 800709e:	eb04 0441 	addcc.w	r4, r4, r1, lsl #1
 80070a2:	b2a4      	uxthcc	r4, r4
 80070a4:	b1b4      	cbz	r4, 80070d4 <_tu_fifo_peek+0x46>
 80070a6:	42a1      	cmp	r1, r4
 80070a8:	d205      	bcs.n	80070b6 <_tu_fifo_peek+0x28>
 80070aa:	4291      	cmp	r1, r2
 80070ac:	bf94      	ite	ls
 80070ae:	1a52      	subls	r2, r2, r1
 80070b0:	1852      	addhi	r2, r2, r1
 80070b2:	b293      	uxth	r3, r2
 80070b4:	816b      	strh	r3, [r5, #10]
 80070b6:	4299      	cmp	r1, r3
 80070b8:	d909      	bls.n	80070ce <_tu_fifo_peek+0x40>
 80070ba:	88ea      	ldrh	r2, [r5, #6]
 80070bc:	6829      	ldr	r1, [r5, #0]
 80070be:	f3c2 020e 	ubfx	r2, r2, #0, #15
 80070c2:	fb02 1103 	mla	r1, r2, r3, r1
 80070c6:	f001 fdb5 	bl	8008c34 <memcpy>
 80070ca:	2001      	movs	r0, #1
 80070cc:	bd38      	pop	{r3, r4, r5, pc}
 80070ce:	1a5b      	subs	r3, r3, r1
 80070d0:	b29b      	uxth	r3, r3
 80070d2:	e7f0      	b.n	80070b6 <_tu_fifo_peek+0x28>
 80070d4:	4620      	mov	r0, r4
 80070d6:	e7f9      	b.n	80070cc <_tu_fifo_peek+0x3e>

080070d8 <tu_fifo_empty>:
 80070d8:	8902      	ldrh	r2, [r0, #8]
 80070da:	8943      	ldrh	r3, [r0, #10]
 80070dc:	b292      	uxth	r2, r2
 80070de:	b29b      	uxth	r3, r3
 80070e0:	1ad3      	subs	r3, r2, r3
 80070e2:	4258      	negs	r0, r3
 80070e4:	4158      	adcs	r0, r3
 80070e6:	4770      	bx	lr

080070e8 <tu_fifo_full>:
 80070e8:	8903      	ldrh	r3, [r0, #8]
 80070ea:	8942      	ldrh	r2, [r0, #10]
 80070ec:	b29b      	uxth	r3, r3
 80070ee:	8881      	ldrh	r1, [r0, #4]
 80070f0:	b292      	uxth	r2, r2
 80070f2:	4293      	cmp	r3, r2
 80070f4:	bf36      	itet	cc
 80070f6:	ebc2 0241 	rsbcc	r2, r2, r1, lsl #1
 80070fa:	1a9b      	subcs	r3, r3, r2
 80070fc:	189b      	addcc	r3, r3, r2
 80070fe:	b29b      	uxth	r3, r3
 8007100:	4299      	cmp	r1, r3
 8007102:	bf8c      	ite	hi
 8007104:	2000      	movhi	r0, #0
 8007106:	2001      	movls	r0, #1
 8007108:	4770      	bx	lr

0800710a <tu_fifo_read>:
 800710a:	8902      	ldrh	r2, [r0, #8]
 800710c:	8943      	ldrh	r3, [r0, #10]
 800710e:	b292      	uxth	r2, r2
 8007110:	b29b      	uxth	r3, r3
 8007112:	b510      	push	{r4, lr}
 8007114:	4604      	mov	r4, r0
 8007116:	f7ff ffba 	bl	800708e <_tu_fifo_peek>
 800711a:	4603      	mov	r3, r0
 800711c:	4602      	mov	r2, r0
 800711e:	8961      	ldrh	r1, [r4, #10]
 8007120:	88a0      	ldrh	r0, [r4, #4]
 8007122:	b289      	uxth	r1, r1
 8007124:	f7ff ffa8 	bl	8007078 <advance_index>
 8007128:	8160      	strh	r0, [r4, #10]
 800712a:	4618      	mov	r0, r3
 800712c:	bd10      	pop	{r4, pc}

0800712e <tu_fifo_write>:
 800712e:	b570      	push	{r4, r5, r6, lr}
 8007130:	8905      	ldrh	r5, [r0, #8]
 8007132:	4604      	mov	r4, r0
 8007134:	460e      	mov	r6, r1
 8007136:	b2ad      	uxth	r5, r5
 8007138:	f7ff ffd6 	bl	80070e8 <tu_fifo_full>
 800713c:	b110      	cbz	r0, 8007144 <tu_fifo_write+0x16>
 800713e:	79e0      	ldrb	r0, [r4, #7]
 8007140:	09c0      	lsrs	r0, r0, #7
 8007142:	d013      	beq.n	800716c <tu_fifo_write+0x3e>
 8007144:	88a3      	ldrh	r3, [r4, #4]
 8007146:	4628      	mov	r0, r5
 8007148:	4283      	cmp	r3, r0
 800714a:	d910      	bls.n	800716e <tu_fifo_write+0x40>
 800714c:	88e2      	ldrh	r2, [r4, #6]
 800714e:	4631      	mov	r1, r6
 8007150:	6823      	ldr	r3, [r4, #0]
 8007152:	f3c2 020e 	ubfx	r2, r2, #0, #15
 8007156:	fb02 3000 	mla	r0, r2, r0, r3
 800715a:	f001 fd6b 	bl	8008c34 <memcpy>
 800715e:	2201      	movs	r2, #1
 8007160:	4629      	mov	r1, r5
 8007162:	88a0      	ldrh	r0, [r4, #4]
 8007164:	f7ff ff88 	bl	8007078 <advance_index>
 8007168:	8120      	strh	r0, [r4, #8]
 800716a:	2001      	movs	r0, #1
 800716c:	bd70      	pop	{r4, r5, r6, pc}
 800716e:	1ac0      	subs	r0, r0, r3
 8007170:	b280      	uxth	r0, r0
 8007172:	e7e9      	b.n	8007148 <tu_fifo_write+0x1a>

08007174 <tu_fifo_clear>:
 8007174:	2300      	movs	r3, #0
 8007176:	8143      	strh	r3, [r0, #10]
 8007178:	8103      	strh	r3, [r0, #8]
 800717a:	2001      	movs	r0, #1
 800717c:	4770      	bx	lr
	...

08007180 <get_driver>:
 8007180:	4b06      	ldr	r3, [pc, #24]	@ (800719c <get_driver+0x1c>)
 8007182:	781b      	ldrb	r3, [r3, #0]
 8007184:	4283      	cmp	r3, r0
 8007186:	d905      	bls.n	8007194 <get_driver+0x14>
 8007188:	4b05      	ldr	r3, [pc, #20]	@ (80071a0 <get_driver+0x20>)
 800718a:	221c      	movs	r2, #28
 800718c:	681b      	ldr	r3, [r3, #0]
 800718e:	fb02 3000 	mla	r0, r2, r0, r3
 8007192:	4770      	bx	lr
 8007194:	bf14      	ite	ne
 8007196:	2000      	movne	r0, #0
 8007198:	4802      	ldreq	r0, [pc, #8]	@ (80071a4 <get_driver+0x24>)
 800719a:	4770      	bx	lr
 800719c:	24001b81 	.word	0x24001b81
 80071a0:	24001b84 	.word	0x24001b84
 80071a4:	080094b4 	.word	0x080094b4

080071a8 <_control_blocking_complete_cb>:
 80071a8:	78c2      	ldrb	r2, [r0, #3]
 80071aa:	6943      	ldr	r3, [r0, #20]
 80071ac:	701a      	strb	r2, [r3, #0]
 80071ae:	4770      	bx	lr

080071b0 <_control_xfer_complete>:
 80071b0:	4b11      	ldr	r3, [pc, #68]	@ (80071f8 <_control_xfer_complete+0x48>)
 80071b2:	b530      	push	{r4, r5, lr}
 80071b4:	4605      	mov	r5, r0
 80071b6:	b089      	sub	sp, #36	@ 0x24
 80071b8:	460c      	mov	r4, r1
 80071ba:	466a      	mov	r2, sp
 80071bc:	f88d 5008 	strb.w	r5, [sp, #8]
 80071c0:	f88d 400b 	strb.w	r4, [sp, #11]
 80071c4:	e893 0003 	ldmia.w	r3, {r0, r1}
 80071c8:	4b0c      	ldr	r3, [pc, #48]	@ (80071fc <_control_xfer_complete+0x4c>)
 80071ca:	e9cd 0100 	strd	r0, r1, [sp]
 80071ce:	8ad9      	ldrh	r1, [r3, #22]
 80071d0:	2000      	movs	r0, #0
 80071d2:	b289      	uxth	r1, r1
 80071d4:	f8ad 0009 	strh.w	r0, [sp, #9]
 80071d8:	e9cd 1203 	strd	r1, r2, [sp, #12]
 80071dc:	689a      	ldr	r2, [r3, #8]
 80071de:	6919      	ldr	r1, [r3, #16]
 80071e0:	9205      	str	r2, [sp, #20]
 80071e2:	9107      	str	r1, [sp, #28]
 80071e4:	68da      	ldr	r2, [r3, #12]
 80071e6:	7d19      	ldrb	r1, [r3, #20]
 80071e8:	9206      	str	r2, [sp, #24]
 80071ea:	b101      	cbz	r1, 80071ee <_control_xfer_complete+0x3e>
 80071ec:	7518      	strb	r0, [r3, #20]
 80071ee:	b10a      	cbz	r2, 80071f4 <_control_xfer_complete+0x44>
 80071f0:	a802      	add	r0, sp, #8
 80071f2:	4790      	blx	r2
 80071f4:	b009      	add	sp, #36	@ 0x24
 80071f6:	bd30      	pop	{r4, r5, pc}
 80071f8:	24001b88 	.word	0x24001b88
 80071fc:	24000010 	.word	0x24000010

08007200 <usbh_int_set>:
 8007200:	4603      	mov	r3, r0
 8007202:	4a03      	ldr	r2, [pc, #12]	@ (8007210 <usbh_int_set+0x10>)
 8007204:	7810      	ldrb	r0, [r2, #0]
 8007206:	b10b      	cbz	r3, 800720c <usbh_int_set+0xc>
 8007208:	f001 b908 	b.w	800841c <hcd_int_enable>
 800720c:	f001 b909 	b.w	8008422 <hcd_int_disable>
 8007210:	24000010 	.word	0x24000010

08007214 <clear_device.constprop.0>:
 8007214:	b508      	push	{r3, lr}
 8007216:	225e      	movs	r2, #94	@ 0x5e
 8007218:	2100      	movs	r1, #0
 800721a:	4809      	ldr	r0, [pc, #36]	@ (8007240 <clear_device.constprop.0+0x2c>)
 800721c:	f001 fcd1 	bl	8008bc2 <memset>
 8007220:	4a07      	ldr	r2, [pc, #28]	@ (8007240 <clear_device.constprop.0+0x2c>)
 8007222:	f04f 33ff 	mov.w	r3, #4294967295
 8007226:	21ff      	movs	r1, #255	@ 0xff
 8007228:	4610      	mov	r0, r2
 800722a:	f8c2 3015 	str.w	r3, [r2, #21]
 800722e:	f8c2 3019 	str.w	r3, [r2, #25]
 8007232:	301d      	adds	r0, #29
 8007234:	2220      	movs	r2, #32
 8007236:	e8bd 4008 	ldmia.w	sp!, {r3, lr}
 800723a:	f001 bcc2 	b.w	8008bc2 <memset>
 800723e:	bf00      	nop
 8007240:	24001d54 	.word	0x24001d54

08007244 <process_removed_device>:
 8007244:	e92d 47f0 	stmdb	sp!, {r4, r5, r6, r7, r8, r9, sl, lr}
 8007248:	2300      	movs	r3, #0
 800724a:	4605      	mov	r5, r0
 800724c:	460e      	mov	r6, r1
 800724e:	4617      	mov	r7, r2
 8007250:	4c20      	ldr	r4, [pc, #128]	@ (80072d4 <process_removed_device+0x90>)
 8007252:	f8df 8088 	ldr.w	r8, [pc, #136]	@ 80072dc <process_removed_device+0x98>
 8007256:	7822      	ldrb	r2, [r4, #0]
 8007258:	b10b      	cbz	r3, 800725e <process_removed_device+0x1a>
 800725a:	e8bd 87f0 	ldmia.w	sp!, {r4, r5, r6, r7, r8, r9, sl, pc}
 800725e:	42aa      	cmp	r2, r5
 8007260:	d1fb      	bne.n	800725a <process_removed_device+0x16>
 8007262:	7d23      	ldrb	r3, [r4, #20]
 8007264:	07db      	lsls	r3, r3, #31
 8007266:	d5f8      	bpl.n	800725a <process_removed_device+0x16>
 8007268:	b116      	cbz	r6, 8007270 <process_removed_device+0x2c>
 800726a:	7863      	ldrb	r3, [r4, #1]
 800726c:	42b3      	cmp	r3, r6
 800726e:	d126      	bne.n	80072be <process_removed_device+0x7a>
 8007270:	b117      	cbz	r7, 8007278 <process_removed_device+0x34>
 8007272:	78a3      	ldrb	r3, [r4, #2]
 8007274:	42bb      	cmp	r3, r7
 8007276:	d122      	bne.n	80072be <process_removed_device+0x7a>
 8007278:	f1b8 0f00 	cmp.w	r8, #0
 800727c:	d002      	beq.n	8007284 <process_removed_device+0x40>
 800727e:	2001      	movs	r0, #1
 8007280:	f3af 8000 	nop.w
 8007284:	f04f 0a00 	mov.w	sl, #0
 8007288:	f8df 9054 	ldr.w	r9, [pc, #84]	@ 80072e0 <process_removed_device+0x9c>
 800728c:	fa5f f08a 	uxtb.w	r0, sl
 8007290:	f899 3000 	ldrb.w	r3, [r9]
 8007294:	4283      	cmp	r3, r0
 8007296:	d214      	bcs.n	80072c2 <process_removed_device+0x7e>
 8007298:	2101      	movs	r1, #1
 800729a:	4628      	mov	r0, r5
 800729c:	f001 f8de 	bl	800845c <hcd_device_close>
 80072a0:	4b0d      	ldr	r3, [pc, #52]	@ (80072d8 <process_removed_device+0x94>)
 80072a2:	7d5a      	ldrb	r2, [r3, #21]
 80072a4:	2a01      	cmp	r2, #1
 80072a6:	d103      	bne.n	80072b0 <process_removed_device+0x6c>
 80072a8:	7d1a      	ldrb	r2, [r3, #20]
 80072aa:	b10a      	cbz	r2, 80072b0 <process_removed_device+0x6c>
 80072ac:	2200      	movs	r2, #0
 80072ae:	751a      	strb	r2, [r3, #20]
 80072b0:	785a      	ldrb	r2, [r3, #1]
 80072b2:	2a01      	cmp	r2, #1
 80072b4:	bf04      	itt	eq
 80072b6:	22ff      	moveq	r2, #255	@ 0xff
 80072b8:	705a      	strbeq	r2, [r3, #1]
 80072ba:	f7ff ffab 	bl	8007214 <clear_device.constprop.0>
 80072be:	2301      	movs	r3, #1
 80072c0:	e7c9      	b.n	8007256 <process_removed_device+0x12>
 80072c2:	f7ff ff5d 	bl	8007180 <get_driver>
 80072c6:	b110      	cbz	r0, 80072ce <process_removed_device+0x8a>
 80072c8:	6983      	ldr	r3, [r0, #24]
 80072ca:	2001      	movs	r0, #1
 80072cc:	4798      	blx	r3
 80072ce:	f10a 0a01 	add.w	sl, sl, #1
 80072d2:	e7db      	b.n	800728c <process_removed_device+0x48>
 80072d4:	24001d54 	.word	0x24001d54
 80072d8:	24000010 	.word	0x24000010
 80072dc:	00000000 	.word	0x00000000
 80072e0:	24001b81 	.word	0x24001b81

080072e4 <tuh_enum_descriptor_device_cb>:
 80072e4:	4770      	bx	lr

080072e6 <tuh_enum_descriptor_configuration_cb>:
 80072e6:	2001      	movs	r0, #1
 80072e8:	4770      	bx	lr

080072ea <tuh_event_hook_cb>:
 80072ea:	4770      	bx	lr

080072ec <tuh_connected>:
 80072ec:	b928      	cbnz	r0, 80072fa <tuh_connected+0xe>
 80072ee:	4b07      	ldr	r3, [pc, #28]	@ (800730c <tuh_connected+0x20>)
 80072f0:	7858      	ldrb	r0, [r3, #1]
 80072f2:	fab0 f080 	clz	r0, r0
 80072f6:	0940      	lsrs	r0, r0, #5
 80072f8:	4770      	bx	lr
 80072fa:	2801      	cmp	r0, #1
 80072fc:	d104      	bne.n	8007308 <tuh_connected+0x1c>
 80072fe:	4b04      	ldr	r3, [pc, #16]	@ (8007310 <tuh_connected+0x24>)
 8007300:	7d18      	ldrb	r0, [r3, #20]
 8007302:	f000 0001 	and.w	r0, r0, #1
 8007306:	4770      	bx	lr
 8007308:	2000      	movs	r0, #0
 800730a:	4770      	bx	lr
 800730c:	24000010 	.word	0x24000010
 8007310:	24001d54 	.word	0x24001d54

08007314 <tuh_rhport_init>:
 8007314:	e92d 41f0 	stmdb	sp!, {r4, r5, r6, r7, r8, lr}
 8007318:	4f24      	ldr	r7, [pc, #144]	@ (80073ac <tuh_rhport_init+0x98>)
 800731a:	4604      	mov	r4, r0
 800731c:	460d      	mov	r5, r1
 800731e:	783b      	ldrb	r3, [r7, #0]
 8007320:	4298      	cmp	r0, r3
 8007322:	d00a      	beq.n	800733a <tuh_rhport_init+0x26>
 8007324:	2bff      	cmp	r3, #255	@ 0xff
 8007326:	d00a      	beq.n	800733e <tuh_rhport_init+0x2a>
 8007328:	4629      	mov	r1, r5
 800732a:	4620      	mov	r0, r4
 800732c:	703c      	strb	r4, [r7, #0]
 800732e:	f001 f809 	bl	8008344 <hcd_init>
 8007332:	b388      	cbz	r0, 8007398 <tuh_rhport_init+0x84>
 8007334:	4620      	mov	r0, r4
 8007336:	f001 f871 	bl	800841c <hcd_int_enable>
 800733a:	2001      	movs	r0, #1
 800733c:	e033      	b.n	80073a6 <tuh_rhport_init+0x92>
 800733e:	481c      	ldr	r0, [pc, #112]	@ (80073b0 <tuh_rhport_init+0x9c>)
 8007340:	f7ff ff18 	bl	8007174 <tu_fifo_clear>
 8007344:	4b1b      	ldr	r3, [pc, #108]	@ (80073b4 <tuh_rhport_init+0xa0>)
 8007346:	4a1c      	ldr	r2, [pc, #112]	@ (80073b8 <tuh_rhport_init+0xa4>)
 8007348:	601a      	str	r2, [r3, #0]
 800734a:	4b1c      	ldr	r3, [pc, #112]	@ (80073bc <tuh_rhport_init+0xa8>)
 800734c:	b123      	cbz	r3, 8007358 <tuh_rhport_init+0x44>
 800734e:	481c      	ldr	r0, [pc, #112]	@ (80073c0 <tuh_rhport_init+0xac>)
 8007350:	f3af 8000 	nop.w
 8007354:	4b1b      	ldr	r3, [pc, #108]	@ (80073c4 <tuh_rhport_init+0xb0>)
 8007356:	6018      	str	r0, [r3, #0]
 8007358:	225e      	movs	r2, #94	@ 0x5e
 800735a:	2100      	movs	r1, #0
 800735c:	481a      	ldr	r0, [pc, #104]	@ (80073c8 <tuh_rhport_init+0xb4>)
 800735e:	2600      	movs	r6, #0
 8007360:	f001 fc2f 	bl	8008bc2 <memset>
 8007364:	221a      	movs	r2, #26
 8007366:	2100      	movs	r1, #0
 8007368:	4818      	ldr	r0, [pc, #96]	@ (80073cc <tuh_rhport_init+0xb8>)
 800736a:	f001 fc2a 	bl	8008bc2 <memset>
 800736e:	f8df 8050 	ldr.w	r8, [pc, #80]	@ 80073c0 <tuh_rhport_init+0xac>
 8007372:	f64f 73ff 	movw	r3, #65535	@ 0xffff
 8007376:	4a15      	ldr	r2, [pc, #84]	@ (80073cc <tuh_rhport_init+0xb8>)
 8007378:	f822 3c02 	strh.w	r3, [r2, #-2]
 800737c:	f7ff ff4a 	bl	8007214 <clear_device.constprop.0>
 8007380:	b2f0      	uxtb	r0, r6
 8007382:	f898 3000 	ldrb.w	r3, [r8]
 8007386:	4283      	cmp	r3, r0
 8007388:	d3ce      	bcc.n	8007328 <tuh_rhport_init+0x14>
 800738a:	f7ff fef9 	bl	8007180 <get_driver>
 800738e:	b108      	cbz	r0, 8007394 <tuh_rhport_init+0x80>
 8007390:	6843      	ldr	r3, [r0, #4]
 8007392:	4798      	blx	r3
 8007394:	3601      	adds	r6, #1
 8007396:	e7f3      	b.n	8007380 <tuh_rhport_init+0x6c>
 8007398:	f04f 23e0 	mov.w	r3, #3758153728	@ 0xe000e000
 800739c:	f8d3 3df0 	ldr.w	r3, [r3, #3568]	@ 0xdf0
 80073a0:	07db      	lsls	r3, r3, #31
 80073a2:	d500      	bpl.n	80073a6 <tuh_rhport_init+0x92>
 80073a4:	be00      	bkpt	0x0000
 80073a6:	e8bd 81f0 	ldmia.w	sp!, {r4, r5, r6, r7, r8, pc}
 80073aa:	bf00      	nop
 80073ac:	24000010 	.word	0x24000010
 80073b0:	24000030 	.word	0x24000030
 80073b4:	24001c90 	.word	0x24001c90
 80073b8:	2400002c 	.word	0x2400002c
 80073bc:	00000000 	.word	0x00000000
 80073c0:	24001b81 	.word	0x24001b81
 80073c4:	24001b84 	.word	0x24001b84
 80073c8:	24001d54 	.word	0x24001d54
 80073cc:	24000012 	.word	0x24000012

080073d0 <tuh_task_event_ready>:
 80073d0:	b508      	push	{r3, lr}
 80073d2:	4b07      	ldr	r3, [pc, #28]	@ (80073f0 <tuh_task_event_ready+0x20>)
 80073d4:	781b      	ldrb	r3, [r3, #0]
 80073d6:	2bff      	cmp	r3, #255	@ 0xff
 80073d8:	d008      	beq.n	80073ec <tuh_task_event_ready+0x1c>
 80073da:	4b06      	ldr	r3, [pc, #24]	@ (80073f4 <tuh_task_event_ready+0x24>)
 80073dc:	6818      	ldr	r0, [r3, #0]
 80073de:	3004      	adds	r0, #4
 80073e0:	f7ff fe7a 	bl	80070d8 <tu_fifo_empty>
 80073e4:	f080 0001 	eor.w	r0, r0, #1
 80073e8:	b2c0      	uxtb	r0, r0
 80073ea:	bd08      	pop	{r3, pc}
 80073ec:	2000      	movs	r0, #0
 80073ee:	e7fc      	b.n	80073ea <tuh_task_event_ready+0x1a>
 80073f0:	24000010 	.word	0x24000010
 80073f4:	24001c90 	.word	0x24001c90

080073f8 <usbh_get_enum_buf>:
 80073f8:	4800      	ldr	r0, [pc, #0]	@ (80073fc <usbh_get_enum_buf+0x4>)
 80073fa:	4770      	bx	lr
 80073fc:	24001b90 	.word	0x24001b90

08007400 <usbh_spin_lock>:
 8007400:	b908      	cbnz	r0, 8007406 <usbh_spin_lock+0x6>
 8007402:	f7ff befd 	b.w	8007200 <usbh_int_set>
 8007406:	4770      	bx	lr

08007408 <usbh_spin_unlock>:
 8007408:	b910      	cbnz	r0, 8007410 <usbh_spin_unlock+0x8>
 800740a:	2001      	movs	r0, #1
 800740c:	f7ff bef8 	b.w	8007200 <usbh_int_set>
 8007410:	4770      	bx	lr
	...

08007414 <usbh_edpt_claim>:
 8007414:	2801      	cmp	r0, #1
 8007416:	d103      	bne.n	8007420 <usbh_edpt_claim+0xc>
 8007418:	480b      	ldr	r0, [pc, #44]	@ (8007448 <usbh_edpt_claim+0x34>)
 800741a:	7d03      	ldrb	r3, [r0, #20]
 800741c:	07da      	lsls	r2, r3, #31
 800741e:	d408      	bmi.n	8007432 <usbh_edpt_claim+0x1e>
 8007420:	f04f 23e0 	mov.w	r3, #3758153728	@ 0xe000e000
 8007424:	f8d3 3df0 	ldr.w	r3, [r3, #3568]	@ 0xdf0
 8007428:	07db      	lsls	r3, r3, #31
 800742a:	d500      	bpl.n	800742e <usbh_edpt_claim+0x1a>
 800742c:	be00      	bkpt	0x0000
 800742e:	2000      	movs	r0, #0
 8007430:	4770      	bx	lr
 8007432:	09cb      	lsrs	r3, r1, #7
 8007434:	f001 027f 	and.w	r2, r1, #127	@ 0x7f
 8007438:	2100      	movs	r1, #0
 800743a:	333d      	adds	r3, #61	@ 0x3d
 800743c:	eb03 0342 	add.w	r3, r3, r2, lsl #1
 8007440:	4418      	add	r0, r3
 8007442:	f001 bb0f 	b.w	8008a64 <tu_edpt_claim>
 8007446:	bf00      	nop
 8007448:	24001d54 	.word	0x24001d54

0800744c <usbh_edpt_release>:
 800744c:	2801      	cmp	r0, #1
 800744e:	d10d      	bne.n	800746c <usbh_edpt_release+0x20>
 8007450:	4807      	ldr	r0, [pc, #28]	@ (8007470 <usbh_edpt_release+0x24>)
 8007452:	7d03      	ldrb	r3, [r0, #20]
 8007454:	07db      	lsls	r3, r3, #31
 8007456:	d509      	bpl.n	800746c <usbh_edpt_release+0x20>
 8007458:	09cb      	lsrs	r3, r1, #7
 800745a:	f001 027f 	and.w	r2, r1, #127	@ 0x7f
 800745e:	2100      	movs	r1, #0
 8007460:	333d      	adds	r3, #61	@ 0x3d
 8007462:	eb03 0342 	add.w	r3, r3, r2, lsl #1
 8007466:	4418      	add	r0, r3
 8007468:	f001 bb17 	b.w	8008a9a <tu_edpt_release>
 800746c:	2000      	movs	r0, #0
 800746e:	4770      	bx	lr
 8007470:	24001d54 	.word	0x24001d54

08007474 <usbh_edpt_xfer_with_callback>:
 8007474:	2801      	cmp	r0, #1
 8007476:	b573      	push	{r0, r1, r4, r5, r6, lr}
 8007478:	d112      	bne.n	80074a0 <usbh_edpt_xfer_with_callback+0x2c>
 800747a:	f001 047f 	and.w	r4, r1, #127	@ 0x7f
 800747e:	4e15      	ldr	r6, [pc, #84]	@ (80074d4 <usbh_edpt_xfer_with_callback+0x60>)
 8007480:	eb06 0444 	add.w	r4, r6, r4, lsl #1
 8007484:	eb04 14d1 	add.w	r4, r4, r1, lsr #7
 8007488:	f894 503d 	ldrb.w	r5, [r4, #61]	@ 0x3d
 800748c:	3438      	adds	r4, #56	@ 0x38
 800748e:	07ed      	lsls	r5, r5, #31
 8007490:	d509      	bpl.n	80074a6 <usbh_edpt_xfer_with_callback+0x32>
 8007492:	f04f 23e0 	mov.w	r3, #3758153728	@ 0xe000e000
 8007496:	f8d3 3df0 	ldr.w	r3, [r3, #3568]	@ 0xdf0
 800749a:	07db      	lsls	r3, r3, #31
 800749c:	d500      	bpl.n	80074a0 <usbh_edpt_xfer_with_callback+0x2c>
 800749e:	be00      	bkpt	0x0000
 80074a0:	2000      	movs	r0, #0
 80074a2:	b002      	add	sp, #8
 80074a4:	bd70      	pop	{r4, r5, r6, pc}
 80074a6:	7965      	ldrb	r5, [r4, #5]
 80074a8:	f045 0501 	orr.w	r5, r5, #1
 80074ac:	7165      	strb	r5, [r4, #5]
 80074ae:	9300      	str	r3, [sp, #0]
 80074b0:	4613      	mov	r3, r2
 80074b2:	460a      	mov	r2, r1
 80074b4:	4601      	mov	r1, r0
 80074b6:	7830      	ldrb	r0, [r6, #0]
 80074b8:	f001 f810 	bl	80084dc <hcd_edpt_xfer>
 80074bc:	2800      	cmp	r0, #0
 80074be:	d1f0      	bne.n	80074a2 <usbh_edpt_xfer_with_callback+0x2e>
 80074c0:	7962      	ldrb	r2, [r4, #5]
 80074c2:	f360 0200 	bfi	r2, r0, #0, #1
 80074c6:	7162      	strb	r2, [r4, #5]
 80074c8:	7962      	ldrb	r2, [r4, #5]
 80074ca:	f360 0282 	bfi	r2, r0, #2, #1
 80074ce:	7162      	strb	r2, [r4, #5]
 80074d0:	e7e6      	b.n	80074a0 <usbh_edpt_xfer_with_callback+0x2c>
 80074d2:	bf00      	nop
 80074d4:	24001d54 	.word	0x24001d54

080074d8 <tuh_bus_info_get>:
 80074d8:	2801      	cmp	r0, #1
 80074da:	f04f 0001 	mov.w	r0, #1
 80074de:	bf0b      	itete	eq
 80074e0:	4b03      	ldreq	r3, [pc, #12]	@ (80074f0 <tuh_bus_info_get+0x18>)
 80074e2:	4b04      	ldrne	r3, [pc, #16]	@ (80074f4 <tuh_bus_info_get+0x1c>)
 80074e4:	681b      	ldreq	r3, [r3, #0]
 80074e6:	f8d3 3003 	ldrne.w	r3, [r3, #3]
 80074ea:	600b      	str	r3, [r1, #0]
 80074ec:	4770      	bx	lr
 80074ee:	bf00      	nop
 80074f0:	24001d54 	.word	0x24001d54
 80074f4:	24000010 	.word	0x24000010

080074f8 <tuh_speed_get>:
 80074f8:	b507      	push	{r0, r1, r2, lr}
 80074fa:	a901      	add	r1, sp, #4
 80074fc:	f7ff ffec 	bl	80074d8 <tuh_bus_info_get>
 8007500:	f89d 0007 	ldrb.w	r0, [sp, #7]
 8007504:	b003      	add	sp, #12
 8007506:	bd00      	pop	{pc}

08007508 <usbh_get_rhport>:
 8007508:	b507      	push	{r0, r1, r2, lr}
 800750a:	a901      	add	r1, sp, #4
 800750c:	f7ff ffe4 	bl	80074d8 <tuh_bus_info_get>
 8007510:	f89d 0004 	ldrb.w	r0, [sp, #4]
 8007514:	b003      	add	sp, #12
 8007516:	bd00      	pop	{pc}

08007518 <usbh_edpt_control_open>:
 8007518:	2300      	movs	r3, #0
 800751a:	b513      	push	{r0, r1, r4, lr}
 800751c:	f8cd 3002 	str.w	r3, [sp, #2]
 8007520:	4604      	mov	r4, r0
 8007522:	f88d 3006 	strb.w	r3, [sp, #6]
 8007526:	2307      	movs	r3, #7
 8007528:	f8ad 1004 	strh.w	r1, [sp, #4]
 800752c:	466a      	mov	r2, sp
 800752e:	f88d 3000 	strb.w	r3, [sp]
 8007532:	2305      	movs	r3, #5
 8007534:	f88d 3001 	strb.w	r3, [sp, #1]
 8007538:	f7ff ffe6 	bl	8007508 <usbh_get_rhport>
 800753c:	4621      	mov	r1, r4
 800753e:	f000 ff8f 	bl	8008460 <hcd_edpt_open>
 8007542:	b002      	add	sp, #8
 8007544:	bd10      	pop	{r4, pc}
	...

08007548 <tuh_edpt_abort_xfer>:
 8007548:	b5f8      	push	{r3, r4, r5, r6, r7, lr}
 800754a:	f011 047f 	ands.w	r4, r1, #127	@ 0x7f
 800754e:	4603      	mov	r3, r0
 8007550:	460a      	mov	r2, r1
 8007552:	d10f      	bne.n	8007574 <tuh_edpt_abort_xfer+0x2c>
 8007554:	4d17      	ldr	r5, [pc, #92]	@ (80075b4 <tuh_edpt_abort_xfer+0x6c>)
 8007556:	7d6e      	ldrb	r6, [r5, #21]
 8007558:	4286      	cmp	r6, r0
 800755a:	d129      	bne.n	80075b0 <tuh_edpt_abort_xfer+0x68>
 800755c:	7d29      	ldrb	r1, [r5, #20]
 800755e:	b339      	cbz	r1, 80075b0 <tuh_edpt_abort_xfer+0x68>
 8007560:	f7ff ffd2 	bl	8007508 <usbh_get_rhport>
 8007564:	4631      	mov	r1, r6
 8007566:	f000 fffb 	bl	8008560 <hcd_edpt_abort_xfer>
 800756a:	7d2b      	ldrb	r3, [r5, #20]
 800756c:	b103      	cbz	r3, 8007570 <tuh_edpt_abort_xfer+0x28>
 800756e:	752c      	strb	r4, [r5, #20]
 8007570:	2001      	movs	r0, #1
 8007572:	bdf8      	pop	{r3, r4, r5, r6, r7, pc}
 8007574:	2801      	cmp	r0, #1
 8007576:	d11b      	bne.n	80075b0 <tuh_edpt_abort_xfer+0x68>
 8007578:	4e0f      	ldr	r6, [pc, #60]	@ (80075b8 <tuh_edpt_abort_xfer+0x70>)
 800757a:	0065      	lsls	r5, r4, #1
 800757c:	09cf      	lsrs	r7, r1, #7
 800757e:	eb06 0444 	add.w	r4, r6, r4, lsl #1
 8007582:	eb04 14d1 	add.w	r4, r4, r1, lsr #7
 8007586:	f894 003d 	ldrb.w	r0, [r4, #61]	@ 0x3d
 800758a:	3438      	adds	r4, #56	@ 0x38
 800758c:	f010 0001 	ands.w	r0, r0, #1
 8007590:	d0ef      	beq.n	8007572 <tuh_edpt_abort_xfer+0x2a>
 8007592:	4619      	mov	r1, r3
 8007594:	7830      	ldrb	r0, [r6, #0]
 8007596:	373d      	adds	r7, #61	@ 0x3d
 8007598:	f000 ffe2 	bl	8008560 <hcd_edpt_abort_xfer>
 800759c:	7963      	ldrb	r3, [r4, #5]
 800759e:	2100      	movs	r1, #0
 80075a0:	19e8      	adds	r0, r5, r7
 80075a2:	f023 0301 	bic.w	r3, r3, #1
 80075a6:	4430      	add	r0, r6
 80075a8:	7163      	strb	r3, [r4, #5]
 80075aa:	f001 fa76 	bl	8008a9a <tu_edpt_release>
 80075ae:	e7df      	b.n	8007570 <tuh_edpt_abort_xfer+0x28>
 80075b0:	2000      	movs	r0, #0
 80075b2:	e7de      	b.n	8007572 <tuh_edpt_abort_xfer+0x2a>
 80075b4:	24000010 	.word	0x24000010
 80075b8:	24001d54 	.word	0x24001d54

080075bc <tuh_edpt_open>:
 80075bc:	b538      	push	{r3, r4, r5, lr}
 80075be:	460d      	mov	r5, r1
 80075c0:	4604      	mov	r4, r0
 80075c2:	2201      	movs	r2, #1
 80075c4:	f7ff ff98 	bl	80074f8 <tuh_speed_get>
 80075c8:	4601      	mov	r1, r0
 80075ca:	4628      	mov	r0, r5
 80075cc:	f001 fa76 	bl	8008abc <tu_edpt_validate>
 80075d0:	b940      	cbnz	r0, 80075e4 <tuh_edpt_open+0x28>
 80075d2:	f04f 23e0 	mov.w	r3, #3758153728	@ 0xe000e000
 80075d6:	f8d3 3df0 	ldr.w	r3, [r3, #3568]	@ 0xdf0
 80075da:	07db      	lsls	r3, r3, #31
 80075dc:	d500      	bpl.n	80075e0 <tuh_edpt_open+0x24>
 80075de:	be00      	bkpt	0x0000
 80075e0:	2000      	movs	r0, #0
 80075e2:	bd38      	pop	{r3, r4, r5, pc}
 80075e4:	4620      	mov	r0, r4
 80075e6:	462a      	mov	r2, r5
 80075e8:	f7ff ff8e 	bl	8007508 <usbh_get_rhport>
 80075ec:	4621      	mov	r1, r4
 80075ee:	e8bd 4038 	ldmia.w	sp!, {r3, r4, r5, lr}
 80075f2:	f000 bf35 	b.w	8008460 <hcd_edpt_open>
	...

080075f8 <usbh_control_xfer_cb.isra.0>:
 80075f8:	2901      	cmp	r1, #1
 80075fa:	b573      	push	{r0, r1, r4, r5, r6, lr}
 80075fc:	4604      	mov	r4, r0
 80075fe:	d004      	beq.n	800760a <usbh_control_xfer_cb.isra.0+0x12>
 8007600:	2902      	cmp	r1, #2
 8007602:	d024      	beq.n	800764e <usbh_control_xfer_cb.isra.0+0x56>
 8007604:	b341      	cbz	r1, 8007658 <usbh_control_xfer_cb.isra.0+0x60>
 8007606:	b002      	add	sp, #8
 8007608:	bd70      	pop	{r4, r5, r6, pc}
 800760a:	f7ff fe6f 	bl	80072ec <tuh_connected>
 800760e:	b1e0      	cbz	r0, 800764a <usbh_control_xfer_cb.isra.0+0x52>
 8007610:	4d32      	ldr	r5, [pc, #200]	@ (80076dc <usbh_control_xfer_cb.isra.0+0xe4>)
 8007612:	7e2b      	ldrb	r3, [r5, #24]
 8007614:	2b02      	cmp	r3, #2
 8007616:	d818      	bhi.n	800764a <usbh_control_xfer_cb.isra.0+0x52>
 8007618:	3301      	adds	r3, #1
 800761a:	4620      	mov	r0, r4
 800761c:	7529      	strb	r1, [r5, #20]
 800761e:	762b      	strb	r3, [r5, #24]
 8007620:	2300      	movs	r3, #0
 8007622:	4a2f      	ldr	r2, [pc, #188]	@ (80076e0 <usbh_control_xfer_cb.isra.0+0xe8>)
 8007624:	82eb      	strh	r3, [r5, #22]
 8007626:	f7ff ff6f 	bl	8007508 <usbh_get_rhport>
 800762a:	4621      	mov	r1, r4
 800762c:	f000 ffbe 	bl	80085ac <hcd_setup_send>
 8007630:	2800      	cmp	r0, #0
 8007632:	d1e8      	bne.n	8007606 <usbh_control_xfer_cb.isra.0+0xe>
 8007634:	7d2b      	ldrb	r3, [r5, #20]
 8007636:	b103      	cbz	r3, 800763a <usbh_control_xfer_cb.isra.0+0x42>
 8007638:	7528      	strb	r0, [r5, #20]
 800763a:	f04f 23e0 	mov.w	r3, #3758153728	@ 0xe000e000
 800763e:	f8d3 3df0 	ldr.w	r3, [r3, #3568]	@ 0xdf0
 8007642:	07db      	lsls	r3, r3, #31
 8007644:	d5df      	bpl.n	8007606 <usbh_control_xfer_cb.isra.0+0xe>
 8007646:	be00      	bkpt	0x0000
 8007648:	e7dd      	b.n	8007606 <usbh_control_xfer_cb.isra.0+0xe>
 800764a:	2101      	movs	r1, #1
 800764c:	4620      	mov	r0, r4
 800764e:	b002      	add	sp, #8
 8007650:	e8bd 4070 	ldmia.w	sp!, {r4, r5, r6, lr}
 8007654:	f7ff bdac 	b.w	80071b0 <_control_xfer_complete>
 8007658:	f7ff ff56 	bl	8007508 <usbh_get_rhport>
 800765c:	4b1f      	ldr	r3, [pc, #124]	@ (80076dc <usbh_control_xfer_cb.isra.0+0xe4>)
 800765e:	7d1d      	ldrb	r5, [r3, #20]
 8007660:	2d02      	cmp	r5, #2
 8007662:	b2e9      	uxtb	r1, r5
 8007664:	d016      	beq.n	8007694 <usbh_control_xfer_cb.isra.0+0x9c>
 8007666:	2903      	cmp	r1, #3
 8007668:	d021      	beq.n	80076ae <usbh_control_xfer_cb.isra.0+0xb6>
 800766a:	2901      	cmp	r1, #1
 800766c:	d1cb      	bne.n	8007606 <usbh_control_xfer_cb.isra.0+0xe>
 800766e:	4d1c      	ldr	r5, [pc, #112]	@ (80076e0 <usbh_control_xfer_cb.isra.0+0xe8>)
 8007670:	88e9      	ldrh	r1, [r5, #6]
 8007672:	b179      	cbz	r1, 8007694 <usbh_control_xfer_cb.isra.0+0x9c>
 8007674:	7d1a      	ldrb	r2, [r3, #20]
 8007676:	2a02      	cmp	r2, #2
 8007678:	d001      	beq.n	800767e <usbh_control_xfer_cb.isra.0+0x86>
 800767a:	2202      	movs	r2, #2
 800767c:	751a      	strb	r2, [r3, #20]
 800767e:	782a      	ldrb	r2, [r5, #0]
 8007680:	9100      	str	r1, [sp, #0]
 8007682:	689b      	ldr	r3, [r3, #8]
 8007684:	f002 0280 	and.w	r2, r2, #128	@ 0x80
 8007688:	4621      	mov	r1, r4
 800768a:	f000 ff27 	bl	80084dc <hcd_edpt_xfer>
 800768e:	2800      	cmp	r0, #0
 8007690:	d1b9      	bne.n	8007606 <usbh_control_xfer_cb.isra.0+0xe>
 8007692:	e7d2      	b.n	800763a <usbh_control_xfer_cb.isra.0+0x42>
 8007694:	b292      	uxth	r2, r2
 8007696:	82da      	strh	r2, [r3, #22]
 8007698:	7d1a      	ldrb	r2, [r3, #20]
 800769a:	2a03      	cmp	r2, #3
 800769c:	d001      	beq.n	80076a2 <usbh_control_xfer_cb.isra.0+0xaa>
 800769e:	2203      	movs	r2, #3
 80076a0:	751a      	strb	r2, [r3, #20]
 80076a2:	4b0f      	ldr	r3, [pc, #60]	@ (80076e0 <usbh_control_xfer_cb.isra.0+0xe8>)
 80076a4:	781a      	ldrb	r2, [r3, #0]
 80076a6:	2300      	movs	r3, #0
 80076a8:	43d2      	mvns	r2, r2
 80076aa:	9300      	str	r3, [sp, #0]
 80076ac:	e7ea      	b.n	8007684 <usbh_control_xfer_cb.isra.0+0x8c>
 80076ae:	4b0c      	ldr	r3, [pc, #48]	@ (80076e0 <usbh_control_xfer_cb.isra.0+0xe8>)
 80076b0:	785a      	ldrb	r2, [r3, #1]
 80076b2:	2a09      	cmp	r2, #9
 80076b4:	d10f      	bne.n	80076d6 <usbh_control_xfer_cb.isra.0+0xde>
 80076b6:	781b      	ldrb	r3, [r3, #0]
 80076b8:	b96b      	cbnz	r3, 80076d6 <usbh_control_xfer_cb.isra.0+0xde>
 80076ba:	2501      	movs	r5, #1
 80076bc:	4629      	mov	r1, r5
 80076be:	4620      	mov	r0, r4
 80076c0:	f7ff ff42 	bl	8007548 <tuh_edpt_abort_xfer>
 80076c4:	f045 0180 	orr.w	r1, r5, #128	@ 0x80
 80076c8:	3501      	adds	r5, #1
 80076ca:	4620      	mov	r0, r4
 80076cc:	f7ff ff3c 	bl	8007548 <tuh_edpt_abort_xfer>
 80076d0:	b2ed      	uxtb	r5, r5
 80076d2:	2d10      	cmp	r5, #16
 80076d4:	d1f2      	bne.n	80076bc <usbh_control_xfer_cb.isra.0+0xc4>
 80076d6:	2100      	movs	r1, #0
 80076d8:	e7b8      	b.n	800764c <usbh_control_xfer_cb.isra.0+0x54>
 80076da:	bf00      	nop
 80076dc:	24000010 	.word	0x24000010
 80076e0:	24001b88 	.word	0x24001b88

080076e4 <hcd_event_handler>:
 80076e4:	b5f8      	push	{r3, r4, r5, r6, r7, lr}
 80076e6:	7842      	ldrb	r2, [r0, #1]
 80076e8:	4604      	mov	r4, r0
 80076ea:	460d      	mov	r5, r1
 80076ec:	2a01      	cmp	r2, #1
 80076ee:	d80d      	bhi.n	800770c <hcd_event_handler+0x28>
 80076f0:	7903      	ldrb	r3, [r0, #4]
 80076f2:	b95b      	cbnz	r3, 800770c <hcd_event_handler+0x28>
 80076f4:	4914      	ldr	r1, [pc, #80]	@ (8007748 <hcd_event_handler+0x64>)
 80076f6:	7800      	ldrb	r0, [r0, #0]
 80076f8:	788b      	ldrb	r3, [r1, #2]
 80076fa:	fa23 f600 	lsr.w	r6, r3, r0
 80076fe:	07f6      	lsls	r6, r6, #31
 8007700:	d41b      	bmi.n	800773a <hcd_event_handler+0x56>
 8007702:	b91a      	cbnz	r2, 800770c <hcd_event_handler+0x28>
 8007704:	2201      	movs	r2, #1
 8007706:	4082      	lsls	r2, r0
 8007708:	4313      	orrs	r3, r2
 800770a:	708b      	strb	r3, [r1, #2]
 800770c:	4b0f      	ldr	r3, [pc, #60]	@ (800774c <hcd_event_handler+0x68>)
 800770e:	681f      	ldr	r7, [r3, #0]
 8007710:	b915      	cbnz	r5, 8007718 <hcd_event_handler+0x34>
 8007712:	683b      	ldr	r3, [r7, #0]
 8007714:	4628      	mov	r0, r5
 8007716:	4798      	blx	r3
 8007718:	4621      	mov	r1, r4
 800771a:	1d38      	adds	r0, r7, #4
 800771c:	f7ff fd07 	bl	800712e <tu_fifo_write>
 8007720:	4606      	mov	r6, r0
 8007722:	b915      	cbnz	r5, 800772a <hcd_event_handler+0x46>
 8007724:	683b      	ldr	r3, [r7, #0]
 8007726:	2001      	movs	r0, #1
 8007728:	4798      	blx	r3
 800772a:	b93e      	cbnz	r6, 800773c <hcd_event_handler+0x58>
 800772c:	f04f 23e0 	mov.w	r3, #3758153728	@ 0xe000e000
 8007730:	f8d3 3df0 	ldr.w	r3, [r3, #3568]	@ 0xdf0
 8007734:	07db      	lsls	r3, r3, #31
 8007736:	d500      	bpl.n	800773a <hcd_event_handler+0x56>
 8007738:	be00      	bkpt	0x0000
 800773a:	bdf8      	pop	{r3, r4, r5, r6, r7, pc}
 800773c:	462a      	mov	r2, r5
 800773e:	7861      	ldrb	r1, [r4, #1]
 8007740:	7820      	ldrb	r0, [r4, #0]
 8007742:	f7ff fdd2 	bl	80072ea <tuh_event_hook_cb>
 8007746:	e7f8      	b.n	800773a <hcd_event_handler+0x56>
 8007748:	24000010 	.word	0x24000010
 800774c:	24001c90 	.word	0x24001c90

08007750 <usbh_driver_set_config_complete>:
 8007750:	3101      	adds	r1, #1
 8007752:	2801      	cmp	r0, #1
 8007754:	b2c9      	uxtb	r1, r1
 8007756:	b570      	push	{r4, r5, r6, lr}
 8007758:	f101 0314 	add.w	r3, r1, #20
 800775c:	4c0f      	ldr	r4, [pc, #60]	@ (800779c <usbh_driver_set_config_complete+0x4c>)
 800775e:	bf18      	it	ne
 8007760:	2400      	movne	r4, #0
 8007762:	4605      	mov	r5, r0
 8007764:	441c      	add	r4, r3
 8007766:	2907      	cmp	r1, #7
 8007768:	d90a      	bls.n	8007780 <usbh_driver_set_config_complete+0x30>
 800776a:	2908      	cmp	r1, #8
 800776c:	d107      	bne.n	800777e <usbh_driver_set_config_complete+0x2e>
 800776e:	4b0c      	ldr	r3, [pc, #48]	@ (80077a0 <usbh_driver_set_config_complete+0x50>)
 8007770:	22ff      	movs	r2, #255	@ 0xff
 8007772:	705a      	strb	r2, [r3, #1]
 8007774:	4b0b      	ldr	r3, [pc, #44]	@ (80077a4 <usbh_driver_set_config_complete+0x54>)
 8007776:	b113      	cbz	r3, 800777e <usbh_driver_set_config_complete+0x2e>
 8007778:	4628      	mov	r0, r5
 800777a:	f3af 8000 	nop.w
 800777e:	bd70      	pop	{r4, r5, r6, pc}
 8007780:	f814 0f01 	ldrb.w	r0, [r4, #1]!
 8007784:	f7ff fcfc 	bl	8007180 <get_driver>
 8007788:	b120      	cbz	r0, 8007794 <usbh_driver_set_config_complete+0x44>
 800778a:	6903      	ldr	r3, [r0, #16]
 800778c:	4628      	mov	r0, r5
 800778e:	e8bd 4070 	ldmia.w	sp!, {r4, r5, r6, lr}
 8007792:	4718      	bx	r3
 8007794:	3101      	adds	r1, #1
 8007796:	b2c9      	uxtb	r1, r1
 8007798:	e7e5      	b.n	8007766 <usbh_driver_set_config_complete+0x16>
 800779a:	bf00      	nop
 800779c:	24001d54 	.word	0x24001d54
 80077a0:	24000010 	.word	0x24000010
 80077a4:	00000000 	.word	0x00000000

080077a8 <process_enumeration>:
 80077a8:	e92d 4ff0 	stmdb	sp!, {r4, r5, r6, r7, r8, r9, sl, fp, lr}
 80077ac:	78c3      	ldrb	r3, [r0, #3]
 80077ae:	b087      	sub	sp, #28
 80077b0:	4606      	mov	r6, r0
 80077b2:	4a92      	ldr	r2, [pc, #584]	@ (80079fc <process_enumeration+0x254>)
 80077b4:	2b01      	cmp	r3, #1
 80077b6:	d117      	bne.n	80077e8 <process_enumeration+0x40>
 80077b8:	7813      	ldrb	r3, [r2, #0]
 80077ba:	4c91      	ldr	r4, [pc, #580]	@ (8007a00 <process_enumeration+0x258>)
 80077bc:	3301      	adds	r3, #1
 80077be:	b2db      	uxtb	r3, r3
 80077c0:	7013      	strb	r3, [r2, #0]
 80077c2:	7862      	ldrb	r2, [r4, #1]
 80077c4:	2aff      	cmp	r2, #255	@ 0xff
 80077c6:	d104      	bne.n	80077d2 <process_enumeration+0x2a>
 80077c8:	23ff      	movs	r3, #255	@ 0xff
 80077ca:	7063      	strb	r3, [r4, #1]
 80077cc:	b007      	add	sp, #28
 80077ce:	e8bd 8ff0 	ldmia.w	sp!, {r4, r5, r6, r7, r8, r9, sl, fp, pc}
 80077d2:	2b02      	cmp	r3, #2
 80077d4:	d8f8      	bhi.n	80077c8 <process_enumeration+0x20>
 80077d6:	2064      	movs	r0, #100	@ 0x64
 80077d8:	f001 f908 	bl	80089ec <tusb_time_delay_ms_api>
 80077dc:	4630      	mov	r0, r6
 80077de:	f000 faaf 	bl	8007d40 <tuh_control_xfer>
 80077e2:	2800      	cmp	r0, #0
 80077e4:	d0f0      	beq.n	80077c8 <process_enumeration+0x20>
 80077e6:	e7f1      	b.n	80077cc <process_enumeration+0x24>
 80077e8:	7804      	ldrb	r4, [r0, #0]
 80077ea:	2300      	movs	r3, #0
 80077ec:	2c01      	cmp	r4, #1
 80077ee:	7013      	strb	r3, [r2, #0]
 80077f0:	6943      	ldr	r3, [r0, #20]
 80077f2:	d008      	beq.n	8007806 <process_enumeration+0x5e>
 80077f4:	b1ec      	cbz	r4, 8007832 <process_enumeration+0x8a>
 80077f6:	f04f 23e0 	mov.w	r3, #3758153728	@ 0xe000e000
 80077fa:	f8d3 3df0 	ldr.w	r3, [r3, #3568]	@ 0xdf0
 80077fe:	07db      	lsls	r3, r3, #31
 8007800:	d5e4      	bpl.n	80077cc <process_enumeration+0x24>
 8007802:	be00      	bkpt	0x0000
 8007804:	e7e2      	b.n	80077cc <process_enumeration+0x24>
 8007806:	4d7f      	ldr	r5, [pc, #508]	@ (8007a04 <process_enumeration+0x25c>)
 8007808:	1f5a      	subs	r2, r3, #5
 800780a:	2a0e      	cmp	r2, #14
 800780c:	f200 818d 	bhi.w	8007b2a <process_enumeration+0x382>
 8007810:	e8df f012 	tbh	[pc, r2, lsl #1]
 8007814:	00250011 	.word	0x00250011
 8007818:	006c0043 	.word	0x006c0043
 800781c:	00990090 	.word	0x00990090
 8007820:	00b700a8 	.word	0x00b700a8
 8007824:	00c900c1 	.word	0x00c900c1
 8007828:	00d900d3 	.word	0x00d900d3
 800782c:	010000e4 	.word	0x010000e4
 8007830:	011c      	.short	0x011c
 8007832:	4625      	mov	r5, r4
 8007834:	e7e8      	b.n	8007808 <process_enumeration+0x60>
 8007836:	200a      	movs	r0, #10
 8007838:	f001 f8d8 	bl	80089ec <tusb_time_delay_ms_api>
 800783c:	2108      	movs	r1, #8
 800783e:	2000      	movs	r0, #0
 8007840:	f7ff fe6a 	bl	8007518 <usbh_edpt_control_open>
 8007844:	2800      	cmp	r0, #0
 8007846:	d0d6      	beq.n	80077f6 <process_enumeration+0x4e>
 8007848:	2306      	movs	r3, #6
 800784a:	2208      	movs	r2, #8
 800784c:	496e      	ldr	r1, [pc, #440]	@ (8007a08 <process_enumeration+0x260>)
 800784e:	2000      	movs	r0, #0
 8007850:	9300      	str	r3, [sp, #0]
 8007852:	4b6e      	ldr	r3, [pc, #440]	@ (8007a0c <process_enumeration+0x264>)
 8007854:	f000 fb01 	bl	8007e5a <tuh_descriptor_get_device>
 8007858:	2800      	cmp	r0, #0
 800785a:	d1b7      	bne.n	80077cc <process_enumeration+0x24>
 800785c:	e7cb      	b.n	80077f6 <process_enumeration+0x4e>
 800785e:	4c68      	ldr	r4, [pc, #416]	@ (8007a00 <process_enumeration+0x258>)
 8007860:	7921      	ldrb	r1, [r4, #4]
 8007862:	7962      	ldrb	r2, [r4, #5]
 8007864:	78e0      	ldrb	r0, [r4, #3]
 8007866:	f7ff fced 	bl	8007244 <process_removed_device>
 800786a:	4969      	ldr	r1, [pc, #420]	@ (8007a10 <process_enumeration+0x268>)
 800786c:	7b0b      	ldrb	r3, [r1, #12]
 800786e:	2b09      	cmp	r3, #9
 8007870:	d0c1      	beq.n	80077f6 <process_enumeration+0x4e>
 8007872:	4b64      	ldr	r3, [pc, #400]	@ (8007a04 <process_enumeration+0x25c>)
 8007874:	7d18      	ldrb	r0, [r3, #20]
 8007876:	f010 0001 	ands.w	r0, r0, #1
 800787a:	d1bc      	bne.n	80077f6 <process_enumeration+0x4e>
 800787c:	f8d4 2003 	ldr.w	r2, [r4, #3]
 8007880:	601a      	str	r2, [r3, #0]
 8007882:	7d1a      	ldrb	r2, [r3, #20]
 8007884:	f042 0201 	orr.w	r2, r2, #1
 8007888:	751a      	strb	r2, [r3, #20]
 800788a:	7bca      	ldrb	r2, [r1, #15]
 800788c:	2101      	movs	r1, #1
 800788e:	725a      	strb	r2, [r3, #9]
 8007890:	2307      	movs	r3, #7
 8007892:	4a5e      	ldr	r2, [pc, #376]	@ (8007a0c <process_enumeration+0x264>)
 8007894:	f000 fb1e 	bl	8007ed4 <tuh_address_set>
 8007898:	e7de      	b.n	8007858 <process_enumeration+0xb0>
 800789a:	2002      	movs	r0, #2
 800789c:	f001 f8a6 	bl	80089ec <tusb_time_delay_ms_api>
 80078a0:	68b3      	ldr	r3, [r6, #8]
 80078a2:	885b      	ldrh	r3, [r3, #2]
 80078a4:	b2db      	uxtb	r3, r3
 80078a6:	2b01      	cmp	r3, #1
 80078a8:	d1a5      	bne.n	80077f6 <process_enumeration+0x4e>
 80078aa:	4d56      	ldr	r5, [pc, #344]	@ (8007a04 <process_enumeration+0x25c>)
 80078ac:	2100      	movs	r1, #0
 80078ae:	4c54      	ldr	r4, [pc, #336]	@ (8007a00 <process_enumeration+0x258>)
 80078b0:	7d2a      	ldrb	r2, [r5, #20]
 80078b2:	78e0      	ldrb	r0, [r4, #3]
 80078b4:	f042 0202 	orr.w	r2, r2, #2
 80078b8:	7063      	strb	r3, [r4, #1]
 80078ba:	752a      	strb	r2, [r5, #20]
 80078bc:	f000 fdce 	bl	800845c <hcd_device_close>
 80078c0:	7d63      	ldrb	r3, [r4, #21]
 80078c2:	b913      	cbnz	r3, 80078ca <process_enumeration+0x122>
 80078c4:	7d22      	ldrb	r2, [r4, #20]
 80078c6:	b102      	cbz	r2, 80078ca <process_enumeration+0x122>
 80078c8:	7523      	strb	r3, [r4, #20]
 80078ca:	7863      	ldrb	r3, [r4, #1]
 80078cc:	b90b      	cbnz	r3, 80078d2 <process_enumeration+0x12a>
 80078ce:	23ff      	movs	r3, #255	@ 0xff
 80078d0:	7063      	strb	r3, [r4, #1]
 80078d2:	7a69      	ldrb	r1, [r5, #9]
 80078d4:	2001      	movs	r0, #1
 80078d6:	f7ff fe1f 	bl	8007518 <usbh_edpt_control_open>
 80078da:	2800      	cmp	r0, #0
 80078dc:	d08b      	beq.n	80077f6 <process_enumeration+0x4e>
 80078de:	2308      	movs	r3, #8
 80078e0:	2212      	movs	r2, #18
 80078e2:	4949      	ldr	r1, [pc, #292]	@ (8007a08 <process_enumeration+0x260>)
 80078e4:	2001      	movs	r0, #1
 80078e6:	9300      	str	r3, [sp, #0]
 80078e8:	4b48      	ldr	r3, [pc, #288]	@ (8007a0c <process_enumeration+0x264>)
 80078ea:	e7b3      	b.n	8007854 <process_enumeration+0xac>
 80078ec:	4e48      	ldr	r6, [pc, #288]	@ (8007a10 <process_enumeration+0x268>)
 80078ee:	8ab3      	ldrh	r3, [r6, #20]
 80078f0:	8970      	ldrh	r0, [r6, #10]
 80078f2:	81eb      	strh	r3, [r5, #14]
 80078f4:	80a8      	strh	r0, [r5, #4]
 80078f6:	8af3      	ldrh	r3, [r6, #22]
 80078f8:	89b0      	ldrh	r0, [r6, #12]
 80078fa:	8a31      	ldrh	r1, [r6, #16]
 80078fc:	8a72      	ldrh	r2, [r6, #18]
 80078fe:	80e8      	strh	r0, [r5, #6]
 8007900:	822b      	strh	r3, [r5, #16]
 8007902:	89f0      	ldrh	r0, [r6, #14]
 8007904:	8b33      	ldrh	r3, [r6, #24]
 8007906:	8128      	strh	r0, [r5, #8]
 8007908:	4620      	mov	r0, r4
 800790a:	8169      	strh	r1, [r5, #10]
 800790c:	f106 0108 	add.w	r1, r6, #8
 8007910:	826b      	strh	r3, [r5, #18]
 8007912:	81aa      	strh	r2, [r5, #12]
 8007914:	f7ff fce6 	bl	80072e4 <tuh_enum_descriptor_device_cb>
 8007918:	2309      	movs	r3, #9
 800791a:	9302      	str	r3, [sp, #8]
 800791c:	4b3b      	ldr	r3, [pc, #236]	@ (8007a0c <process_enumeration+0x264>)
 800791e:	9301      	str	r3, [sp, #4]
 8007920:	2302      	movs	r3, #2
 8007922:	9300      	str	r3, [sp, #0]
 8007924:	f106 0308 	add.w	r3, r6, #8
 8007928:	2200      	movs	r2, #0
 800792a:	4611      	mov	r1, r2
 800792c:	4620      	mov	r0, r4
 800792e:	f000 fab0 	bl	8007e92 <tuh_descriptor_get_string>
 8007932:	e74b      	b.n	80077cc <process_enumeration+0x24>
 8007934:	230a      	movs	r3, #10
 8007936:	9302      	str	r3, [sp, #8]
 8007938:	4b34      	ldr	r3, [pc, #208]	@ (8007a0c <process_enumeration+0x264>)
 800793a:	9301      	str	r3, [sp, #4]
 800793c:	68f3      	ldr	r3, [r6, #12]
 800793e:	781b      	ldrb	r3, [r3, #0]
 8007940:	9300      	str	r3, [sp, #0]
 8007942:	4b31      	ldr	r3, [pc, #196]	@ (8007a08 <process_enumeration+0x260>)
 8007944:	e7f0      	b.n	8007928 <process_enumeration+0x180>
 8007946:	4a32      	ldr	r2, [pc, #200]	@ (8007a10 <process_enumeration+0x268>)
 8007948:	7a11      	ldrb	r1, [r2, #8]
 800794a:	2903      	cmp	r1, #3
 800794c:	7c29      	ldrb	r1, [r5, #16]
 800794e:	bf8c      	ite	hi
 8007950:	8952      	ldrhhi	r2, [r2, #10]
 8007952:	f240 4209 	movwls	r2, #1033	@ 0x409
 8007956:	b139      	cbz	r1, 8007968 <process_enumeration+0x1c0>
 8007958:	230b      	movs	r3, #11
 800795a:	9302      	str	r3, [sp, #8]
 800795c:	4b2b      	ldr	r3, [pc, #172]	@ (8007a0c <process_enumeration+0x264>)
 800795e:	9301      	str	r3, [sp, #4]
 8007960:	2302      	movs	r3, #2
 8007962:	e00b      	b.n	800797c <process_enumeration+0x1d4>
 8007964:	f240 4209 	movw	r2, #1033	@ 0x409
 8007968:	7c29      	ldrb	r1, [r5, #16]
 800796a:	b161      	cbz	r1, 8007986 <process_enumeration+0x1de>
 800796c:	68b3      	ldr	r3, [r6, #8]
 800796e:	889a      	ldrh	r2, [r3, #4]
 8007970:	230c      	movs	r3, #12
 8007972:	9302      	str	r3, [sp, #8]
 8007974:	4b25      	ldr	r3, [pc, #148]	@ (8007a0c <process_enumeration+0x264>)
 8007976:	9301      	str	r3, [sp, #4]
 8007978:	68f3      	ldr	r3, [r6, #12]
 800797a:	781b      	ldrb	r3, [r3, #0]
 800797c:	9300      	str	r3, [sp, #0]
 800797e:	4b22      	ldr	r3, [pc, #136]	@ (8007a08 <process_enumeration+0x260>)
 8007980:	e7d4      	b.n	800792c <process_enumeration+0x184>
 8007982:	f240 4209 	movw	r2, #1033	@ 0x409
 8007986:	7c69      	ldrb	r1, [r5, #17]
 8007988:	b139      	cbz	r1, 800799a <process_enumeration+0x1f2>
 800798a:	2b0c      	cmp	r3, #12
 800798c:	bf04      	itt	eq
 800798e:	68b3      	ldreq	r3, [r6, #8]
 8007990:	889a      	ldrheq	r2, [r3, #4]
 8007992:	230d      	movs	r3, #13
 8007994:	e7e1      	b.n	800795a <process_enumeration+0x1b2>
 8007996:	f240 4209 	movw	r2, #1033	@ 0x409
 800799a:	7c69      	ldrb	r1, [r5, #17]
 800799c:	b129      	cbz	r1, 80079aa <process_enumeration+0x202>
 800799e:	68b3      	ldr	r3, [r6, #8]
 80079a0:	889a      	ldrh	r2, [r3, #4]
 80079a2:	230e      	movs	r3, #14
 80079a4:	e7e5      	b.n	8007972 <process_enumeration+0x1ca>
 80079a6:	f240 4209 	movw	r2, #1033	@ 0x409
 80079aa:	7ca9      	ldrb	r1, [r5, #18]
 80079ac:	b129      	cbz	r1, 80079ba <process_enumeration+0x212>
 80079ae:	2b0e      	cmp	r3, #14
 80079b0:	bf04      	itt	eq
 80079b2:	68b3      	ldreq	r3, [r6, #8]
 80079b4:	889a      	ldrheq	r2, [r3, #4]
 80079b6:	230f      	movs	r3, #15
 80079b8:	e7cf      	b.n	800795a <process_enumeration+0x1b2>
 80079ba:	7ca9      	ldrb	r1, [r5, #18]
 80079bc:	b119      	cbz	r1, 80079c6 <process_enumeration+0x21e>
 80079be:	68b3      	ldr	r3, [r6, #8]
 80079c0:	889a      	ldrh	r2, [r3, #4]
 80079c2:	2310      	movs	r3, #16
 80079c4:	e7d5      	b.n	8007972 <process_enumeration+0x1ca>
 80079c6:	2311      	movs	r3, #17
 80079c8:	4a0f      	ldr	r2, [pc, #60]	@ (8007a08 <process_enumeration+0x260>)
 80079ca:	2100      	movs	r1, #0
 80079cc:	9301      	str	r3, [sp, #4]
 80079ce:	4b0f      	ldr	r3, [pc, #60]	@ (8007a0c <process_enumeration+0x264>)
 80079d0:	9300      	str	r3, [sp, #0]
 80079d2:	2309      	movs	r3, #9
 80079d4:	4620      	mov	r0, r4
 80079d6:	f000 fa4f 	bl	8007e78 <tuh_descriptor_get_configuration>
 80079da:	e73d      	b.n	8007858 <process_enumeration+0xb0>
 80079dc:	4a0c      	ldr	r2, [pc, #48]	@ (8007a10 <process_enumeration+0x268>)
 80079de:	8953      	ldrh	r3, [r2, #10]
 80079e0:	f5b3 7f80 	cmp.w	r3, #256	@ 0x100
 80079e4:	f63f af07 	bhi.w	80077f6 <process_enumeration+0x4e>
 80079e8:	68b1      	ldr	r1, [r6, #8]
 80079ea:	2012      	movs	r0, #18
 80079ec:	3208      	adds	r2, #8
 80079ee:	8889      	ldrh	r1, [r1, #4]
 80079f0:	9001      	str	r0, [sp, #4]
 80079f2:	4806      	ldr	r0, [pc, #24]	@ (8007a0c <process_enumeration+0x264>)
 80079f4:	b2c9      	uxtb	r1, r1
 80079f6:	9000      	str	r0, [sp, #0]
 80079f8:	e7ec      	b.n	80079d4 <process_enumeration+0x22c>
 80079fa:	bf00      	nop
 80079fc:	24001b80 	.word	0x24001b80
 8007a00:	24000010 	.word	0x24000010
 8007a04:	24001d54 	.word	0x24001d54
 8007a08:	24001b90 	.word	0x24001b90
 8007a0c:	080077a9 	.word	0x080077a9
 8007a10:	24001b88 	.word	0x24001b88
 8007a14:	68b3      	ldr	r3, [r6, #8]
 8007a16:	4620      	mov	r0, r4
 8007a18:	4a46      	ldr	r2, [pc, #280]	@ (8007b34 <process_enumeration+0x38c>)
 8007a1a:	889e      	ldrh	r6, [r3, #4]
 8007a1c:	b2f6      	uxtb	r6, r6
 8007a1e:	4631      	mov	r1, r6
 8007a20:	f7ff fc61 	bl	80072e6 <tuh_enum_descriptor_configuration_cb>
 8007a24:	1c71      	adds	r1, r6, #1
 8007a26:	b2c9      	uxtb	r1, r1
 8007a28:	b128      	cbz	r0, 8007a36 <process_enumeration+0x28e>
 8007a2a:	2313      	movs	r3, #19
 8007a2c:	4a42      	ldr	r2, [pc, #264]	@ (8007b38 <process_enumeration+0x390>)
 8007a2e:	4620      	mov	r0, r4
 8007a30:	f000 fa74 	bl	8007f1c <tuh_configuration_set>
 8007a34:	e710      	b.n	8007858 <process_enumeration+0xb0>
 8007a36:	7ceb      	ldrb	r3, [r5, #19]
 8007a38:	428b      	cmp	r3, r1
 8007a3a:	f67f aedc 	bls.w	80077f6 <process_enumeration+0x4e>
 8007a3e:	2311      	movs	r3, #17
 8007a40:	4a3c      	ldr	r2, [pc, #240]	@ (8007b34 <process_enumeration+0x38c>)
 8007a42:	9301      	str	r3, [sp, #4]
 8007a44:	4b3c      	ldr	r3, [pc, #240]	@ (8007b38 <process_enumeration+0x390>)
 8007a46:	9300      	str	r3, [sp, #0]
 8007a48:	2309      	movs	r3, #9
 8007a4a:	e7c3      	b.n	80079d4 <process_enumeration+0x22c>
 8007a4c:	7d2b      	ldrb	r3, [r5, #20]
 8007a4e:	2c01      	cmp	r4, #1
 8007a50:	4f3a      	ldr	r7, [pc, #232]	@ (8007b3c <process_enumeration+0x394>)
 8007a52:	f043 0304 	orr.w	r3, r3, #4
 8007a56:	752b      	strb	r3, [r5, #20]
 8007a58:	bf0c      	ite	eq
 8007a5a:	463b      	moveq	r3, r7
 8007a5c:	2300      	movne	r3, #0
 8007a5e:	9305      	str	r3, [sp, #20]
 8007a60:	4b37      	ldr	r3, [pc, #220]	@ (8007b40 <process_enumeration+0x398>)
 8007a62:	f103 0208 	add.w	r2, r3, #8
 8007a66:	8959      	ldrh	r1, [r3, #10]
 8007a68:	7a1d      	ldrb	r5, [r3, #8]
 8007a6a:	eb01 0b02 	add.w	fp, r1, r2
 8007a6e:	4415      	add	r5, r2
 8007a70:	45ab      	cmp	fp, r5
 8007a72:	d806      	bhi.n	8007a82 <process_enumeration+0x2da>
 8007a74:	21ff      	movs	r1, #255	@ 0xff
 8007a76:	4620      	mov	r0, r4
 8007a78:	b007      	add	sp, #28
 8007a7a:	e8bd 4ff0 	ldmia.w	sp!, {r4, r5, r6, r7, r8, r9, sl, fp, lr}
 8007a7e:	f7ff be67 	b.w	8007750 <usbh_driver_set_config_complete>
 8007a82:	782b      	ldrb	r3, [r5, #0]
 8007a84:	2b00      	cmp	r3, #0
 8007a86:	d0f5      	beq.n	8007a74 <process_enumeration+0x2cc>
 8007a88:	786a      	ldrb	r2, [r5, #1]
 8007a8a:	2a0b      	cmp	r2, #11
 8007a8c:	bf06      	itte	eq
 8007a8e:	f895 a003 	ldrbeq.w	sl, [r5, #3]
 8007a92:	18ed      	addeq	r5, r5, r3
 8007a94:	f04f 0a01 	movne.w	sl, #1
 8007a98:	786b      	ldrb	r3, [r5, #1]
 8007a9a:	2b04      	cmp	r3, #4
 8007a9c:	d008      	beq.n	8007ab0 <process_enumeration+0x308>
 8007a9e:	f04f 23e0 	mov.w	r3, #3758153728	@ 0xe000e000
 8007aa2:	f8d3 3df0 	ldr.w	r3, [r3, #3568]	@ 0xdf0
 8007aa6:	07da      	lsls	r2, r3, #31
 8007aa8:	f57f aea5 	bpl.w	80077f6 <process_enumeration+0x4e>
 8007aac:	be00      	bkpt	0x0000
 8007aae:	e6a2      	b.n	80077f6 <process_enumeration+0x4e>
 8007ab0:	ebab 0205 	sub.w	r2, fp, r5
 8007ab4:	4651      	mov	r1, sl
 8007ab6:	4628      	mov	r0, r5
 8007ab8:	b292      	uxth	r2, r2
 8007aba:	f001 f855 	bl	8008b68 <tu_desc_get_interface_total_len>
 8007abe:	2808      	cmp	r0, #8
 8007ac0:	4606      	mov	r6, r0
 8007ac2:	d9ec      	bls.n	8007a9e <process_enumeration+0x2f6>
 8007ac4:	f04f 0900 	mov.w	r9, #0
 8007ac8:	e018      	b.n	8007afc <process_enumeration+0x354>
 8007aca:	78a9      	ldrb	r1, [r5, #2]
 8007acc:	3201      	adds	r2, #1
 8007ace:	440b      	add	r3, r1
 8007ad0:	9905      	ldr	r1, [sp, #20]
 8007ad2:	fa51 f383 	uxtab	r3, r1, r3
 8007ad6:	7d59      	ldrb	r1, [r3, #21]
 8007ad8:	29ff      	cmp	r1, #255	@ 0xff
 8007ada:	d1e0      	bne.n	8007a9e <process_enumeration+0x2f6>
 8007adc:	f883 8015 	strb.w	r8, [r3, #21]
 8007ae0:	b2d3      	uxtb	r3, r2
 8007ae2:	4553      	cmp	r3, sl
 8007ae4:	d3f1      	bcc.n	8007aca <process_enumeration+0x322>
 8007ae6:	9805      	ldr	r0, [sp, #20]
 8007ae8:	4643      	mov	r3, r8
 8007aea:	4632      	mov	r2, r6
 8007aec:	4629      	mov	r1, r5
 8007aee:	301d      	adds	r0, #29
 8007af0:	f001 f828 	bl	8008b44 <tu_edpt_bind_driver>
 8007af4:	4435      	add	r5, r6
 8007af6:	e7bb      	b.n	8007a70 <process_enumeration+0x2c8>
 8007af8:	f109 0901 	add.w	r9, r9, #1
 8007afc:	4b11      	ldr	r3, [pc, #68]	@ (8007b44 <process_enumeration+0x39c>)
 8007afe:	fa5f f889 	uxtb.w	r8, r9
 8007b02:	781b      	ldrb	r3, [r3, #0]
 8007b04:	4543      	cmp	r3, r8
 8007b06:	d3f5      	bcc.n	8007af4 <process_enumeration+0x34c>
 8007b08:	4640      	mov	r0, r8
 8007b0a:	f7ff fb39 	bl	8007180 <get_driver>
 8007b0e:	2800      	cmp	r0, #0
 8007b10:	d0f2      	beq.n	8007af8 <process_enumeration+0x350>
 8007b12:	68c3      	ldr	r3, [r0, #12]
 8007b14:	462a      	mov	r2, r5
 8007b16:	9805      	ldr	r0, [sp, #20]
 8007b18:	4621      	mov	r1, r4
 8007b1a:	461f      	mov	r7, r3
 8007b1c:	4633      	mov	r3, r6
 8007b1e:	7800      	ldrb	r0, [r0, #0]
 8007b20:	47b8      	blx	r7
 8007b22:	2800      	cmp	r0, #0
 8007b24:	d0e8      	beq.n	8007af8 <process_enumeration+0x350>
 8007b26:	2200      	movs	r2, #0
 8007b28:	e7da      	b.n	8007ae0 <process_enumeration+0x338>
 8007b2a:	4b07      	ldr	r3, [pc, #28]	@ (8007b48 <process_enumeration+0x3a0>)
 8007b2c:	22ff      	movs	r2, #255	@ 0xff
 8007b2e:	705a      	strb	r2, [r3, #1]
 8007b30:	e64c      	b.n	80077cc <process_enumeration+0x24>
 8007b32:	bf00      	nop
 8007b34:	24001b90 	.word	0x24001b90
 8007b38:	080077a9 	.word	0x080077a9
 8007b3c:	24001d54 	.word	0x24001d54
 8007b40:	24001b88 	.word	0x24001b88
 8007b44:	24001b81 	.word	0x24001b81
 8007b48:	24000010 	.word	0x24000010

08007b4c <tuh_task_ext>:
 8007b4c:	e92d 47f0 	stmdb	sp!, {r4, r5, r6, r7, r8, r9, sl, lr}
 8007b50:	4c78      	ldr	r4, [pc, #480]	@ (8007d34 <tuh_task_ext+0x1e8>)
 8007b52:	b08a      	sub	sp, #40	@ 0x28
 8007b54:	460d      	mov	r5, r1
 8007b56:	7823      	ldrb	r3, [r4, #0]
 8007b58:	2bff      	cmp	r3, #255	@ 0xff
 8007b5a:	d079      	beq.n	8007c50 <tuh_task_ext+0x104>
 8007b5c:	4f76      	ldr	r7, [pc, #472]	@ (8007d38 <tuh_task_ext+0x1ec>)
 8007b5e:	f8df 81dc 	ldr.w	r8, [pc, #476]	@ 8007d3c <tuh_task_ext+0x1f0>
 8007b62:	f8d7 9000 	ldr.w	r9, [r7]
 8007b66:	2000      	movs	r0, #0
 8007b68:	464e      	mov	r6, r9
 8007b6a:	f856 3b04 	ldr.w	r3, [r6], #4
 8007b6e:	4798      	blx	r3
 8007b70:	a901      	add	r1, sp, #4
 8007b72:	4630      	mov	r0, r6
 8007b74:	f7ff fac9 	bl	800710a <tu_fifo_read>
 8007b78:	4606      	mov	r6, r0
 8007b7a:	f8d9 3000 	ldr.w	r3, [r9]
 8007b7e:	2001      	movs	r0, #1
 8007b80:	4798      	blx	r3
 8007b82:	2e00      	cmp	r6, #0
 8007b84:	d064      	beq.n	8007c50 <tuh_task_ext+0x104>
 8007b86:	f89d 3005 	ldrb.w	r3, [sp, #5]
 8007b8a:	2b03      	cmp	r3, #3
 8007b8c:	d8e9      	bhi.n	8007b62 <tuh_task_ext+0x16>
 8007b8e:	e8df f003 	tbb	[pc, r3]
 8007b92:	6a02      	.short	0x6a02
 8007b94:	c98a      	.short	0xc98a
 8007b96:	7863      	ldrb	r3, [r4, #1]
 8007b98:	2bff      	cmp	r3, #255	@ 0xff
 8007b9a:	d136      	bne.n	8007c0a <tuh_task_ext+0xbe>
 8007b9c:	2300      	movs	r3, #0
 8007b9e:	f89d 2004 	ldrb.w	r2, [sp, #4]
 8007ba2:	2096      	movs	r0, #150	@ 0x96
 8007ba4:	7063      	strb	r3, [r4, #1]
 8007ba6:	f8bd 3008 	ldrh.w	r3, [sp, #8]
 8007baa:	70e2      	strb	r2, [r4, #3]
 8007bac:	80a3      	strh	r3, [r4, #4]
 8007bae:	f000 ff1d 	bl	80089ec <tusb_time_delay_ms_api>
 8007bb2:	7926      	ldrb	r6, [r4, #4]
 8007bb4:	2e00      	cmp	r6, #0
 8007bb6:	d1d4      	bne.n	8007b62 <tuh_task_ext+0x16>
 8007bb8:	78e0      	ldrb	r0, [r4, #3]
 8007bba:	2201      	movs	r2, #1
 8007bbc:	78a3      	ldrb	r3, [r4, #2]
 8007bbe:	4082      	lsls	r2, r0
 8007bc0:	ea23 0302 	bic.w	r3, r3, r2
 8007bc4:	70a3      	strb	r3, [r4, #2]
 8007bc6:	f000 fc2f 	bl	8008428 <hcd_port_connect_status>
 8007bca:	b910      	cbnz	r0, 8007bd2 <tuh_task_ext+0x86>
 8007bcc:	23ff      	movs	r3, #255	@ 0xff
 8007bce:	7063      	strb	r3, [r4, #1]
 8007bd0:	e7c7      	b.n	8007b62 <tuh_task_ext+0x16>
 8007bd2:	78e0      	ldrb	r0, [r4, #3]
 8007bd4:	f000 fc30 	bl	8008438 <hcd_port_reset>
 8007bd8:	2032      	movs	r0, #50	@ 0x32
 8007bda:	f000 ff07 	bl	80089ec <tusb_time_delay_ms_api>
 8007bde:	78e0      	ldrb	r0, [r4, #3]
 8007be0:	f000 fc2f 	bl	8008442 <hcd_port_reset_end>
 8007be4:	78e0      	ldrb	r0, [r4, #3]
 8007be6:	f000 fc1f 	bl	8008428 <hcd_port_connect_status>
 8007bea:	2800      	cmp	r0, #0
 8007bec:	d0ee      	beq.n	8007bcc <tuh_task_ext+0x80>
 8007bee:	78e0      	ldrb	r0, [r4, #3]
 8007bf0:	f000 fc2c 	bl	800844c <hcd_port_speed_get>
 8007bf4:	2305      	movs	r3, #5
 8007bf6:	71a0      	strb	r0, [r4, #6]
 8007bf8:	a804      	add	r0, sp, #16
 8007bfa:	f88d 6010 	strb.w	r6, [sp, #16]
 8007bfe:	f88d 6013 	strb.w	r6, [sp, #19]
 8007c02:	9309      	str	r3, [sp, #36]	@ 0x24
 8007c04:	f7ff fdd0 	bl	80077a8 <process_enumeration>
 8007c08:	e7ab      	b.n	8007b62 <tuh_task_ext+0x16>
 8007c0a:	6838      	ldr	r0, [r7, #0]
 8007c0c:	3004      	adds	r0, #4
 8007c0e:	f7ff fa63 	bl	80070d8 <tu_fifo_empty>
 8007c12:	f8d7 a000 	ldr.w	sl, [r7]
 8007c16:	4606      	mov	r6, r0
 8007c18:	b91d      	cbnz	r5, 8007c22 <tuh_task_ext+0xd6>
 8007c1a:	f8da 3000 	ldr.w	r3, [sl]
 8007c1e:	4628      	mov	r0, r5
 8007c20:	4798      	blx	r3
 8007c22:	a901      	add	r1, sp, #4
 8007c24:	f10a 0004 	add.w	r0, sl, #4
 8007c28:	f7ff fa81 	bl	800712e <tu_fifo_write>
 8007c2c:	4681      	mov	r9, r0
 8007c2e:	b91d      	cbnz	r5, 8007c38 <tuh_task_ext+0xec>
 8007c30:	f8da 3000 	ldr.w	r3, [sl]
 8007c34:	2001      	movs	r0, #1
 8007c36:	4798      	blx	r3
 8007c38:	f1b9 0f00 	cmp.w	r9, #0
 8007c3c:	d10b      	bne.n	8007c56 <tuh_task_ext+0x10a>
 8007c3e:	f04f 23e0 	mov.w	r3, #3758153728	@ 0xe000e000
 8007c42:	f8d3 3df0 	ldr.w	r3, [r3, #3568]	@ 0xdf0
 8007c46:	07d9      	lsls	r1, r3, #31
 8007c48:	d500      	bpl.n	8007c4c <tuh_task_ext+0x100>
 8007c4a:	be00      	bkpt	0x0000
 8007c4c:	2e00      	cmp	r6, #0
 8007c4e:	d088      	beq.n	8007b62 <tuh_task_ext+0x16>
 8007c50:	b00a      	add	sp, #40	@ 0x28
 8007c52:	e8bd 87f0 	ldmia.w	sp!, {r4, r5, r6, r7, r8, r9, sl, pc}
 8007c56:	462a      	mov	r2, r5
 8007c58:	f89d 1005 	ldrb.w	r1, [sp, #5]
 8007c5c:	f89d 0004 	ldrb.w	r0, [sp, #4]
 8007c60:	f7ff fb43 	bl	80072ea <tuh_event_hook_cb>
 8007c64:	e7f2      	b.n	8007c4c <tuh_task_ext+0x100>
 8007c66:	7861      	ldrb	r1, [r4, #1]
 8007c68:	f89d 3004 	ldrb.w	r3, [sp, #4]
 8007c6c:	b999      	cbnz	r1, 8007c96 <tuh_task_ext+0x14a>
 8007c6e:	78e0      	ldrb	r0, [r4, #3]
 8007c70:	4298      	cmp	r0, r3
 8007c72:	d110      	bne.n	8007c96 <tuh_task_ext+0x14a>
 8007c74:	f8bd 6008 	ldrh.w	r6, [sp, #8]
 8007c78:	88a2      	ldrh	r2, [r4, #4]
 8007c7a:	4296      	cmp	r6, r2
 8007c7c:	d10b      	bne.n	8007c96 <tuh_task_ext+0x14a>
 8007c7e:	f000 fbed 	bl	800845c <hcd_device_close>
 8007c82:	7d63      	ldrb	r3, [r4, #21]
 8007c84:	b913      	cbnz	r3, 8007c8c <tuh_task_ext+0x140>
 8007c86:	7d22      	ldrb	r2, [r4, #20]
 8007c88:	b102      	cbz	r2, 8007c8c <tuh_task_ext+0x140>
 8007c8a:	7523      	strb	r3, [r4, #20]
 8007c8c:	7863      	ldrb	r3, [r4, #1]
 8007c8e:	2b00      	cmp	r3, #0
 8007c90:	f47f af67 	bne.w	8007b62 <tuh_task_ext+0x16>
 8007c94:	e79a      	b.n	8007bcc <tuh_task_ext+0x80>
 8007c96:	f89d 2009 	ldrb.w	r2, [sp, #9]
 8007c9a:	4618      	mov	r0, r3
 8007c9c:	f89d 1008 	ldrb.w	r1, [sp, #8]
 8007ca0:	f7ff fad0 	bl	8007244 <process_removed_device>
 8007ca4:	e75d      	b.n	8007b62 <tuh_task_ext+0x16>
 8007ca6:	f89d 1008 	ldrb.w	r1, [sp, #8]
 8007caa:	f89d 6006 	ldrb.w	r6, [sp, #6]
 8007cae:	f001 007f 	and.w	r0, r1, #127	@ 0x7f
 8007cb2:	b976      	cbnz	r6, 8007cd2 <tuh_task_ext+0x186>
 8007cb4:	b138      	cbz	r0, 8007cc6 <tuh_task_ext+0x17a>
 8007cb6:	f04f 23e0 	mov.w	r3, #3758153728	@ 0xe000e000
 8007cba:	f8d3 3df0 	ldr.w	r3, [r3, #3568]	@ 0xdf0
 8007cbe:	07db      	lsls	r3, r3, #31
 8007cc0:	d5c6      	bpl.n	8007c50 <tuh_task_ext+0x104>
 8007cc2:	be00      	bkpt	0x0000
 8007cc4:	e7c4      	b.n	8007c50 <tuh_task_ext+0x104>
 8007cc6:	9a03      	ldr	r2, [sp, #12]
 8007cc8:	f89d 1009 	ldrb.w	r1, [sp, #9]
 8007ccc:	f7ff fc94 	bl	80075f8 <usbh_control_xfer_cb.isra.0>
 8007cd0:	e747      	b.n	8007b62 <tuh_task_ext+0x16>
 8007cd2:	2e01      	cmp	r6, #1
 8007cd4:	d1bc      	bne.n	8007c50 <tuh_task_ext+0x104>
 8007cd6:	f898 3014 	ldrb.w	r3, [r8, #20]
 8007cda:	07da      	lsls	r2, r3, #31
 8007cdc:	d5b8      	bpl.n	8007c50 <tuh_task_ext+0x104>
 8007cde:	eb08 0240 	add.w	r2, r8, r0, lsl #1
 8007ce2:	eb02 12d1 	add.w	r2, r2, r1, lsr #7
 8007ce6:	f892 303d 	ldrb.w	r3, [r2, #61]	@ 0x3d
 8007cea:	f023 0301 	bic.w	r3, r3, #1
 8007cee:	f882 303d 	strb.w	r3, [r2, #61]	@ 0x3d
 8007cf2:	f892 303d 	ldrb.w	r3, [r2, #61]	@ 0x3d
 8007cf6:	f023 0304 	bic.w	r3, r3, #4
 8007cfa:	f882 303d 	strb.w	r3, [r2, #61]	@ 0x3d
 8007cfe:	b920      	cbnz	r0, 8007d0a <tuh_task_ext+0x1be>
 8007d00:	9a03      	ldr	r2, [sp, #12]
 8007d02:	4630      	mov	r0, r6
 8007d04:	f89d 1009 	ldrb.w	r1, [sp, #9]
 8007d08:	e7e0      	b.n	8007ccc <tuh_task_ext+0x180>
 8007d0a:	7f50      	ldrb	r0, [r2, #29]
 8007d0c:	f7ff fa38 	bl	8007180 <get_driver>
 8007d10:	2800      	cmp	r0, #0
 8007d12:	d0d0      	beq.n	8007cb6 <tuh_task_ext+0x16a>
 8007d14:	f8d0 9014 	ldr.w	r9, [r0, #20]
 8007d18:	4630      	mov	r0, r6
 8007d1a:	9b03      	ldr	r3, [sp, #12]
 8007d1c:	f89d 2009 	ldrb.w	r2, [sp, #9]
 8007d20:	47c8      	blx	r9
 8007d22:	e71e      	b.n	8007b62 <tuh_task_ext+0x16>
 8007d24:	9b02      	ldr	r3, [sp, #8]
 8007d26:	2b00      	cmp	r3, #0
 8007d28:	f43f af1b 	beq.w	8007b62 <tuh_task_ext+0x16>
 8007d2c:	9803      	ldr	r0, [sp, #12]
 8007d2e:	4798      	blx	r3
 8007d30:	e717      	b.n	8007b62 <tuh_task_ext+0x16>
 8007d32:	bf00      	nop
 8007d34:	24000010 	.word	0x24000010
 8007d38:	24001c90 	.word	0x24001c90
 8007d3c:	24001d54 	.word	0x24001d54

08007d40 <tuh_control_xfer>:
 8007d40:	b5f7      	push	{r0, r1, r2, r4, r5, r6, r7, lr}
 8007d42:	7843      	ldrb	r3, [r0, #1]
 8007d44:	4605      	mov	r5, r0
 8007d46:	2b00      	cmp	r3, #0
 8007d48:	d131      	bne.n	8007dae <tuh_control_xfer+0x6e>
 8007d4a:	6881      	ldr	r1, [r0, #8]
 8007d4c:	2900      	cmp	r1, #0
 8007d4e:	d02e      	beq.n	8007dae <tuh_control_xfer+0x6e>
 8007d50:	7806      	ldrb	r6, [r0, #0]
 8007d52:	4630      	mov	r0, r6
 8007d54:	f7ff faca 	bl	80072ec <tuh_connected>
 8007d58:	4607      	mov	r7, r0
 8007d5a:	b340      	cbz	r0, 8007dae <tuh_control_xfer+0x6e>
 8007d5c:	4c2b      	ldr	r4, [pc, #172]	@ (8007e0c <tuh_control_xfer+0xcc>)
 8007d5e:	7d23      	ldrb	r3, [r4, #20]
 8007d60:	bb2b      	cbnz	r3, 8007dae <tuh_control_xfer+0x6e>
 8007d62:	7d22      	ldrb	r2, [r4, #20]
 8007d64:	f002 03ff 	and.w	r3, r2, #255	@ 0xff
 8007d68:	bb0a      	cbnz	r2, 8007dae <tuh_control_xfer+0x6e>
 8007d6a:	2201      	movs	r2, #1
 8007d6c:	7566      	strb	r6, [r4, #21]
 8007d6e:	7623      	strb	r3, [r4, #24]
 8007d70:	7522      	strb	r2, [r4, #20]
 8007d72:	82e3      	strh	r3, [r4, #22]
 8007d74:	696a      	ldr	r2, [r5, #20]
 8007d76:	68eb      	ldr	r3, [r5, #12]
 8007d78:	6808      	ldr	r0, [r1, #0]
 8007d7a:	60a3      	str	r3, [r4, #8]
 8007d7c:	6849      	ldr	r1, [r1, #4]
 8007d7e:	692b      	ldr	r3, [r5, #16]
 8007d80:	6122      	str	r2, [r4, #16]
 8007d82:	4a23      	ldr	r2, [pc, #140]	@ (8007e10 <tuh_control_xfer+0xd0>)
 8007d84:	60e3      	str	r3, [r4, #12]
 8007d86:	c203      	stmia	r2!, {r0, r1}
 8007d88:	b1ab      	cbz	r3, 8007db6 <tuh_control_xfer+0x76>
 8007d8a:	4630      	mov	r0, r6
 8007d8c:	3a08      	subs	r2, #8
 8007d8e:	f7ff fbbb 	bl	8007508 <usbh_get_rhport>
 8007d92:	4631      	mov	r1, r6
 8007d94:	f000 fc0a 	bl	80085ac <hcd_setup_send>
 8007d98:	b950      	cbnz	r0, 8007db0 <tuh_control_xfer+0x70>
 8007d9a:	7d23      	ldrb	r3, [r4, #20]
 8007d9c:	b103      	cbz	r3, 8007da0 <tuh_control_xfer+0x60>
 8007d9e:	7520      	strb	r0, [r4, #20]
 8007da0:	f04f 23e0 	mov.w	r3, #3758153728	@ 0xe000e000
 8007da4:	f8d3 3df0 	ldr.w	r3, [r3, #3568]	@ 0xdf0
 8007da8:	07db      	lsls	r3, r3, #31
 8007daa:	d500      	bpl.n	8007dae <tuh_control_xfer+0x6e>
 8007dac:	be00      	bkpt	0x0000
 8007dae:	2700      	movs	r7, #0
 8007db0:	4638      	mov	r0, r7
 8007db2:	b003      	add	sp, #12
 8007db4:	bdf0      	pop	{r4, r5, r6, r7, pc}
 8007db6:	2304      	movs	r3, #4
 8007db8:	4630      	mov	r0, r6
 8007dba:	3a08      	subs	r2, #8
 8007dbc:	f88d 3007 	strb.w	r3, [sp, #7]
 8007dc0:	f10d 0307 	add.w	r3, sp, #7
 8007dc4:	6123      	str	r3, [r4, #16]
 8007dc6:	4b13      	ldr	r3, [pc, #76]	@ (8007e14 <tuh_control_xfer+0xd4>)
 8007dc8:	60e3      	str	r3, [r4, #12]
 8007dca:	f7ff fb9d 	bl	8007508 <usbh_get_rhport>
 8007dce:	4631      	mov	r1, r6
 8007dd0:	f000 fbec 	bl	80085ac <hcd_setup_send>
 8007dd4:	2800      	cmp	r0, #0
 8007dd6:	d0e0      	beq.n	8007d9a <tuh_control_xfer+0x5a>
 8007dd8:	f89d 3007 	ldrb.w	r3, [sp, #7]
 8007ddc:	2b04      	cmp	r3, #4
 8007dde:	d00b      	beq.n	8007df8 <tuh_control_xfer+0xb8>
 8007de0:	696b      	ldr	r3, [r5, #20]
 8007de2:	b113      	cbz	r3, 8007dea <tuh_control_xfer+0xaa>
 8007de4:	f89d 2007 	ldrb.w	r2, [sp, #7]
 8007de8:	701a      	strb	r2, [r3, #0]
 8007dea:	f89d 3007 	ldrb.w	r3, [sp, #7]
 8007dee:	70eb      	strb	r3, [r5, #3]
 8007df0:	8ae3      	ldrh	r3, [r4, #22]
 8007df2:	b29b      	uxth	r3, r3
 8007df4:	606b      	str	r3, [r5, #4]
 8007df6:	e7db      	b.n	8007db0 <tuh_control_xfer+0x70>
 8007df8:	f7ff faea 	bl	80073d0 <tuh_task_event_ready>
 8007dfc:	2800      	cmp	r0, #0
 8007dfe:	d0eb      	beq.n	8007dd8 <tuh_control_xfer+0x98>
 8007e00:	2100      	movs	r1, #0
 8007e02:	f04f 30ff 	mov.w	r0, #4294967295
 8007e06:	f7ff fea1 	bl	8007b4c <tuh_task_ext>
 8007e0a:	e7e5      	b.n	8007dd8 <tuh_control_xfer+0x98>
 8007e0c:	24000010 	.word	0x24000010
 8007e10:	24001b88 	.word	0x24001b88
 8007e14:	080071a9 	.word	0x080071a9

08007e18 <tuh_descriptor_get>:
 8007e18:	b510      	push	{r4, lr}
 8007e1a:	ea42 2201 	orr.w	r2, r2, r1, lsl #8
 8007e1e:	b088      	sub	sp, #32
 8007e20:	f44f 64d0 	mov.w	r4, #1664	@ 0x680
 8007e24:	f8ad 2002 	strh.w	r2, [sp, #2]
 8007e28:	2200      	movs	r2, #0
 8007e2a:	f8bd 1028 	ldrh.w	r1, [sp, #40]	@ 0x28
 8007e2e:	f8ad 2004 	strh.w	r2, [sp, #4]
 8007e32:	f8ad 4000 	strh.w	r4, [sp]
 8007e36:	f8ad 1006 	strh.w	r1, [sp, #6]
 8007e3a:	e9cd 2202 	strd	r2, r2, [sp, #8]
 8007e3e:	466a      	mov	r2, sp
 8007e40:	f88d 0008 	strb.w	r0, [sp, #8]
 8007e44:	a802      	add	r0, sp, #8
 8007e46:	e9cd 2304 	strd	r2, r3, [sp, #16]
 8007e4a:	9b0b      	ldr	r3, [sp, #44]	@ 0x2c
 8007e4c:	9306      	str	r3, [sp, #24]
 8007e4e:	9b0c      	ldr	r3, [sp, #48]	@ 0x30
 8007e50:	9307      	str	r3, [sp, #28]
 8007e52:	f7ff ff75 	bl	8007d40 <tuh_control_xfer>
 8007e56:	b008      	add	sp, #32
 8007e58:	bd10      	pop	{r4, pc}

08007e5a <tuh_descriptor_get_device>:
 8007e5a:	2a12      	cmp	r2, #18
 8007e5c:	b51f      	push	{r0, r1, r2, r3, r4, lr}
 8007e5e:	9c06      	ldr	r4, [sp, #24]
 8007e60:	bf28      	it	cs
 8007e62:	2212      	movcs	r2, #18
 8007e64:	e9cd 3401 	strd	r3, r4, [sp, #4]
 8007e68:	9200      	str	r2, [sp, #0]
 8007e6a:	460b      	mov	r3, r1
 8007e6c:	2200      	movs	r2, #0
 8007e6e:	2101      	movs	r1, #1
 8007e70:	f7ff ffd2 	bl	8007e18 <tuh_descriptor_get>
 8007e74:	b004      	add	sp, #16
 8007e76:	bd10      	pop	{r4, pc}

08007e78 <tuh_descriptor_get_configuration>:
 8007e78:	b51f      	push	{r0, r1, r2, r3, r4, lr}
 8007e7a:	9c07      	ldr	r4, [sp, #28]
 8007e7c:	9402      	str	r4, [sp, #8]
 8007e7e:	9c06      	ldr	r4, [sp, #24]
 8007e80:	e9cd 3400 	strd	r3, r4, [sp]
 8007e84:	4613      	mov	r3, r2
 8007e86:	460a      	mov	r2, r1
 8007e88:	2102      	movs	r1, #2
 8007e8a:	f7ff ffc5 	bl	8007e18 <tuh_descriptor_get>
 8007e8e:	b004      	add	sp, #16
 8007e90:	bd10      	pop	{r4, pc}

08007e92 <tuh_descriptor_get_string>:
 8007e92:	b510      	push	{r4, lr}
 8007e94:	b088      	sub	sp, #32
 8007e96:	f441 7140 	orr.w	r1, r1, #768	@ 0x300
 8007e9a:	f44f 64d0 	mov.w	r4, #1664	@ 0x680
 8007e9e:	f8ad 2004 	strh.w	r2, [sp, #4]
 8007ea2:	f8bd 2028 	ldrh.w	r2, [sp, #40]	@ 0x28
 8007ea6:	f8ad 4000 	strh.w	r4, [sp]
 8007eaa:	f8ad 2006 	strh.w	r2, [sp, #6]
 8007eae:	2200      	movs	r2, #0
 8007eb0:	f8ad 1002 	strh.w	r1, [sp, #2]
 8007eb4:	e9cd 2202 	strd	r2, r2, [sp, #8]
 8007eb8:	466a      	mov	r2, sp
 8007eba:	f88d 0008 	strb.w	r0, [sp, #8]
 8007ebe:	a802      	add	r0, sp, #8
 8007ec0:	e9cd 2304 	strd	r2, r3, [sp, #16]
 8007ec4:	9b0b      	ldr	r3, [sp, #44]	@ 0x2c
 8007ec6:	9306      	str	r3, [sp, #24]
 8007ec8:	9b0c      	ldr	r3, [sp, #48]	@ 0x30
 8007eca:	9307      	str	r3, [sp, #28]
 8007ecc:	f7ff ff38 	bl	8007d40 <tuh_control_xfer>
 8007ed0:	b008      	add	sp, #32
 8007ed2:	bd10      	pop	{r4, pc}

08007ed4 <tuh_address_set>:
 8007ed4:	b570      	push	{r4, r5, r6, lr}
 8007ed6:	b088      	sub	sp, #32
 8007ed8:	461c      	mov	r4, r3
 8007eda:	f44f 63a0 	mov.w	r3, #1280	@ 0x500
 8007ede:	4606      	mov	r6, r0
 8007ee0:	f8ad 1002 	strh.w	r1, [sp, #2]
 8007ee4:	2100      	movs	r1, #0
 8007ee6:	4615      	mov	r5, r2
 8007ee8:	a802      	add	r0, sp, #8
 8007eea:	2210      	movs	r2, #16
 8007eec:	f8ad 3000 	strh.w	r3, [sp]
 8007ef0:	9101      	str	r1, [sp, #4]
 8007ef2:	f000 fe66 	bl	8008bc2 <memset>
 8007ef6:	a802      	add	r0, sp, #8
 8007ef8:	f88d 6008 	strb.w	r6, [sp, #8]
 8007efc:	f8cd d010 	str.w	sp, [sp, #16]
 8007f00:	e9cd 5406 	strd	r5, r4, [sp, #24]
 8007f04:	f7ff ff1c 	bl	8007d40 <tuh_control_xfer>
 8007f08:	b930      	cbnz	r0, 8007f18 <tuh_address_set+0x44>
 8007f0a:	f04f 23e0 	mov.w	r3, #3758153728	@ 0xe000e000
 8007f0e:	f8d3 3df0 	ldr.w	r3, [r3, #3568]	@ 0xdf0
 8007f12:	07db      	lsls	r3, r3, #31
 8007f14:	d500      	bpl.n	8007f18 <tuh_address_set+0x44>
 8007f16:	be00      	bkpt	0x0000
 8007f18:	b008      	add	sp, #32
 8007f1a:	bd70      	pop	{r4, r5, r6, pc}

08007f1c <tuh_configuration_set>:
 8007f1c:	b570      	push	{r4, r5, r6, lr}
 8007f1e:	b088      	sub	sp, #32
 8007f20:	461c      	mov	r4, r3
 8007f22:	f44f 6310 	mov.w	r3, #2304	@ 0x900
 8007f26:	4606      	mov	r6, r0
 8007f28:	f8ad 1002 	strh.w	r1, [sp, #2]
 8007f2c:	2100      	movs	r1, #0
 8007f2e:	4615      	mov	r5, r2
 8007f30:	a802      	add	r0, sp, #8
 8007f32:	2210      	movs	r2, #16
 8007f34:	f8ad 3000 	strh.w	r3, [sp]
 8007f38:	9101      	str	r1, [sp, #4]
 8007f3a:	f000 fe42 	bl	8008bc2 <memset>
 8007f3e:	a802      	add	r0, sp, #8
 8007f40:	f88d 6008 	strb.w	r6, [sp, #8]
 8007f44:	f8cd d010 	str.w	sp, [sp, #16]
 8007f48:	e9cd 5406 	strd	r5, r4, [sp, #24]
 8007f4c:	f7ff fef8 	bl	8007d40 <tuh_control_xfer>
 8007f50:	b008      	add	sp, #32
 8007f52:	bd70      	pop	{r4, r5, r6, pc}

08007f54 <find_ep_not_addr0>:
 8007f54:	4b11      	ldr	r3, [pc, #68]	@ (8007f9c <find_ep_not_addr0+0x48>)
 8007f56:	f082 0201 	eor.w	r2, r2, #1
 8007f5a:	f04f 0c0c 	mov.w	ip, #12
 8007f5e:	b5f0      	push	{r4, r5, r6, r7, lr}
 8007f60:	4606      	mov	r6, r0
 8007f62:	2401      	movs	r4, #1
 8007f64:	461f      	mov	r7, r3
 8007f66:	f893 e018 	ldrb.w	lr, [r3, #24]
 8007f6a:	4625      	mov	r5, r4
 8007f6c:	f103 0018 	add.w	r0, r3, #24
 8007f70:	3401      	adds	r4, #1
 8007f72:	45b6      	cmp	lr, r6
 8007f74:	d10b      	bne.n	8007f8e <find_ep_not_addr0+0x3a>
 8007f76:	fb0c 7505 	mla	r5, ip, r5, r7
 8007f7a:	7b6d      	ldrb	r5, [r5, #13]
 8007f7c:	f005 0e0f 	and.w	lr, r5, #15
 8007f80:	458e      	cmp	lr, r1
 8007f82:	d104      	bne.n	8007f8e <find_ep_not_addr0+0x3a>
 8007f84:	b141      	cbz	r1, 8007f98 <find_ep_not_addr0+0x44>
 8007f86:	f3c5 1540 	ubfx	r5, r5, #5, #1
 8007f8a:	4295      	cmp	r5, r2
 8007f8c:	d004      	beq.n	8007f98 <find_ep_not_addr0+0x44>
 8007f8e:	2c08      	cmp	r4, #8
 8007f90:	f103 030c 	add.w	r3, r3, #12
 8007f94:	d1e7      	bne.n	8007f66 <find_ep_not_addr0+0x12>
 8007f96:	2000      	movs	r0, #0
 8007f98:	bdf0      	pop	{r4, r5, r6, r7, pc}
 8007f9a:	bf00      	nop
 8007f9c:	24001db4 	.word	0x24001db4

08007fa0 <find_next_pending_ep>:
 8007fa0:	491e      	ldr	r1, [pc, #120]	@ (800801c <find_next_pending_ep+0x7c>)
 8007fa2:	4a1f      	ldr	r2, [pc, #124]	@ (8008020 <find_next_pending_ep+0x80>)
 8007fa4:	1a43      	subs	r3, r0, r1
 8007fa6:	481f      	ldr	r0, [pc, #124]	@ (8008024 <find_next_pending_ep+0x84>)
 8007fa8:	390c      	subs	r1, #12
 8007faa:	109b      	asrs	r3, r3, #2
 8007fac:	4353      	muls	r3, r2
 8007fae:	b5f0      	push	{r4, r5, r6, r7, lr}
 8007fb0:	1c5a      	adds	r2, r3, #1
 8007fb2:	7804      	ldrb	r4, [r0, #0]
 8007fb4:	250c      	movs	r5, #12
 8007fb6:	2a07      	cmp	r2, #7
 8007fb8:	d919      	bls.n	8007fee <find_next_pending_ep+0x4e>
 8007fba:	2200      	movs	r2, #0
 8007fbc:	260c      	movs	r6, #12
 8007fbe:	4615      	mov	r5, r2
 8007fc0:	3201      	adds	r2, #1
 8007fc2:	fb06 1505 	mla	r5, r6, r5, r1
 8007fc6:	fb06 1002 	mla	r0, r6, r2, r1
 8007fca:	f105 0708 	add.w	r7, r5, #8
 8007fce:	89ed      	ldrh	r5, [r5, #14]
 8007fd0:	2d1f      	cmp	r5, #31
 8007fd2:	d908      	bls.n	8007fe6 <find_next_pending_ep+0x46>
 8007fd4:	79bd      	ldrb	r5, [r7, #6]
 8007fd6:	f005 050f 	and.w	r5, r5, #15
 8007fda:	2d02      	cmp	r5, #2
 8007fdc:	d903      	bls.n	8007fe6 <find_next_pending_ep+0x46>
 8007fde:	b12c      	cbz	r4, 8007fec <find_next_pending_ep+0x4c>
 8007fe0:	1ca7      	adds	r7, r4, #2
 8007fe2:	42af      	cmp	r7, r5
 8007fe4:	da02      	bge.n	8007fec <find_next_pending_ep+0x4c>
 8007fe6:	4293      	cmp	r3, r2
 8007fe8:	d2e9      	bcs.n	8007fbe <find_next_pending_ep+0x1e>
 8007fea:	2000      	movs	r0, #0
 8007fec:	bdf0      	pop	{r4, r5, r6, r7, pc}
 8007fee:	fb02 5005 	mla	r0, r2, r5, r5
 8007ff2:	1c56      	adds	r6, r2, #1
 8007ff4:	fb05 1202 	mla	r2, r5, r2, r1
 8007ff8:	4408      	add	r0, r1
 8007ffa:	f102 0708 	add.w	r7, r2, #8
 8007ffe:	89d2      	ldrh	r2, [r2, #14]
 8008000:	2a1f      	cmp	r2, #31
 8008002:	d909      	bls.n	8008018 <find_next_pending_ep+0x78>
 8008004:	79ba      	ldrb	r2, [r7, #6]
 8008006:	f002 020f 	and.w	r2, r2, #15
 800800a:	2a02      	cmp	r2, #2
 800800c:	d904      	bls.n	8008018 <find_next_pending_ep+0x78>
 800800e:	2c00      	cmp	r4, #0
 8008010:	d0ec      	beq.n	8007fec <find_next_pending_ep+0x4c>
 8008012:	1ca7      	adds	r7, r4, #2
 8008014:	4297      	cmp	r7, r2
 8008016:	dae9      	bge.n	8007fec <find_next_pending_ep+0x4c>
 8008018:	4632      	mov	r2, r6
 800801a:	e7cc      	b.n	8007fb6 <find_next_pending_ep+0x16>
 800801c:	24001dc0 	.word	0x24001dc0
 8008020:	aaaaaaab 	.word	0xaaaaaaab
 8008024:	2400003c 	.word	0x2400003c

08008028 <max3421_spi_lock>:
 8008028:	b510      	push	{r4, lr}
 800802a:	4604      	mov	r4, r0
 800802c:	b909      	cbnz	r1, 8008032 <max3421_spi_lock+0xa>
 800802e:	f7f8 feb3 	bl	8000d98 <tuh_max3421_int_api>
 8008032:	4620      	mov	r0, r4
 8008034:	2101      	movs	r1, #1
 8008036:	e8bd 4010 	ldmia.w	sp!, {r4, lr}
 800803a:	f7f8 bebf 	b.w	8000dbc <tuh_max3421_spi_cs_api>

0800803e <max3421_spi_unlock>:
 800803e:	b538      	push	{r3, r4, r5, lr}
 8008040:	460d      	mov	r5, r1
 8008042:	2100      	movs	r1, #0
 8008044:	4604      	mov	r4, r0
 8008046:	f7f8 feb9 	bl	8000dbc <tuh_max3421_spi_cs_api>
 800804a:	b92d      	cbnz	r5, 8008058 <max3421_spi_unlock+0x1a>
 800804c:	4620      	mov	r0, r4
 800804e:	2101      	movs	r1, #1
 8008050:	e8bd 4038 	ldmia.w	sp!, {r3, r4, r5, lr}
 8008054:	f7f8 bea0 	b.w	8000d98 <tuh_max3421_int_api>
 8008058:	bd38      	pop	{r3, r4, r5, pc}
	...

0800805c <hwfifo_write>:
 800805c:	b5f0      	push	{r4, r5, r6, r7, lr}
 800805e:	b085      	sub	sp, #20
 8008060:	f041 0102 	orr.w	r1, r1, #2
 8008064:	4604      	mov	r4, r0
 8008066:	4615      	mov	r5, r2
 8008068:	f89d 7028 	ldrb.w	r7, [sp, #40]	@ 0x28
 800806c:	461e      	mov	r6, r3
 800806e:	f88d 1007 	strb.w	r1, [sp, #7]
 8008072:	4639      	mov	r1, r7
 8008074:	f7ff ffd8 	bl	8008028 <max3421_spi_lock>
 8008078:	f10d 020f 	add.w	r2, sp, #15
 800807c:	f10d 0107 	add.w	r1, sp, #7
 8008080:	2301      	movs	r3, #1
 8008082:	4620      	mov	r0, r4
 8008084:	f7f8 fee8 	bl	8000e58 <tuh_max3421_spi_xfer_api>
 8008088:	f89d 200f 	ldrb.w	r2, [sp, #15]
 800808c:	4b06      	ldr	r3, [pc, #24]	@ (80080a8 <hwfifo_write+0x4c>)
 800808e:	4629      	mov	r1, r5
 8008090:	4620      	mov	r0, r4
 8008092:	70da      	strb	r2, [r3, #3]
 8008094:	4633      	mov	r3, r6
 8008096:	2200      	movs	r2, #0
 8008098:	f7f8 fede 	bl	8000e58 <tuh_max3421_spi_xfer_api>
 800809c:	4639      	mov	r1, r7
 800809e:	4620      	mov	r0, r4
 80080a0:	f7ff ffcd 	bl	800803e <max3421_spi_unlock>
 80080a4:	b005      	add	sp, #20
 80080a6:	bdf0      	pop	{r4, r5, r6, r7, pc}
 80080a8:	24001db4 	.word	0x24001db4

080080ac <tuh_max3421_reg_read>:
 80080ac:	b573      	push	{r0, r1, r4, r5, r6, lr}
 80080ae:	2300      	movs	r3, #0
 80080b0:	4605      	mov	r5, r0
 80080b2:	4616      	mov	r6, r2
 80080b4:	f88d 1000 	strb.w	r1, [sp]
 80080b8:	4611      	mov	r1, r2
 80080ba:	f88d 3001 	strb.w	r3, [sp, #1]
 80080be:	f8ad 3004 	strh.w	r3, [sp, #4]
 80080c2:	f7ff ffb1 	bl	8008028 <max3421_spi_lock>
 80080c6:	2302      	movs	r3, #2
 80080c8:	aa01      	add	r2, sp, #4
 80080ca:	4669      	mov	r1, sp
 80080cc:	4628      	mov	r0, r5
 80080ce:	f7f8 fec3 	bl	8000e58 <tuh_max3421_spi_xfer_api>
 80080d2:	4631      	mov	r1, r6
 80080d4:	4604      	mov	r4, r0
 80080d6:	4628      	mov	r0, r5
 80080d8:	f7ff ffb1 	bl	800803e <max3421_spi_unlock>
 80080dc:	f89d 2004 	ldrb.w	r2, [sp, #4]
 80080e0:	4b04      	ldr	r3, [pc, #16]	@ (80080f4 <tuh_max3421_reg_read+0x48>)
 80080e2:	70da      	strb	r2, [r3, #3]
 80080e4:	b11c      	cbz	r4, 80080ee <tuh_max3421_reg_read+0x42>
 80080e6:	f89d 0005 	ldrb.w	r0, [sp, #5]
 80080ea:	b002      	add	sp, #8
 80080ec:	bd70      	pop	{r4, r5, r6, pc}
 80080ee:	4620      	mov	r0, r4
 80080f0:	e7fb      	b.n	80080ea <tuh_max3421_reg_read+0x3e>
 80080f2:	bf00      	nop
 80080f4:	24001db4 	.word	0x24001db4

080080f8 <tuh_max3421_reg_write>:
 80080f8:	b573      	push	{r0, r1, r4, r5, r6, lr}
 80080fa:	461d      	mov	r5, r3
 80080fc:	f041 0102 	orr.w	r1, r1, #2
 8008100:	4604      	mov	r4, r0
 8008102:	2300      	movs	r3, #0
 8008104:	f88d 1000 	strb.w	r1, [sp]
 8008108:	4629      	mov	r1, r5
 800810a:	f88d 2001 	strb.w	r2, [sp, #1]
 800810e:	f8ad 3004 	strh.w	r3, [sp, #4]
 8008112:	f7ff ff89 	bl	8008028 <max3421_spi_lock>
 8008116:	aa01      	add	r2, sp, #4
 8008118:	2302      	movs	r3, #2
 800811a:	4669      	mov	r1, sp
 800811c:	4620      	mov	r0, r4
 800811e:	f7f8 fe9b 	bl	8000e58 <tuh_max3421_spi_xfer_api>
 8008122:	4606      	mov	r6, r0
 8008124:	4629      	mov	r1, r5
 8008126:	4620      	mov	r0, r4
 8008128:	f7ff ff89 	bl	800803e <max3421_spi_unlock>
 800812c:	f89d 2004 	ldrb.w	r2, [sp, #4]
 8008130:	4b02      	ldr	r3, [pc, #8]	@ (800813c <tuh_max3421_reg_write+0x44>)
 8008132:	4630      	mov	r0, r6
 8008134:	70da      	strb	r2, [r3, #3]
 8008136:	b002      	add	sp, #8
 8008138:	bd70      	pop	{r4, r5, r6, pc}
 800813a:	bf00      	nop
 800813c:	24001db4 	.word	0x24001db4

08008140 <xact_setup>:
 8008140:	b5f7      	push	{r0, r1, r2, r4, r5, r6, r7, lr}
 8008142:	4f0f      	ldr	r7, [pc, #60]	@ (8008180 <xact_setup+0x40>)
 8008144:	4614      	mov	r4, r2
 8008146:	780a      	ldrb	r2, [r1, #0]
 8008148:	4605      	mov	r5, r0
 800814a:	79bb      	ldrb	r3, [r7, #6]
 800814c:	460e      	mov	r6, r1
 800814e:	4293      	cmp	r3, r2
 8008150:	d004      	beq.n	800815c <xact_setup+0x1c>
 8008152:	4623      	mov	r3, r4
 8008154:	21e0      	movs	r1, #224	@ 0xe0
 8008156:	71ba      	strb	r2, [r7, #6]
 8008158:	f7ff ffce 	bl	80080f8 <tuh_max3421_reg_write>
 800815c:	4628      	mov	r0, r5
 800815e:	9400      	str	r4, [sp, #0]
 8008160:	2308      	movs	r3, #8
 8008162:	68b2      	ldr	r2, [r6, #8]
 8008164:	2120      	movs	r1, #32
 8008166:	f7ff ff79 	bl	800805c <hwfifo_write>
 800816a:	2210      	movs	r2, #16
 800816c:	4623      	mov	r3, r4
 800816e:	21f0      	movs	r1, #240	@ 0xf0
 8008170:	4628      	mov	r0, r5
 8008172:	71fa      	strb	r2, [r7, #7]
 8008174:	b003      	add	sp, #12
 8008176:	e8bd 40f0 	ldmia.w	sp!, {r4, r5, r6, r7, lr}
 800817a:	f7ff bfbd 	b.w	80080f8 <tuh_max3421_reg_write>
 800817e:	bf00      	nop
 8008180:	24001db4 	.word	0x24001db4

08008184 <xact_out>:
 8008184:	e92d 41f3 	stmdb	sp!, {r0, r1, r4, r5, r6, r7, r8, lr}
 8008188:	4607      	mov	r7, r0
 800818a:	460d      	mov	r5, r1
 800818c:	4698      	mov	r8, r3
 800818e:	4e21      	ldr	r6, [pc, #132]	@ (8008214 <xact_out+0x90>)
 8008190:	b192      	cbz	r2, 80081b8 <xact_out+0x34>
 8008192:	780a      	ldrb	r2, [r1, #0]
 8008194:	79b1      	ldrb	r1, [r6, #6]
 8008196:	4291      	cmp	r1, r2
 8008198:	d003      	beq.n	80081a2 <xact_out+0x1e>
 800819a:	21e0      	movs	r1, #224	@ 0xe0
 800819c:	71b2      	strb	r2, [r6, #6]
 800819e:	f7ff ffab 	bl	80080f8 <tuh_max3421_reg_write>
 80081a2:	78ab      	ldrb	r3, [r5, #2]
 80081a4:	21e8      	movs	r1, #232	@ 0xe8
 80081a6:	4638      	mov	r0, r7
 80081a8:	f013 0f10 	tst.w	r3, #16
 80081ac:	4643      	mov	r3, r8
 80081ae:	bf0c      	ite	eq
 80081b0:	2240      	moveq	r2, #64	@ 0x40
 80081b2:	2280      	movne	r2, #128	@ 0x80
 80081b4:	f7ff ffa0 	bl	80080f8 <tuh_max3421_reg_write>
 80081b8:	882a      	ldrh	r2, [r5, #0]
 80081ba:	8933      	ldrh	r3, [r6, #8]
 80081bc:	429a      	cmp	r2, r3
 80081be:	d01b      	beq.n	80081f8 <xact_out+0x74>
 80081c0:	88eb      	ldrh	r3, [r5, #6]
 80081c2:	88ac      	ldrh	r4, [r5, #4]
 80081c4:	1ae4      	subs	r4, r4, r3
 80081c6:	886b      	ldrh	r3, [r5, #2]
 80081c8:	b2a4      	uxth	r4, r4
 80081ca:	f3c3 134a 	ubfx	r3, r3, #5, #11
 80081ce:	429c      	cmp	r4, r3
 80081d0:	bf28      	it	cs
 80081d2:	461c      	movcs	r4, r3
 80081d4:	f014 04ff 	ands.w	r4, r4, #255	@ 0xff
 80081d8:	d007      	beq.n	80081ea <xact_out+0x66>
 80081da:	f8cd 8000 	str.w	r8, [sp]
 80081de:	4623      	mov	r3, r4
 80081e0:	68aa      	ldr	r2, [r5, #8]
 80081e2:	2110      	movs	r1, #16
 80081e4:	4638      	mov	r0, r7
 80081e6:	f7ff ff39 	bl	800805c <hwfifo_write>
 80081ea:	4643      	mov	r3, r8
 80081ec:	4622      	mov	r2, r4
 80081ee:	2138      	movs	r1, #56	@ 0x38
 80081f0:	4638      	mov	r0, r7
 80081f2:	70b4      	strb	r4, [r6, #2]
 80081f4:	f7ff ff80 	bl	80080f8 <tuh_max3421_reg_write>
 80081f8:	782b      	ldrb	r3, [r5, #0]
 80081fa:	21f0      	movs	r1, #240	@ 0xf0
 80081fc:	4638      	mov	r0, r7
 80081fe:	7233      	strb	r3, [r6, #8]
 8008200:	4643      	mov	r3, r8
 8008202:	786a      	ldrb	r2, [r5, #1]
 8008204:	7272      	strb	r2, [r6, #9]
 8008206:	71f2      	strb	r2, [r6, #7]
 8008208:	b002      	add	sp, #8
 800820a:	e8bd 41f0 	ldmia.w	sp!, {r4, r5, r6, r7, r8, lr}
 800820e:	f7ff bf73 	b.w	80080f8 <tuh_max3421_reg_write>
 8008212:	bf00      	nop
 8008214:	24001db4 	.word	0x24001db4

08008218 <xact_generic.constprop.0>:
 8008218:	e92d 41f0 	stmdb	sp!, {r4, r5, r6, r7, r8, lr}
 800821c:	784d      	ldrb	r5, [r1, #1]
 800821e:	4606      	mov	r6, r0
 8008220:	460c      	mov	r4, r1
 8008222:	4617      	mov	r7, r2
 8008224:	072b      	lsls	r3, r5, #28
 8008226:	d121      	bne.n	800826c <xact_generic.constprop.0+0x54>
 8008228:	06eb      	lsls	r3, r5, #27
 800822a:	d503      	bpl.n	8008234 <xact_generic.constprop.0+0x1c>
 800822c:	e8bd 41f0 	ldmia.w	sp!, {r4, r5, r6, r7, r8, lr}
 8008230:	f7ff bf86 	b.w	8008140 <xact_setup>
 8008234:	688b      	ldr	r3, [r1, #8]
 8008236:	b10b      	cbz	r3, 800823c <xact_generic.constprop.0+0x24>
 8008238:	888b      	ldrh	r3, [r1, #4]
 800823a:	b9bb      	cbnz	r3, 800826c <xact_generic.constprop.0+0x54>
 800823c:	7822      	ldrb	r2, [r4, #0]
 800823e:	f005 0520 	and.w	r5, r5, #32
 8008242:	4c1c      	ldr	r4, [pc, #112]	@ (80082b4 <xact_generic.constprop.0+0x9c>)
 8008244:	f045 0580 	orr.w	r5, r5, #128	@ 0x80
 8008248:	79a3      	ldrb	r3, [r4, #6]
 800824a:	4293      	cmp	r3, r2
 800824c:	d005      	beq.n	800825a <xact_generic.constprop.0+0x42>
 800824e:	463b      	mov	r3, r7
 8008250:	21e0      	movs	r1, #224	@ 0xe0
 8008252:	4630      	mov	r0, r6
 8008254:	71a2      	strb	r2, [r4, #6]
 8008256:	f7ff ff4f 	bl	80080f8 <tuh_max3421_reg_write>
 800825a:	463b      	mov	r3, r7
 800825c:	462a      	mov	r2, r5
 800825e:	71e5      	strb	r5, [r4, #7]
 8008260:	4630      	mov	r0, r6
 8008262:	21f0      	movs	r1, #240	@ 0xf0
 8008264:	e8bd 41f0 	ldmia.w	sp!, {r4, r5, r6, r7, r8, lr}
 8008268:	f7ff bf46 	b.w	80080f8 <tuh_max3421_reg_write>
 800826c:	06ab      	lsls	r3, r5, #26
 800826e:	d507      	bpl.n	8008280 <xact_generic.constprop.0+0x68>
 8008270:	463b      	mov	r3, r7
 8008272:	4621      	mov	r1, r4
 8008274:	4630      	mov	r0, r6
 8008276:	2201      	movs	r2, #1
 8008278:	e8bd 41f0 	ldmia.w	sp!, {r4, r5, r6, r7, r8, lr}
 800827c:	f7ff bf82 	b.w	8008184 <xact_out>
 8008280:	4d0c      	ldr	r5, [pc, #48]	@ (80082b4 <xact_generic.constprop.0+0x9c>)
 8008282:	7822      	ldrb	r2, [r4, #0]
 8008284:	79ab      	ldrb	r3, [r5, #6]
 8008286:	4293      	cmp	r3, r2
 8008288:	d005      	beq.n	8008296 <xact_generic.constprop.0+0x7e>
 800828a:	463b      	mov	r3, r7
 800828c:	21e0      	movs	r1, #224	@ 0xe0
 800828e:	4630      	mov	r0, r6
 8008290:	71aa      	strb	r2, [r5, #6]
 8008292:	f7ff ff31 	bl	80080f8 <tuh_max3421_reg_write>
 8008296:	78a3      	ldrb	r3, [r4, #2]
 8008298:	21e8      	movs	r1, #232	@ 0xe8
 800829a:	4630      	mov	r0, r6
 800829c:	f013 0f10 	tst.w	r3, #16
 80082a0:	463b      	mov	r3, r7
 80082a2:	bf0c      	ite	eq
 80082a4:	2210      	moveq	r2, #16
 80082a6:	2220      	movne	r2, #32
 80082a8:	f7ff ff26 	bl	80080f8 <tuh_max3421_reg_write>
 80082ac:	7862      	ldrb	r2, [r4, #1]
 80082ae:	463b      	mov	r3, r7
 80082b0:	71ea      	strb	r2, [r5, #7]
 80082b2:	e7d5      	b.n	8008260 <xact_generic.constprop.0+0x48>
 80082b4:	24001db4 	.word	0x24001db4

080082b8 <xfer_complete_isr>:
 80082b8:	b5f0      	push	{r4, r5, r6, r7, lr}
 80082ba:	460c      	mov	r4, r1
 80082bc:	4605      	mov	r5, r0
 80082be:	7848      	ldrb	r0, [r1, #1]
 80082c0:	b085      	sub	sp, #20
 80082c2:	7827      	ldrb	r7, [r4, #0]
 80082c4:	f000 010f 	and.w	r1, r0, #15
 80082c8:	0680      	lsls	r0, r0, #26
 80082ca:	78a0      	ldrb	r0, [r4, #2]
 80082cc:	bf54      	ite	pl
 80082ce:	f3c3 1300 	ubfxpl	r3, r3, #4, #1
 80082d2:	f3c3 1340 	ubfxmi	r3, r3, #5, #1
 80082d6:	f020 001f 	bic.w	r0, r0, #31
 80082da:	bf58      	it	pl
 80082dc:	f041 0180 	orrpl.w	r1, r1, #128	@ 0x80
 80082e0:	f89d 6028 	ldrb.w	r6, [sp, #40]	@ 0x28
 80082e4:	ea40 1303 	orr.w	r3, r0, r3, lsl #4
 80082e8:	88e0      	ldrh	r0, [r4, #6]
 80082ea:	70a3      	strb	r3, [r4, #2]
 80082ec:	2300      	movs	r3, #0
 80082ee:	9003      	str	r0, [sp, #12]
 80082f0:	a801      	add	r0, sp, #4
 80082f2:	e9cd 3301 	strd	r3, r3, [sp, #4]
 80082f6:	2302      	movs	r3, #2
 80082f8:	f88d 1008 	strb.w	r1, [sp, #8]
 80082fc:	4631      	mov	r1, r6
 80082fe:	f88d 2009 	strb.w	r2, [sp, #9]
 8008302:	f88d 3005 	strb.w	r3, [sp, #5]
 8008306:	f88d 7006 	strb.w	r7, [sp, #6]
 800830a:	f7ff f9eb 	bl	80076e4 <hcd_event_handler>
 800830e:	4620      	mov	r0, r4
 8008310:	f7ff fe46 	bl	8007fa0 <find_next_pending_ep>
 8008314:	4604      	mov	r4, r0
 8008316:	b138      	cbz	r0, 8008328 <xfer_complete_isr+0x70>
 8008318:	4601      	mov	r1, r0
 800831a:	4632      	mov	r2, r6
 800831c:	4628      	mov	r0, r5
 800831e:	b005      	add	sp, #20
 8008320:	e8bd 40f0 	ldmia.w	sp!, {r4, r5, r6, r7, lr}
 8008324:	f7ff bf78 	b.w	8008218 <xact_generic.constprop.0>
 8008328:	4630      	mov	r0, r6
 800832a:	f7ff f869 	bl	8007400 <usbh_spin_lock>
 800832e:	4b04      	ldr	r3, [pc, #16]	@ (8008340 <xfer_complete_isr+0x88>)
 8008330:	4630      	mov	r0, r6
 8008332:	729c      	strb	r4, [r3, #10]
 8008334:	b005      	add	sp, #20
 8008336:	e8bd 40f0 	ldmia.w	sp!, {r4, r5, r6, r7, lr}
 800833a:	f7ff b865 	b.w	8007408 <usbh_spin_unlock>
 800833e:	bf00      	nop
 8008340:	24001db4 	.word	0x24001db4

08008344 <hcd_init>:
 8008344:	b5f8      	push	{r3, r4, r5, r6, r7, lr}
 8008346:	2100      	movs	r1, #0
 8008348:	4604      	mov	r4, r0
 800834a:	f7f8 fd25 	bl	8000d98 <tuh_max3421_int_api>
 800834e:	226c      	movs	r2, #108	@ 0x6c
 8008350:	2100      	movs	r1, #0
 8008352:	4830      	ldr	r0, [pc, #192]	@ (8008414 <hcd_init+0xd0>)
 8008354:	f000 fc35 	bl	8008bc2 <memset>
 8008358:	4e2f      	ldr	r6, [pc, #188]	@ (8008418 <hcd_init+0xd4>)
 800835a:	23ff      	movs	r3, #255	@ 0xff
 800835c:	4a2d      	ldr	r2, [pc, #180]	@ (8008414 <hcd_init+0xd0>)
 800835e:	2188      	movs	r1, #136	@ 0x88
 8008360:	4620      	mov	r0, r4
 8008362:	7193      	strb	r3, [r2, #6]
 8008364:	2300      	movs	r3, #0
 8008366:	78b2      	ldrb	r2, [r6, #2]
 8008368:	f042 0210 	orr.w	r2, r2, #16
 800836c:	f7ff fec4 	bl	80080f8 <tuh_max3421_reg_write>
 8008370:	2200      	movs	r2, #0
 8008372:	2190      	movs	r1, #144	@ 0x90
 8008374:	4620      	mov	r0, r4
 8008376:	f7ff fe99 	bl	80080ac <tuh_max3421_reg_read>
 800837a:	2801      	cmp	r0, #1
 800837c:	d00c      	beq.n	8008398 <hcd_init+0x54>
 800837e:	3812      	subs	r0, #18
 8008380:	b2c0      	uxtb	r0, r0
 8008382:	2801      	cmp	r0, #1
 8008384:	d908      	bls.n	8008398 <hcd_init+0x54>
 8008386:	f04f 23e0 	mov.w	r3, #3758153728	@ 0xe000e000
 800838a:	f8d3 3df0 	ldr.w	r3, [r3, #3568]	@ 0xdf0
 800838e:	07da      	lsls	r2, r3, #31
 8008390:	d500      	bpl.n	8008394 <hcd_init+0x50>
 8008392:	be00      	bkpt	0x0000
 8008394:	2000      	movs	r0, #0
 8008396:	bdf8      	pop	{r3, r4, r5, r6, r7, pc}
 8008398:	2300      	movs	r3, #0
 800839a:	2220      	movs	r2, #32
 800839c:	2178      	movs	r1, #120	@ 0x78
 800839e:	4620      	mov	r0, r4
 80083a0:	f7ff feaa 	bl	80080f8 <tuh_max3421_reg_write>
 80083a4:	2300      	movs	r3, #0
 80083a6:	2178      	movs	r1, #120	@ 0x78
 80083a8:	4620      	mov	r0, r4
 80083aa:	461a      	mov	r2, r3
 80083ac:	f7ff fea4 	bl	80080f8 <tuh_max3421_reg_write>
 80083b0:	2200      	movs	r2, #0
 80083b2:	2168      	movs	r1, #104	@ 0x68
 80083b4:	4620      	mov	r0, r4
 80083b6:	f7ff fe79 	bl	80080ac <tuh_max3421_reg_read>
 80083ba:	07c3      	lsls	r3, r0, #31
 80083bc:	d5f8      	bpl.n	80083b0 <hcd_init+0x6c>
 80083be:	22c1      	movs	r2, #193	@ 0xc1
 80083c0:	4f14      	ldr	r7, [pc, #80]	@ (8008414 <hcd_init+0xd0>)
 80083c2:	2300      	movs	r3, #0
 80083c4:	21d8      	movs	r1, #216	@ 0xd8
 80083c6:	4620      	mov	r0, r4
 80083c8:	717a      	strb	r2, [r7, #5]
 80083ca:	f7ff fe95 	bl	80080f8 <tuh_max3421_reg_write>
 80083ce:	2300      	movs	r3, #0
 80083d0:	2203      	movs	r2, #3
 80083d2:	21e8      	movs	r1, #232	@ 0xe8
 80083d4:	4620      	mov	r0, r4
 80083d6:	2500      	movs	r5, #0
 80083d8:	f7ff fe8e 	bl	80080f8 <tuh_max3421_reg_write>
 80083dc:	2300      	movs	r3, #0
 80083de:	22ff      	movs	r2, #255	@ 0xff
 80083e0:	21c8      	movs	r1, #200	@ 0xc8
 80083e2:	4620      	mov	r0, r4
 80083e4:	f7ff fe88 	bl	80080f8 <tuh_max3421_reg_write>
 80083e8:	22e4      	movs	r2, #228	@ 0xe4
 80083ea:	462b      	mov	r3, r5
 80083ec:	21d0      	movs	r1, #208	@ 0xd0
 80083ee:	4620      	mov	r0, r4
 80083f0:	713a      	strb	r2, [r7, #4]
 80083f2:	70fd      	strb	r5, [r7, #3]
 80083f4:	f7ff fe80 	bl	80080f8 <tuh_max3421_reg_write>
 80083f8:	2101      	movs	r1, #1
 80083fa:	4620      	mov	r0, r4
 80083fc:	f7f8 fccc 	bl	8000d98 <tuh_max3421_int_api>
 8008400:	7872      	ldrb	r2, [r6, #1]
 8008402:	462b      	mov	r3, r5
 8008404:	2180      	movs	r1, #128	@ 0x80
 8008406:	f042 0201 	orr.w	r2, r2, #1
 800840a:	4620      	mov	r0, r4
 800840c:	f7ff fe74 	bl	80080f8 <tuh_max3421_reg_write>
 8008410:	2001      	movs	r0, #1
 8008412:	e7c0      	b.n	8008396 <hcd_init+0x52>
 8008414:	24001db4 	.word	0x24001db4
 8008418:	2400003c 	.word	0x2400003c

0800841c <hcd_int_enable>:
 800841c:	2101      	movs	r1, #1
 800841e:	f7f8 bcbb 	b.w	8000d98 <tuh_max3421_int_api>

08008422 <hcd_int_disable>:
 8008422:	2100      	movs	r1, #0
 8008424:	f7f8 bcb8 	b.w	8000d98 <tuh_max3421_int_api>

08008428 <hcd_port_connect_status>:
 8008428:	4b02      	ldr	r3, [pc, #8]	@ (8008434 <hcd_port_connect_status+0xc>)
 800842a:	7958      	ldrb	r0, [r3, #5]
 800842c:	f3c0 00c0 	ubfx	r0, r0, #3, #1
 8008430:	4770      	bx	lr
 8008432:	bf00      	nop
 8008434:	24001db4 	.word	0x24001db4

08008438 <hcd_port_reset>:
 8008438:	2300      	movs	r3, #0
 800843a:	2201      	movs	r2, #1
 800843c:	21e8      	movs	r1, #232	@ 0xe8
 800843e:	f7ff be5b 	b.w	80080f8 <tuh_max3421_reg_write>

08008442 <hcd_port_reset_end>:
 8008442:	2300      	movs	r3, #0
 8008444:	21e8      	movs	r1, #232	@ 0xe8
 8008446:	461a      	mov	r2, r3
 8008448:	f7ff be56 	b.w	80080f8 <tuh_max3421_reg_write>

0800844c <hcd_port_speed_get>:
 800844c:	4b02      	ldr	r3, [pc, #8]	@ (8008458 <hcd_port_speed_get+0xc>)
 800844e:	7958      	ldrb	r0, [r3, #5]
 8008450:	f3c0 0040 	ubfx	r0, r0, #1, #1
 8008454:	4770      	bx	lr
 8008456:	bf00      	nop
 8008458:	24001db4 	.word	0x24001db4

0800845c <hcd_device_close>:
 800845c:	4770      	bx	lr
	...

08008460 <hcd_edpt_open>:
 8008460:	b5f8      	push	{r3, r4, r5, r6, r7, lr}
 8008462:	7895      	ldrb	r5, [r2, #2]
 8008464:	460f      	mov	r7, r1
 8008466:	4616      	mov	r6, r2
 8008468:	f005 047f 	and.w	r4, r5, #127	@ 0x7f
 800846c:	09ed      	lsrs	r5, r5, #7
 800846e:	ea51 0304 	orrs.w	r3, r1, r4
 8008472:	d02e      	beq.n	80084d2 <hcd_edpt_open+0x72>
 8008474:	462a      	mov	r2, r5
 8008476:	4621      	mov	r1, r4
 8008478:	4638      	mov	r0, r7
 800847a:	f7ff fd6b 	bl	8007f54 <find_ep_not_addr0>
 800847e:	4602      	mov	r2, r0
 8008480:	bb28      	cbnz	r0, 80084ce <hcd_edpt_open+0x6e>
 8008482:	4601      	mov	r1, r0
 8008484:	f7ff fd66 	bl	8007f54 <find_ep_not_addr0>
 8008488:	b940      	cbnz	r0, 800849c <hcd_edpt_open+0x3c>
 800848a:	f04f 23e0 	mov.w	r3, #3758153728	@ 0xe000e000
 800848e:	f8d3 3df0 	ldr.w	r3, [r3, #3568]	@ 0xdf0
 8008492:	07d9      	lsls	r1, r3, #31
 8008494:	d500      	bpl.n	8008498 <hcd_edpt_open+0x38>
 8008496:	be00      	bkpt	0x0000
 8008498:	2000      	movs	r0, #0
 800849a:	bdf8      	pop	{r3, r4, r5, r6, r7, pc}
 800849c:	7007      	strb	r7, [r0, #0]
 800849e:	f085 0501 	eor.w	r5, r5, #1
 80084a2:	78f3      	ldrb	r3, [r6, #3]
 80084a4:	f004 040f 	and.w	r4, r4, #15
 80084a8:	f003 0303 	and.w	r3, r3, #3
 80084ac:	ea44 1445 	orr.w	r4, r4, r5, lsl #5
 80084b0:	1e5a      	subs	r2, r3, #1
 80084b2:	4253      	negs	r3, r2
 80084b4:	4153      	adcs	r3, r2
 80084b6:	ea44 1483 	orr.w	r4, r4, r3, lsl #6
 80084ba:	7843      	ldrb	r3, [r0, #1]
 80084bc:	f023 036f 	bic.w	r3, r3, #111	@ 0x6f
 80084c0:	431c      	orrs	r4, r3
 80084c2:	7044      	strb	r4, [r0, #1]
 80084c4:	88b2      	ldrh	r2, [r6, #4]
 80084c6:	8843      	ldrh	r3, [r0, #2]
 80084c8:	f362 134f 	bfi	r3, r2, #5, #11
 80084cc:	8043      	strh	r3, [r0, #2]
 80084ce:	2001      	movs	r0, #1
 80084d0:	e7e3      	b.n	800849a <hcd_edpt_open+0x3a>
 80084d2:	4801      	ldr	r0, [pc, #4]	@ (80084d8 <hcd_edpt_open+0x78>)
 80084d4:	e7f6      	b.n	80084c4 <hcd_edpt_open+0x64>
 80084d6:	bf00      	nop
 80084d8:	24001dc0 	.word	0x24001dc0

080084dc <hcd_edpt_xfer>:
 80084dc:	b5f8      	push	{r3, r4, r5, r6, r7, lr}
 80084de:	4606      	mov	r6, r0
 80084e0:	4608      	mov	r0, r1
 80084e2:	f002 017f 	and.w	r1, r2, #127	@ 0x7f
 80084e6:	461f      	mov	r7, r3
 80084e8:	09d5      	lsrs	r5, r2, #7
 80084ea:	ea50 0301 	orrs.w	r3, r0, r1
 80084ee:	d02a      	beq.n	8008546 <hcd_edpt_xfer+0x6a>
 80084f0:	462a      	mov	r2, r5
 80084f2:	f7ff fd2f 	bl	8007f54 <find_ep_not_addr0>
 80084f6:	4604      	mov	r4, r0
 80084f8:	b320      	cbz	r0, 8008544 <hcd_edpt_xfer+0x68>
 80084fa:	b959      	cbnz	r1, 8008514 <hcd_edpt_xfer+0x38>
 80084fc:	7862      	ldrb	r2, [r4, #1]
 80084fe:	f085 0501 	eor.w	r5, r5, #1
 8008502:	78a3      	ldrb	r3, [r4, #2]
 8008504:	f022 0230 	bic.w	r2, r2, #48	@ 0x30
 8008508:	f043 0310 	orr.w	r3, r3, #16
 800850c:	ea42 1245 	orr.w	r2, r2, r5, lsl #5
 8008510:	70a3      	strb	r3, [r4, #2]
 8008512:	7062      	strb	r2, [r4, #1]
 8008514:	f8bd 3018 	ldrh.w	r3, [sp, #24]
 8008518:	2203      	movs	r2, #3
 800851a:	2500      	movs	r5, #0
 800851c:	60a7      	str	r7, [r4, #8]
 800851e:	80a3      	strh	r3, [r4, #4]
 8008520:	78a3      	ldrb	r3, [r4, #2]
 8008522:	4628      	mov	r0, r5
 8008524:	80e5      	strh	r5, [r4, #6]
 8008526:	f362 0303 	bfi	r3, r2, #0, #4
 800852a:	70a3      	strb	r3, [r4, #2]
 800852c:	f7fe ff68 	bl	8007400 <usbh_spin_lock>
 8008530:	4b09      	ldr	r3, [pc, #36]	@ (8008558 <hcd_edpt_xfer+0x7c>)
 8008532:	7a9a      	ldrb	r2, [r3, #10]
 8008534:	b90a      	cbnz	r2, 800853a <hcd_edpt_xfer+0x5e>
 8008536:	2501      	movs	r5, #1
 8008538:	729d      	strb	r5, [r3, #10]
 800853a:	2000      	movs	r0, #0
 800853c:	f7fe ff64 	bl	8007408 <usbh_spin_unlock>
 8008540:	b91d      	cbnz	r5, 800854a <hcd_edpt_xfer+0x6e>
 8008542:	2001      	movs	r0, #1
 8008544:	bdf8      	pop	{r3, r4, r5, r6, r7, pc}
 8008546:	4c05      	ldr	r4, [pc, #20]	@ (800855c <hcd_edpt_xfer+0x80>)
 8008548:	e7d8      	b.n	80084fc <hcd_edpt_xfer+0x20>
 800854a:	2200      	movs	r2, #0
 800854c:	4621      	mov	r1, r4
 800854e:	4630      	mov	r0, r6
 8008550:	f7ff fe62 	bl	8008218 <xact_generic.constprop.0>
 8008554:	e7f5      	b.n	8008542 <hcd_edpt_xfer+0x66>
 8008556:	bf00      	nop
 8008558:	24001db4 	.word	0x24001db4
 800855c:	24001dc0 	.word	0x24001dc0

08008560 <hcd_edpt_abort_xfer>:
 8008560:	b538      	push	{r3, r4, r5, lr}
 8008562:	4605      	mov	r5, r0
 8008564:	4608      	mov	r0, r1
 8008566:	f002 017f 	and.w	r1, r2, #127	@ 0x7f
 800856a:	ea50 0301 	orrs.w	r3, r0, r1
 800856e:	d005      	beq.n	800857c <hcd_edpt_abort_xfer+0x1c>
 8008570:	09d2      	lsrs	r2, r2, #7
 8008572:	f7ff fcef 	bl	8007f54 <find_ep_not_addr0>
 8008576:	4604      	mov	r4, r0
 8008578:	b908      	cbnz	r0, 800857e <hcd_edpt_abort_xfer+0x1e>
 800857a:	bd38      	pop	{r3, r4, r5, pc}
 800857c:	4c0a      	ldr	r4, [pc, #40]	@ (80085a8 <hcd_edpt_abort_xfer+0x48>)
 800857e:	78a3      	ldrb	r3, [r4, #2]
 8008580:	f003 020f 	and.w	r2, r3, #15
 8008584:	2a02      	cmp	r2, #2
 8008586:	d901      	bls.n	800858c <hcd_edpt_abort_xfer+0x2c>
 8008588:	2a0f      	cmp	r2, #15
 800858a:	d101      	bne.n	8008590 <hcd_edpt_abort_xfer+0x30>
 800858c:	2001      	movs	r0, #1
 800858e:	e7f4      	b.n	800857a <hcd_edpt_abort_xfer+0x1a>
 8008590:	4628      	mov	r0, r5
 8008592:	f7ff ff46 	bl	8008422 <hcd_int_disable>
 8008596:	78a3      	ldrb	r3, [r4, #2]
 8008598:	2202      	movs	r2, #2
 800859a:	4628      	mov	r0, r5
 800859c:	f362 0303 	bfi	r3, r2, #0, #4
 80085a0:	70a3      	strb	r3, [r4, #2]
 80085a2:	f7ff ff3b 	bl	800841c <hcd_int_enable>
 80085a6:	e7f1      	b.n	800858c <hcd_edpt_abort_xfer+0x2c>
 80085a8:	24001dc0 	.word	0x24001dc0

080085ac <hcd_setup_send>:
 80085ac:	b570      	push	{r4, r5, r6, lr}
 80085ae:	4606      	mov	r6, r0
 80085b0:	4615      	mov	r5, r2
 80085b2:	4608      	mov	r0, r1
 80085b4:	b171      	cbz	r1, 80085d4 <hcd_setup_send+0x28>
 80085b6:	2200      	movs	r2, #0
 80085b8:	4611      	mov	r1, r2
 80085ba:	f7ff fccb 	bl	8007f54 <find_ep_not_addr0>
 80085be:	4604      	mov	r4, r0
 80085c0:	b948      	cbnz	r0, 80085d6 <hcd_setup_send+0x2a>
 80085c2:	f04f 23e0 	mov.w	r3, #3758153728	@ 0xe000e000
 80085c6:	f8d3 3df0 	ldr.w	r3, [r3, #3568]	@ 0xdf0
 80085ca:	07db      	lsls	r3, r3, #31
 80085cc:	d500      	bpl.n	80085d0 <hcd_setup_send+0x24>
 80085ce:	be00      	bkpt	0x0000
 80085d0:	2000      	movs	r0, #0
 80085d2:	bd70      	pop	{r4, r5, r6, pc}
 80085d4:	4c12      	ldr	r4, [pc, #72]	@ (8008620 <hcd_setup_send+0x74>)
 80085d6:	7863      	ldrb	r3, [r4, #1]
 80085d8:	2203      	movs	r2, #3
 80085da:	2000      	movs	r0, #0
 80085dc:	60a5      	str	r5, [r4, #8]
 80085de:	f023 0330 	bic.w	r3, r3, #48	@ 0x30
 80085e2:	f043 0330 	orr.w	r3, r3, #48	@ 0x30
 80085e6:	7063      	strb	r3, [r4, #1]
 80085e8:	78a3      	ldrb	r3, [r4, #2]
 80085ea:	f362 0303 	bfi	r3, r2, #0, #4
 80085ee:	70a3      	strb	r3, [r4, #2]
 80085f0:	2308      	movs	r3, #8
 80085f2:	6063      	str	r3, [r4, #4]
 80085f4:	f7fe ff04 	bl	8007400 <usbh_spin_lock>
 80085f8:	4b0a      	ldr	r3, [pc, #40]	@ (8008624 <hcd_setup_send+0x78>)
 80085fa:	7a9a      	ldrb	r2, [r3, #10]
 80085fc:	b93a      	cbnz	r2, 800860e <hcd_setup_send+0x62>
 80085fe:	2501      	movs	r5, #1
 8008600:	729d      	strb	r5, [r3, #10]
 8008602:	2000      	movs	r0, #0
 8008604:	f7fe ff00 	bl	8007408 <usbh_spin_unlock>
 8008608:	b91d      	cbnz	r5, 8008612 <hcd_setup_send+0x66>
 800860a:	2001      	movs	r0, #1
 800860c:	e7e1      	b.n	80085d2 <hcd_setup_send+0x26>
 800860e:	2500      	movs	r5, #0
 8008610:	e7f7      	b.n	8008602 <hcd_setup_send+0x56>
 8008612:	2200      	movs	r2, #0
 8008614:	4621      	mov	r1, r4
 8008616:	4630      	mov	r0, r6
 8008618:	f7ff fd92 	bl	8008140 <xact_setup>
 800861c:	e7f5      	b.n	800860a <hcd_setup_send+0x5e>
 800861e:	bf00      	nop
 8008620:	24001dc0 	.word	0x24001dc0
 8008624:	24001db4 	.word	0x24001db4

08008628 <hcd_int_handler>:
 8008628:	e92d 4ff0 	stmdb	sp!, {r4, r5, r6, r7, r8, r9, sl, fp, lr}
 800862c:	4ec0      	ldr	r6, [pc, #768]	@ (8008930 <hcd_int_handler+0x308>)
 800862e:	460a      	mov	r2, r1
 8008630:	b089      	sub	sp, #36	@ 0x24
 8008632:	460c      	mov	r4, r1
 8008634:	21c8      	movs	r1, #200	@ 0xc8
 8008636:	4605      	mov	r5, r0
 8008638:	f7ff fd38 	bl	80080ac <tuh_max3421_reg_read>
 800863c:	7933      	ldrb	r3, [r6, #4]
 800863e:	ea10 0703 	ands.w	r7, r0, r3
 8008642:	f000 8143 	beq.w	80088cc <hcd_int_handler+0x2a4>
 8008646:	0679      	lsls	r1, r7, #25
 8008648:	d538      	bpl.n	80086bc <hcd_int_handler+0x94>
 800864a:	8833      	ldrh	r3, [r6, #0]
 800864c:	210c      	movs	r1, #12
 800864e:	f04f 0c03 	mov.w	ip, #3
 8008652:	3301      	adds	r3, #1
 8008654:	b29b      	uxth	r3, r3
 8008656:	8033      	strh	r3, [r6, #0]
 8008658:	2300      	movs	r3, #0
 800865a:	4699      	mov	r9, r3
 800865c:	fb01 6203 	mla	r2, r1, r3, r6
 8008660:	3301      	adds	r3, #1
 8008662:	f102 0008 	add.w	r0, r2, #8
 8008666:	89d2      	ldrh	r2, [r2, #14]
 8008668:	2a1f      	cmp	r2, #31
 800866a:	d90d      	bls.n	8008688 <hcd_int_handler+0x60>
 800866c:	7982      	ldrb	r2, [r0, #6]
 800866e:	f002 0e0f 	and.w	lr, r2, #15
 8008672:	f1be 0f03 	cmp.w	lr, #3
 8008676:	d907      	bls.n	8008688 <hcd_int_handler+0x60>
 8008678:	f36c 0203 	bfi	r2, ip, #0, #4
 800867c:	7182      	strb	r2, [r0, #6]
 800867e:	f1b9 0f00 	cmp.w	r9, #0
 8008682:	d101      	bne.n	8008688 <hcd_int_handler+0x60>
 8008684:	fb01 6903 	mla	r9, r1, r3, r6
 8008688:	2b08      	cmp	r3, #8
 800868a:	d1e7      	bne.n	800865c <hcd_int_handler+0x34>
 800868c:	f1b9 0f00 	cmp.w	r9, #0
 8008690:	d014      	beq.n	80086bc <hcd_int_handler+0x94>
 8008692:	4620      	mov	r0, r4
 8008694:	f7fe feb4 	bl	8007400 <usbh_spin_lock>
 8008698:	7ab3      	ldrb	r3, [r6, #10]
 800869a:	2b00      	cmp	r3, #0
 800869c:	d13d      	bne.n	800871a <hcd_int_handler+0xf2>
 800869e:	f04f 0801 	mov.w	r8, #1
 80086a2:	f886 800a 	strb.w	r8, [r6, #10]
 80086a6:	4620      	mov	r0, r4
 80086a8:	f7fe feae 	bl	8007408 <usbh_spin_unlock>
 80086ac:	f1b8 0f00 	cmp.w	r8, #0
 80086b0:	d004      	beq.n	80086bc <hcd_int_handler+0x94>
 80086b2:	4622      	mov	r2, r4
 80086b4:	4649      	mov	r1, r9
 80086b6:	4628      	mov	r0, r5
 80086b8:	f7ff fdae 	bl	8008218 <xact_generic.constprop.0>
 80086bc:	06ba      	lsls	r2, r7, #26
 80086be:	d529      	bpl.n	8008714 <hcd_int_handler+0xec>
 80086c0:	4622      	mov	r2, r4
 80086c2:	21f8      	movs	r1, #248	@ 0xf8
 80086c4:	4628      	mov	r0, r5
 80086c6:	f7ff fcf1 	bl	80080ac <tuh_max3421_reg_read>
 80086ca:	f010 00c0 	ands.w	r0, r0, #192	@ 0xc0
 80086ce:	d001      	beq.n	80086d4 <hcd_int_handler+0xac>
 80086d0:	28c0      	cmp	r0, #192	@ 0xc0
 80086d2:	d125      	bne.n	8008720 <hcd_int_handler+0xf8>
 80086d4:	22c1      	movs	r2, #193	@ 0xc1
 80086d6:	4623      	mov	r3, r4
 80086d8:	21d8      	movs	r1, #216	@ 0xd8
 80086da:	4628      	mov	r0, r5
 80086dc:	7172      	strb	r2, [r6, #5]
 80086de:	f7ff fd0b 	bl	80080f8 <tuh_max3421_reg_write>
 80086e2:	2201      	movs	r2, #1
 80086e4:	4623      	mov	r3, r4
 80086e6:	21e8      	movs	r1, #232	@ 0xe8
 80086e8:	4628      	mov	r0, r5
 80086ea:	f7ff fd05 	bl	80080f8 <tuh_max3421_reg_write>
 80086ee:	f04f 0800 	mov.w	r8, #0
 80086f2:	2301      	movs	r3, #1
 80086f4:	4621      	mov	r1, r4
 80086f6:	a805      	add	r0, sp, #20
 80086f8:	f88d 5014 	strb.w	r5, [sp, #20]
 80086fc:	f88d 3015 	strb.w	r3, [sp, #21]
 8008700:	f8ad 8018 	strh.w	r8, [sp, #24]
 8008704:	f7fe ffee 	bl	80076e4 <hcd_event_handler>
 8008708:	4623      	mov	r3, r4
 800870a:	4642      	mov	r2, r8
 800870c:	21e8      	movs	r1, #232	@ 0xe8
 800870e:	4628      	mov	r0, r5
 8008710:	f7ff fcf2 	bl	80080f8 <tuh_max3421_reg_write>
 8008714:	f04f 0908 	mov.w	r9, #8
 8008718:	e0c7      	b.n	80088aa <hcd_int_handler+0x282>
 800871a:	f04f 0800 	mov.w	r8, #0
 800871e:	e7c2      	b.n	80086a6 <hcd_int_handler+0x7e>
 8008720:	78f3      	ldrb	r3, [r6, #3]
 8008722:	07db      	lsls	r3, r3, #31
 8008724:	d502      	bpl.n	800872c <hcd_int_handler+0x104>
 8008726:	7973      	ldrb	r3, [r6, #5]
 8008728:	0719      	lsls	r1, r3, #28
 800872a:	d4f3      	bmi.n	8008714 <hcd_int_handler+0xec>
 800872c:	2840      	cmp	r0, #64	@ 0x40
 800872e:	4623      	mov	r3, r4
 8008730:	f04f 01d8 	mov.w	r1, #216	@ 0xd8
 8008734:	4628      	mov	r0, r5
 8008736:	bf0c      	ite	eq
 8008738:	22c3      	moveq	r2, #195	@ 0xc3
 800873a:	22c1      	movne	r2, #193	@ 0xc1
 800873c:	f042 0208 	orr.w	r2, r2, #8
 8008740:	7172      	strb	r2, [r6, #5]
 8008742:	f7ff fcd9 	bl	80080f8 <tuh_max3421_reg_write>
 8008746:	4b7a      	ldr	r3, [pc, #488]	@ (8008930 <hcd_int_handler+0x308>)
 8008748:	2101      	movs	r1, #1
 800874a:	2000      	movs	r0, #0
 800874c:	7e1a      	ldrb	r2, [r3, #24]
 800874e:	3101      	adds	r1, #1
 8008750:	2a01      	cmp	r2, #1
 8008752:	bf04      	itt	eq
 8008754:	e9c3 0006 	strdeq	r0, r0, [r3, #24]
 8008758:	6218      	streq	r0, [r3, #32]
 800875a:	2908      	cmp	r1, #8
 800875c:	f103 030c 	add.w	r3, r3, #12
 8008760:	d1f4      	bne.n	800874c <hcd_int_handler+0x124>
 8008762:	2300      	movs	r3, #0
 8008764:	4621      	mov	r1, r4
 8008766:	a805      	add	r0, sp, #20
 8008768:	f88d 5014 	strb.w	r5, [sp, #20]
 800876c:	f88d 3015 	strb.w	r3, [sp, #21]
 8008770:	f8ad 3018 	strh.w	r3, [sp, #24]
 8008774:	f7fe ffb6 	bl	80076e4 <hcd_event_handler>
 8008778:	e7cc      	b.n	8008714 <hcd_int_handler+0xec>
 800877a:	077b      	lsls	r3, r7, #29
 800877c:	d569      	bpl.n	8008852 <hcd_int_handler+0x22a>
 800877e:	79f1      	ldrb	r1, [r6, #7]
 8008780:	79b0      	ldrb	r0, [r6, #6]
 8008782:	f001 010f 	and.w	r1, r1, #15
 8008786:	b910      	cbnz	r0, 800878e <hcd_int_handler+0x166>
 8008788:	2900      	cmp	r1, #0
 800878a:	f000 80a2 	beq.w	80088d2 <hcd_int_handler+0x2aa>
 800878e:	2201      	movs	r2, #1
 8008790:	f7ff fbe0 	bl	8007f54 <find_ep_not_addr0>
 8008794:	4680      	mov	r8, r0
 8008796:	4622      	mov	r2, r4
 8008798:	2130      	movs	r1, #48	@ 0x30
 800879a:	4628      	mov	r0, r5
 800879c:	f7ff fc86 	bl	80080ac <tuh_max3421_reg_read>
 80087a0:	f8b8 3004 	ldrh.w	r3, [r8, #4]
 80087a4:	f8b8 2006 	ldrh.w	r2, [r8, #6]
 80087a8:	1a9b      	subs	r3, r3, r2
 80087aa:	fa1f fa83 	uxth.w	sl, r3
 80087ae:	4582      	cmp	sl, r0
 80087b0:	bf28      	it	cs
 80087b2:	4682      	movcs	sl, r0
 80087b4:	fa1f fa8a 	uxth.w	sl, sl
 80087b8:	f1ba 0f00 	cmp.w	sl, #0
 80087bc:	d025      	beq.n	800880a <hcd_int_handler+0x1e2>
 80087be:	4621      	mov	r1, r4
 80087c0:	4628      	mov	r0, r5
 80087c2:	f8d8 7008 	ldr.w	r7, [r8, #8]
 80087c6:	f88d 9014 	strb.w	r9, [sp, #20]
 80087ca:	f7ff fc2d 	bl	8008028 <max3421_spi_lock>
 80087ce:	2301      	movs	r3, #1
 80087d0:	f10d 0213 	add.w	r2, sp, #19
 80087d4:	a905      	add	r1, sp, #20
 80087d6:	4628      	mov	r0, r5
 80087d8:	f7f8 fb3e 	bl	8000e58 <tuh_max3421_spi_xfer_api>
 80087dc:	f89d 3013 	ldrb.w	r3, [sp, #19]
 80087e0:	463a      	mov	r2, r7
 80087e2:	2100      	movs	r1, #0
 80087e4:	70f3      	strb	r3, [r6, #3]
 80087e6:	4628      	mov	r0, r5
 80087e8:	4653      	mov	r3, sl
 80087ea:	f7f8 fb35 	bl	8000e58 <tuh_max3421_spi_xfer_api>
 80087ee:	4621      	mov	r1, r4
 80087f0:	4628      	mov	r0, r5
 80087f2:	f7ff fc24 	bl	800803e <max3421_spi_unlock>
 80087f6:	f8d8 3008 	ldr.w	r3, [r8, #8]
 80087fa:	4453      	add	r3, sl
 80087fc:	f8c8 3008 	str.w	r3, [r8, #8]
 8008800:	f8b8 3006 	ldrh.w	r3, [r8, #6]
 8008804:	4453      	add	r3, sl
 8008806:	f8a8 3006 	strh.w	r3, [r8, #6]
 800880a:	4623      	mov	r3, r4
 800880c:	2204      	movs	r2, #4
 800880e:	21c8      	movs	r1, #200	@ 0xc8
 8008810:	4628      	mov	r0, r5
 8008812:	f7ff fc71 	bl	80080f8 <tuh_max3421_reg_write>
 8008816:	78f3      	ldrb	r3, [r6, #3]
 8008818:	4622      	mov	r2, r4
 800881a:	21c8      	movs	r1, #200	@ 0xc8
 800881c:	f023 0304 	bic.w	r3, r3, #4
 8008820:	4628      	mov	r0, r5
 8008822:	70f3      	strb	r3, [r6, #3]
 8008824:	f7ff fc42 	bl	80080ac <tuh_max3421_reg_read>
 8008828:	4607      	mov	r7, r0
 800882a:	0778      	lsls	r0, r7, #29
 800882c:	d4b3      	bmi.n	8008796 <hcd_int_handler+0x16e>
 800882e:	f8b8 3002 	ldrh.w	r3, [r8, #2]
 8008832:	ebba 1f53 	cmp.w	sl, r3, lsr #5
 8008836:	d305      	bcc.n	8008844 <hcd_int_handler+0x21c>
 8008838:	f8b8 2006 	ldrh.w	r2, [r8, #6]
 800883c:	f8b8 3004 	ldrh.w	r3, [r8, #4]
 8008840:	429a      	cmp	r2, r3
 8008842:	d306      	bcc.n	8008852 <hcd_int_handler+0x22a>
 8008844:	f898 3002 	ldrb.w	r3, [r8, #2]
 8008848:	2201      	movs	r2, #1
 800884a:	f362 0303 	bfi	r3, r2, #0, #4
 800884e:	f888 3002 	strb.w	r3, [r8, #2]
 8008852:	0639      	lsls	r1, r7, #24
 8008854:	d523      	bpl.n	800889e <hcd_int_handler+0x276>
 8008856:	4623      	mov	r3, r4
 8008858:	2280      	movs	r2, #128	@ 0x80
 800885a:	21c8      	movs	r1, #200	@ 0xc8
 800885c:	4628      	mov	r0, r5
 800885e:	f7ff fc4b 	bl	80080f8 <tuh_max3421_reg_write>
 8008862:	78f3      	ldrb	r3, [r6, #3]
 8008864:	21f8      	movs	r1, #248	@ 0xf8
 8008866:	4622      	mov	r2, r4
 8008868:	f003 037f 	and.w	r3, r3, #127	@ 0x7f
 800886c:	4628      	mov	r0, r5
 800886e:	70f3      	strb	r3, [r6, #3]
 8008870:	f7ff fc1c 	bl	80080ac <tuh_max3421_reg_read>
 8008874:	f896 8007 	ldrb.w	r8, [r6, #7]
 8008878:	4682      	mov	sl, r0
 800887a:	f000 030f 	and.w	r3, r0, #15
 800887e:	79b0      	ldrb	r0, [r6, #6]
 8008880:	f008 010f 	and.w	r1, r8, #15
 8008884:	f008 0b30 	and.w	fp, r8, #48	@ 0x30
 8008888:	b900      	cbnz	r0, 800888c <hcd_int_handler+0x264>
 800888a:	b329      	cbz	r1, 80088d8 <hcd_int_handler+0x2b0>
 800888c:	fabb f28b 	clz	r2, fp
 8008890:	9303      	str	r3, [sp, #12]
 8008892:	0952      	lsrs	r2, r2, #5
 8008894:	f7ff fb5e 	bl	8007f54 <find_ep_not_addr0>
 8008898:	9b03      	ldr	r3, [sp, #12]
 800889a:	4607      	mov	r7, r0
 800889c:	b9e8      	cbnz	r0, 80088da <hcd_int_handler+0x2b2>
 800889e:	4622      	mov	r2, r4
 80088a0:	21c8      	movs	r1, #200	@ 0xc8
 80088a2:	4628      	mov	r0, r5
 80088a4:	f7ff fc02 	bl	80080ac <tuh_max3421_reg_read>
 80088a8:	4607      	mov	r7, r0
 80088aa:	f017 0f84 	tst.w	r7, #132	@ 0x84
 80088ae:	f47f af64 	bne.w	800877a <hcd_int_handler+0x152>
 80088b2:	f017 07f7 	ands.w	r7, r7, #247	@ 0xf7
 80088b6:	d009      	beq.n	80088cc <hcd_int_handler+0x2a4>
 80088b8:	4623      	mov	r3, r4
 80088ba:	463a      	mov	r2, r7
 80088bc:	21c8      	movs	r1, #200	@ 0xc8
 80088be:	4628      	mov	r0, r5
 80088c0:	f7ff fc1a 	bl	80080f8 <tuh_max3421_reg_write>
 80088c4:	78f3      	ldrb	r3, [r6, #3]
 80088c6:	ea23 0307 	bic.w	r3, r3, r7
 80088ca:	70f3      	strb	r3, [r6, #3]
 80088cc:	b009      	add	sp, #36	@ 0x24
 80088ce:	e8bd 8ff0 	ldmia.w	sp!, {r4, r5, r6, r7, r8, r9, sl, fp, pc}
 80088d2:	f8df 8060 	ldr.w	r8, [pc, #96]	@ 8008934 <hcd_int_handler+0x30c>
 80088d6:	e75e      	b.n	8008796 <hcd_int_handler+0x16e>
 80088d8:	4f16      	ldr	r7, [pc, #88]	@ (8008934 <hcd_int_handler+0x30c>)
 80088da:	2b05      	cmp	r3, #5
 80088dc:	d869      	bhi.n	80089b2 <hcd_int_handler+0x38a>
 80088de:	a201      	add	r2, pc, #4	@ (adr r2, 80088e4 <hcd_int_handler+0x2bc>)
 80088e0:	f852 f023 	ldr.w	pc, [r2, r3, lsl #2]
 80088e4:	0800896d 	.word	0x0800896d
 80088e8:	080089b3 	.word	0x080089b3
 80088ec:	0800889f 	.word	0x0800889f
 80088f0:	080089b3 	.word	0x080089b3
 80088f4:	080088fd 	.word	0x080088fd
 80088f8:	080089c3 	.word	0x080089c3
 80088fc:	78bb      	ldrb	r3, [r7, #2]
 80088fe:	f003 000f 	and.w	r0, r3, #15
 8008902:	2802      	cmp	r0, #2
 8008904:	d10b      	bne.n	800891e <hcd_int_handler+0x2f6>
 8008906:	f023 030f 	bic.w	r3, r3, #15
 800890a:	70bb      	strb	r3, [r7, #2]
 800890c:	4638      	mov	r0, r7
 800890e:	f7ff fb47 	bl	8007fa0 <find_next_pending_ep>
 8008912:	4287      	cmp	r7, r0
 8008914:	4682      	mov	sl, r0
 8008916:	d119      	bne.n	800894c <hcd_int_handler+0x324>
 8008918:	f886 8007 	strb.w	r8, [r6, #7]
 800891c:	e000      	b.n	8008920 <hcd_int_handler+0x2f8>
 800891e:	b959      	cbnz	r1, 8008938 <hcd_int_handler+0x310>
 8008920:	4623      	mov	r3, r4
 8008922:	4642      	mov	r2, r8
 8008924:	21f0      	movs	r1, #240	@ 0xf0
 8008926:	4628      	mov	r0, r5
 8008928:	f7ff fbe6 	bl	80080f8 <tuh_max3421_reg_write>
 800892c:	e7b7      	b.n	800889e <hcd_int_handler+0x276>
 800892e:	bf00      	nop
 8008930:	24001db4 	.word	0x24001db4
 8008934:	24001dc0 	.word	0x24001dc0
 8008938:	f003 020f 	and.w	r2, r3, #15
 800893c:	2a02      	cmp	r2, #2
 800893e:	d9e5      	bls.n	800890c <hcd_int_handler+0x2e4>
 8008940:	280f      	cmp	r0, #15
 8008942:	d0e3      	beq.n	800890c <hcd_int_handler+0x2e4>
 8008944:	3201      	adds	r2, #1
 8008946:	f362 0303 	bfi	r3, r2, #0, #4
 800894a:	e7de      	b.n	800890a <hcd_int_handler+0x2e2>
 800894c:	b128      	cbz	r0, 800895a <hcd_int_handler+0x332>
 800894e:	4601      	mov	r1, r0
 8008950:	4622      	mov	r2, r4
 8008952:	4628      	mov	r0, r5
 8008954:	f7ff fc60 	bl	8008218 <xact_generic.constprop.0>
 8008958:	e7a1      	b.n	800889e <hcd_int_handler+0x276>
 800895a:	4620      	mov	r0, r4
 800895c:	f7fe fd50 	bl	8007400 <usbh_spin_lock>
 8008960:	4620      	mov	r0, r4
 8008962:	f886 a00a 	strb.w	sl, [r6, #10]
 8008966:	f7fe fd4f 	bl	8007408 <usbh_spin_unlock>
 800896a:	e798      	b.n	800889e <hcd_int_handler+0x276>
 800896c:	f008 03f0 	and.w	r3, r8, #240	@ 0xf0
 8008970:	f1bb 0f00 	cmp.w	fp, #0
 8008974:	d027      	beq.n	80089c6 <hcd_int_handler+0x39e>
 8008976:	f64f 72ff 	movw	r2, #65535	@ 0xffff
 800897a:	8132      	strh	r2, [r6, #8]
 800897c:	f018 0210 	ands.w	r2, r8, #16
 8008980:	d131      	bne.n	80089e6 <hcd_int_handler+0x3be>
 8008982:	061b      	lsls	r3, r3, #24
 8008984:	d400      	bmi.n	8008988 <hcd_int_handler+0x360>
 8008986:	78b2      	ldrb	r2, [r6, #2]
 8008988:	68bb      	ldr	r3, [r7, #8]
 800898a:	88f9      	ldrh	r1, [r7, #6]
 800898c:	4413      	add	r3, r2
 800898e:	4411      	add	r1, r2
 8008990:	60bb      	str	r3, [r7, #8]
 8008992:	887b      	ldrh	r3, [r7, #2]
 8008994:	b289      	uxth	r1, r1
 8008996:	ebb2 1f53 	cmp.w	r2, r3, lsr #5
 800899a:	80f9      	strh	r1, [r7, #6]
 800899c:	db1f      	blt.n	80089de <hcd_int_handler+0x3b6>
 800899e:	88bb      	ldrh	r3, [r7, #4]
 80089a0:	428b      	cmp	r3, r1
 80089a2:	d91c      	bls.n	80089de <hcd_int_handler+0x3b6>
 80089a4:	4623      	mov	r3, r4
 80089a6:	2200      	movs	r2, #0
 80089a8:	4639      	mov	r1, r7
 80089aa:	4628      	mov	r0, r5
 80089ac:	f7ff fbea 	bl	8008184 <xact_out>
 80089b0:	e775      	b.n	800889e <hcd_int_handler+0x276>
 80089b2:	2201      	movs	r2, #1
 80089b4:	4653      	mov	r3, sl
 80089b6:	9400      	str	r4, [sp, #0]
 80089b8:	4639      	mov	r1, r7
 80089ba:	4628      	mov	r0, r5
 80089bc:	f7ff fc7c 	bl	80082b8 <xfer_complete_isr>
 80089c0:	e76d      	b.n	800889e <hcd_int_handler+0x276>
 80089c2:	2202      	movs	r2, #2
 80089c4:	e7f6      	b.n	80089b4 <hcd_int_handler+0x38c>
 80089c6:	061a      	lsls	r2, r3, #24
 80089c8:	bf41      	itttt	mi
 80089ca:	78bb      	ldrbmi	r3, [r7, #2]
 80089cc:	2201      	movmi	r2, #1
 80089ce:	f362 0303 	bfimi	r3, r2, #0, #4
 80089d2:	70bb      	strbmi	r3, [r7, #2]
 80089d4:	78bb      	ldrb	r3, [r7, #2]
 80089d6:	f003 030f 	and.w	r3, r3, #15
 80089da:	2b01      	cmp	r3, #1
 80089dc:	d19c      	bne.n	8008918 <hcd_int_handler+0x2f0>
 80089de:	4653      	mov	r3, sl
 80089e0:	2200      	movs	r2, #0
 80089e2:	9400      	str	r4, [sp, #0]
 80089e4:	e7e8      	b.n	80089b8 <hcd_int_handler+0x390>
 80089e6:	2208      	movs	r2, #8
 80089e8:	e7ce      	b.n	8008988 <hcd_int_handler+0x360>
 80089ea:	bf00      	nop

080089ec <tusb_time_delay_ms_api>:
 80089ec:	b538      	push	{r3, r4, r5, lr}
 80089ee:	4604      	mov	r4, r0
 80089f0:	f7f8 fa3a 	bl	8000e68 <tusb_time_millis_api>
 80089f4:	4605      	mov	r5, r0
 80089f6:	f7f8 fa37 	bl	8000e68 <tusb_time_millis_api>
 80089fa:	1b43      	subs	r3, r0, r5
 80089fc:	42a3      	cmp	r3, r4
 80089fe:	d3fa      	bcc.n	80089f6 <tusb_time_delay_ms_api+0xa>
 8008a00:	bd38      	pop	{r3, r4, r5, pc}
	...

08008a04 <tusb_rhport_init>:
 8008a04:	b513      	push	{r0, r1, r4, lr}
 8008a06:	b999      	cbnz	r1, 8008a30 <tusb_rhport_init+0x2c>
 8008a08:	2402      	movs	r4, #2
 8008a0a:	a901      	add	r1, sp, #4
 8008a0c:	2001      	movs	r0, #1
 8008a0e:	f8ad 4004 	strh.w	r4, [sp, #4]
 8008a12:	f7fe fc7f 	bl	8007314 <tuh_rhport_init>
 8008a16:	b940      	cbnz	r0, 8008a2a <tusb_rhport_init+0x26>
 8008a18:	f04f 23e0 	mov.w	r3, #3758153728	@ 0xe000e000
 8008a1c:	f8d3 3df0 	ldr.w	r3, [r3, #3568]	@ 0xdf0
 8008a20:	07da      	lsls	r2, r3, #31
 8008a22:	d500      	bpl.n	8008a26 <tusb_rhport_init+0x22>
 8008a24:	be00      	bkpt	0x0000
 8008a26:	b002      	add	sp, #8
 8008a28:	bd10      	pop	{r4, pc}
 8008a2a:	4b0d      	ldr	r3, [pc, #52]	@ (8008a60 <tusb_rhport_init+0x5c>)
 8008a2c:	705c      	strb	r4, [r3, #1]
 8008a2e:	e7fa      	b.n	8008a26 <tusb_rhport_init+0x22>
 8008a30:	2801      	cmp	r0, #1
 8008a32:	d801      	bhi.n	8008a38 <tusb_rhport_init+0x34>
 8008a34:	780a      	ldrb	r2, [r1, #0]
 8008a36:	b942      	cbnz	r2, 8008a4a <tusb_rhport_init+0x46>
 8008a38:	f04f 23e0 	mov.w	r3, #3758153728	@ 0xe000e000
 8008a3c:	f8d3 3df0 	ldr.w	r3, [r3, #3568]	@ 0xdf0
 8008a40:	07db      	lsls	r3, r3, #31
 8008a42:	d500      	bpl.n	8008a46 <tusb_rhport_init+0x42>
 8008a44:	be00      	bkpt	0x0000
 8008a46:	2000      	movs	r0, #0
 8008a48:	e7ed      	b.n	8008a26 <tusb_rhport_init+0x22>
 8008a4a:	4c05      	ldr	r4, [pc, #20]	@ (8008a60 <tusb_rhport_init+0x5c>)
 8008a4c:	2a02      	cmp	r2, #2
 8008a4e:	5422      	strb	r2, [r4, r0]
 8008a50:	d001      	beq.n	8008a56 <tusb_rhport_init+0x52>
 8008a52:	2001      	movs	r0, #1
 8008a54:	e7e7      	b.n	8008a26 <tusb_rhport_init+0x22>
 8008a56:	f7fe fc5d 	bl	8007314 <tuh_rhport_init>
 8008a5a:	2800      	cmp	r0, #0
 8008a5c:	d1f9      	bne.n	8008a52 <tusb_rhport_init+0x4e>
 8008a5e:	e7eb      	b.n	8008a38 <tusb_rhport_init+0x34>
 8008a60:	24001e20 	.word	0x24001e20

08008a64 <tu_edpt_claim>:
 8008a64:	7803      	ldrb	r3, [r0, #0]
 8008a66:	4602      	mov	r2, r0
 8008a68:	f013 0001 	ands.w	r0, r3, #1
 8008a6c:	d111      	bne.n	8008a92 <tu_edpt_claim+0x2e>
 8008a6e:	7813      	ldrb	r3, [r2, #0]
 8008a70:	f3c3 0180 	ubfx	r1, r3, #2, #1
 8008a74:	075b      	lsls	r3, r3, #29
 8008a76:	d40f      	bmi.n	8008a98 <tu_edpt_claim+0x34>
 8008a78:	7813      	ldrb	r3, [r2, #0]
 8008a7a:	f013 0001 	ands.w	r0, r3, #1
 8008a7e:	d10a      	bne.n	8008a96 <tu_edpt_claim+0x32>
 8008a80:	7813      	ldrb	r3, [r2, #0]
 8008a82:	075b      	lsls	r3, r3, #29
 8008a84:	d408      	bmi.n	8008a98 <tu_edpt_claim+0x34>
 8008a86:	7813      	ldrb	r3, [r2, #0]
 8008a88:	2001      	movs	r0, #1
 8008a8a:	f043 0304 	orr.w	r3, r3, #4
 8008a8e:	7013      	strb	r3, [r2, #0]
 8008a90:	4770      	bx	lr
 8008a92:	2000      	movs	r0, #0
 8008a94:	4770      	bx	lr
 8008a96:	4608      	mov	r0, r1
 8008a98:	4770      	bx	lr

08008a9a <tu_edpt_release>:
 8008a9a:	7802      	ldrb	r2, [r0, #0]
 8008a9c:	4603      	mov	r3, r0
 8008a9e:	f3c2 0080 	ubfx	r0, r2, #2, #1
 8008aa2:	0752      	lsls	r2, r2, #29
 8008aa4:	d509      	bpl.n	8008aba <tu_edpt_release+0x20>
 8008aa6:	781a      	ldrb	r2, [r3, #0]
 8008aa8:	f012 0101 	ands.w	r1, r2, #1
 8008aac:	d104      	bne.n	8008ab8 <tu_edpt_release+0x1e>
 8008aae:	781a      	ldrb	r2, [r3, #0]
 8008ab0:	f361 0282 	bfi	r2, r1, #2, #1
 8008ab4:	701a      	strb	r2, [r3, #0]
 8008ab6:	4770      	bx	lr
 8008ab8:	2000      	movs	r0, #0
 8008aba:	4770      	bx	lr

08008abc <tu_edpt_validate>:
 8008abc:	b530      	push	{r4, r5, lr}
 8008abe:	78c4      	ldrb	r4, [r0, #3]
 8008ac0:	8885      	ldrh	r5, [r0, #4]
 8008ac2:	f004 0403 	and.w	r4, r4, #3
 8008ac6:	f3c5 030a 	ubfx	r3, r5, #0, #11
 8008aca:	2c02      	cmp	r4, #2
 8008acc:	d00c      	beq.n	8008ae8 <tu_edpt_validate+0x2c>
 8008ace:	2c03      	cmp	r4, #3
 8008ad0:	d031      	beq.n	8008b36 <tu_edpt_validate+0x7a>
 8008ad2:	2c01      	cmp	r4, #1
 8008ad4:	d114      	bne.n	8008b00 <tu_edpt_validate+0x44>
 8008ad6:	2902      	cmp	r1, #2
 8008ad8:	f240 32ff 	movw	r2, #1023	@ 0x3ff
 8008adc:	bf08      	it	eq
 8008ade:	f44f 6280 	moveq.w	r2, #1024	@ 0x400
 8008ae2:	429a      	cmp	r2, r3
 8008ae4:	d216      	bcs.n	8008b14 <tu_edpt_validate+0x58>
 8008ae6:	e004      	b.n	8008af2 <tu_edpt_validate+0x36>
 8008ae8:	2902      	cmp	r1, #2
 8008aea:	d10b      	bne.n	8008b04 <tu_edpt_validate+0x48>
 8008aec:	f5b3 7f00 	cmp.w	r3, #512	@ 0x200
 8008af0:	d010      	beq.n	8008b14 <tu_edpt_validate+0x58>
 8008af2:	f04f 23e0 	mov.w	r3, #3758153728	@ 0xe000e000
 8008af6:	f8d3 3df0 	ldr.w	r3, [r3, #3568]	@ 0xdf0
 8008afa:	07da      	lsls	r2, r3, #31
 8008afc:	d500      	bpl.n	8008b00 <tu_edpt_validate+0x44>
 8008afe:	be00      	bkpt	0x0000
 8008b00:	2000      	movs	r0, #0
 8008b02:	bd30      	pop	{r4, r5, pc}
 8008b04:	b142      	cbz	r2, 8008b18 <tu_edpt_validate+0x5c>
 8008b06:	f5b3 7f00 	cmp.w	r3, #512	@ 0x200
 8008b0a:	d105      	bne.n	8008b18 <tu_edpt_validate+0x5c>
 8008b0c:	2340      	movs	r3, #64	@ 0x40
 8008b0e:	7103      	strb	r3, [r0, #4]
 8008b10:	2300      	movs	r3, #0
 8008b12:	7143      	strb	r3, [r0, #5]
 8008b14:	2001      	movs	r0, #1
 8008b16:	e7f4      	b.n	8008b02 <tu_edpt_validate+0x46>
 8008b18:	2b20      	cmp	r3, #32
 8008b1a:	d80a      	bhi.n	8008b32 <tu_edpt_validate+0x76>
 8008b1c:	f415 6fff 	tst.w	r5, #2040	@ 0x7f8
 8008b20:	d0e7      	beq.n	8008af2 <tu_edpt_validate+0x36>
 8008b22:	3b08      	subs	r3, #8
 8008b24:	4a06      	ldr	r2, [pc, #24]	@ (8008b40 <tu_edpt_validate+0x84>)
 8008b26:	b29b      	uxth	r3, r3
 8008b28:	fa22 f303 	lsr.w	r3, r2, r3
 8008b2c:	07db      	lsls	r3, r3, #31
 8008b2e:	d4f1      	bmi.n	8008b14 <tu_edpt_validate+0x58>
 8008b30:	e7df      	b.n	8008af2 <tu_edpt_validate+0x36>
 8008b32:	2b40      	cmp	r3, #64	@ 0x40
 8008b34:	e7dc      	b.n	8008af0 <tu_edpt_validate+0x34>
 8008b36:	2902      	cmp	r1, #2
 8008b38:	bf18      	it	ne
 8008b3a:	2240      	movne	r2, #64	@ 0x40
 8008b3c:	e7ce      	b.n	8008adc <tu_edpt_validate+0x20>
 8008b3e:	bf00      	nop
 8008b40:	01000101 	.word	0x01000101

08008b44 <tu_edpt_bind_driver>:
 8008b44:	440a      	add	r2, r1
 8008b46:	b530      	push	{r4, r5, lr}
 8008b48:	4291      	cmp	r1, r2
 8008b4a:	d300      	bcc.n	8008b4e <tu_edpt_bind_driver+0xa>
 8008b4c:	bd30      	pop	{r4, r5, pc}
 8008b4e:	784c      	ldrb	r4, [r1, #1]
 8008b50:	2c05      	cmp	r4, #5
 8008b52:	d106      	bne.n	8008b62 <tu_edpt_bind_driver+0x1e>
 8008b54:	788c      	ldrb	r4, [r1, #2]
 8008b56:	f004 057f 	and.w	r5, r4, #127	@ 0x7f
 8008b5a:	09e4      	lsrs	r4, r4, #7
 8008b5c:	eb00 0545 	add.w	r5, r0, r5, lsl #1
 8008b60:	552b      	strb	r3, [r5, r4]
 8008b62:	780c      	ldrb	r4, [r1, #0]
 8008b64:	4421      	add	r1, r4
 8008b66:	e7ef      	b.n	8008b48 <tu_edpt_bind_driver+0x4>

08008b68 <tu_desc_get_interface_total_len>:
 8008b68:	4603      	mov	r3, r0
 8008b6a:	b570      	push	{r4, r5, r6, lr}
 8008b6c:	4604      	mov	r4, r0
 8008b6e:	2000      	movs	r0, #0
 8008b70:	b901      	cbnz	r1, 8008b74 <tu_desc_get_interface_total_len+0xc>
 8008b72:	bd70      	pop	{r4, r5, r6, pc}
 8008b74:	7825      	ldrb	r5, [r4, #0]
 8008b76:	4428      	add	r0, r5
 8008b78:	781d      	ldrb	r5, [r3, #0]
 8008b7a:	b280      	uxth	r0, r0
 8008b7c:	4290      	cmp	r0, r2
 8008b7e:	442b      	add	r3, r5
 8008b80:	d201      	bcs.n	8008b86 <tu_desc_get_interface_total_len+0x1e>
 8008b82:	781d      	ldrb	r5, [r3, #0]
 8008b84:	b915      	cbnz	r5, 8008b8c <tu_desc_get_interface_total_len+0x24>
 8008b86:	3901      	subs	r1, #1
 8008b88:	b2c9      	uxtb	r1, r1
 8008b8a:	e7f1      	b.n	8008b70 <tu_desc_get_interface_total_len+0x8>
 8008b8c:	785e      	ldrb	r6, [r3, #1]
 8008b8e:	2e0b      	cmp	r6, #11
 8008b90:	d0ef      	beq.n	8008b72 <tu_desc_get_interface_total_len+0xa>
 8008b92:	2e04      	cmp	r6, #4
 8008b94:	d102      	bne.n	8008b9c <tu_desc_get_interface_total_len+0x34>
 8008b96:	78de      	ldrb	r6, [r3, #3]
 8008b98:	2e00      	cmp	r6, #0
 8008b9a:	d0f4      	beq.n	8008b86 <tu_desc_get_interface_total_len+0x1e>
 8008b9c:	4428      	add	r0, r5
 8008b9e:	b280      	uxth	r0, r0
 8008ba0:	e7ec      	b.n	8008b7c <tu_desc_get_interface_total_len+0x14>

08008ba2 <memcmp>:
 8008ba2:	b510      	push	{r4, lr}
 8008ba4:	3901      	subs	r1, #1
 8008ba6:	4402      	add	r2, r0
 8008ba8:	4290      	cmp	r0, r2
 8008baa:	d101      	bne.n	8008bb0 <memcmp+0xe>
 8008bac:	2000      	movs	r0, #0
 8008bae:	e005      	b.n	8008bbc <memcmp+0x1a>
 8008bb0:	7803      	ldrb	r3, [r0, #0]
 8008bb2:	f811 4f01 	ldrb.w	r4, [r1, #1]!
 8008bb6:	42a3      	cmp	r3, r4
 8008bb8:	d001      	beq.n	8008bbe <memcmp+0x1c>
 8008bba:	1b18      	subs	r0, r3, r4
 8008bbc:	bd10      	pop	{r4, pc}
 8008bbe:	3001      	adds	r0, #1
 8008bc0:	e7f2      	b.n	8008ba8 <memcmp+0x6>

08008bc2 <memset>:
 8008bc2:	4402      	add	r2, r0
 8008bc4:	4603      	mov	r3, r0
 8008bc6:	4293      	cmp	r3, r2
 8008bc8:	d100      	bne.n	8008bcc <memset+0xa>
 8008bca:	4770      	bx	lr
 8008bcc:	f803 1b01 	strb.w	r1, [r3], #1
 8008bd0:	e7f9      	b.n	8008bc6 <memset+0x4>

08008bd2 <strchr>:
 8008bd2:	b2c9      	uxtb	r1, r1
 8008bd4:	4603      	mov	r3, r0
 8008bd6:	4618      	mov	r0, r3
 8008bd8:	f813 2b01 	ldrb.w	r2, [r3], #1
 8008bdc:	b112      	cbz	r2, 8008be4 <strchr+0x12>
 8008bde:	428a      	cmp	r2, r1
 8008be0:	d1f9      	bne.n	8008bd6 <strchr+0x4>
 8008be2:	4770      	bx	lr
 8008be4:	2900      	cmp	r1, #0
 8008be6:	bf18      	it	ne
 8008be8:	2000      	movne	r0, #0
 8008bea:	4770      	bx	lr

08008bec <__libc_init_array>:
 8008bec:	b570      	push	{r4, r5, r6, lr}
 8008bee:	4b0d      	ldr	r3, [pc, #52]	@ (8008c24 <__libc_init_array+0x38>)
 8008bf0:	4d0d      	ldr	r5, [pc, #52]	@ (8008c28 <__libc_init_array+0x3c>)
 8008bf2:	1b5b      	subs	r3, r3, r5
 8008bf4:	109c      	asrs	r4, r3, #2
 8008bf6:	2600      	movs	r6, #0
 8008bf8:	42a6      	cmp	r6, r4
 8008bfa:	d109      	bne.n	8008c10 <__libc_init_array+0x24>
 8008bfc:	f000 f828 	bl	8008c50 <_init>
 8008c00:	4d0a      	ldr	r5, [pc, #40]	@ (8008c2c <__libc_init_array+0x40>)
 8008c02:	4b0b      	ldr	r3, [pc, #44]	@ (8008c30 <__libc_init_array+0x44>)
 8008c04:	1b5b      	subs	r3, r3, r5
 8008c06:	109c      	asrs	r4, r3, #2
 8008c08:	2600      	movs	r6, #0
 8008c0a:	42a6      	cmp	r6, r4
 8008c0c:	d105      	bne.n	8008c1a <__libc_init_array+0x2e>
 8008c0e:	bd70      	pop	{r4, r5, r6, pc}
 8008c10:	f855 3b04 	ldr.w	r3, [r5], #4
 8008c14:	4798      	blx	r3
 8008c16:	3601      	adds	r6, #1
 8008c18:	e7ee      	b.n	8008bf8 <__libc_init_array+0xc>
 8008c1a:	f855 3b04 	ldr.w	r3, [r5], #4
 8008c1e:	4798      	blx	r3
 8008c20:	3601      	adds	r6, #1
 8008c22:	e7f2      	b.n	8008c0a <__libc_init_array+0x1e>
 8008c24:	080094d8 	.word	0x080094d8
 8008c28:	080094d8 	.word	0x080094d8
 8008c2c:	080094d8 	.word	0x080094d8
 8008c30:	080094dc 	.word	0x080094dc

08008c34 <memcpy>:
 8008c34:	440a      	add	r2, r1
 8008c36:	4291      	cmp	r1, r2
 8008c38:	f100 33ff 	add.w	r3, r0, #4294967295
 8008c3c:	d100      	bne.n	8008c40 <memcpy+0xc>
 8008c3e:	4770      	bx	lr
 8008c40:	b510      	push	{r4, lr}
 8008c42:	f811 4b01 	ldrb.w	r4, [r1], #1
 8008c46:	f803 4f01 	strb.w	r4, [r3, #1]!
 8008c4a:	4291      	cmp	r1, r2
 8008c4c:	d1f9      	bne.n	8008c42 <memcpy+0xe>
 8008c4e:	bd10      	pop	{r4, pc}

08008c50 <_init>:
 8008c50:	b5f8      	push	{r3, r4, r5, r6, r7, lr}
 8008c52:	bf00      	nop
 8008c54:	bcf8      	pop	{r3, r4, r5, r6, r7}
 8008c56:	bc08      	pop	{r3}
 8008c58:	469e      	mov	lr, r3
 8008c5a:	4770      	bx	lr

08008c5c <_fini>:
 8008c5c:	b5f8      	push	{r3, r4, r5, r6, r7, lr}
 8008c5e:	bf00      	nop
 8008c60:	bcf8      	pop	{r3, r4, r5, r6, r7}
 8008c62:	bc08      	pop	{r3}
 8008c64:	469e      	mov	lr, r3
 8008c66:	4770      	bx	lr
